
mini-quadruped.elf:     file format elf32-littlearm

Sections:
Idx Name          Size      VMA       LMA       File off  Algn
  0 .isr_vector   0000010c  08000000  08000000  00010000  2**0
                  CONTENTS, ALLOC, LOAD, READONLY, DATA
  1 .text         00008ab4  08000110  08000110  00010110  2**3
                  CONTENTS, ALLOC, LOAD, READONLY, CODE
  2 .rodata       000006e0  08008bc8  08008bc8  00018bc8  2**3
                  CONTENTS, ALLOC, LOAD, READONLY, DATA
  3 .ARM.extab    00000000  080092a8  080092a8  00020284  2**0
                  CONTENTS
  4 .ARM          00000000  080092a8  080092a8  00020284  2**0
                  CONTENTS
  5 .preinit_array 00000000  080092a8  080092a8  00020284  2**0
                  CONTENTS, ALLOC, LOAD, DATA
  6 .init_array   00000004  080092a8  080092a8  000192a8  2**2
                  CONTENTS, ALLOC, LOAD, DATA
  7 .fini_array   00000004  080092ac  080092ac  000192ac  2**2
                  CONTENTS, ALLOC, LOAD, DATA
  8 .data         00000284  20000000  080092b0  00020000  2**3
                  CONTENTS, ALLOC, LOAD, DATA
  9 .bss          000001b0  20000284  08009534  00020284  2**2
                  ALLOC
 10 ._user_heap_stack 00000604  20000434  08009534  00020434  2**0
                  ALLOC
 11 .ARM.attributes 00000029  00000000  00000000  00020284  2**0
                  CONTENTS, READONLY
 12 .comment      00000053  00000000  00000000  000202ad  2**0
                  CONTENTS, READONLY
 13 .debug_frame  000016a8  00000000  00000000  00020300  2**2
                  CONTENTS, READONLY, DEBUGGING, OCTETS

Disassembly of section .text:

08000110 <__do_global_dtors_aux>:
 8000110:	b510      	push	{r4, lr}
 8000112:	4c05      	ldr	r4, [pc, #20]	; (8000128 <__do_global_dtors_aux+0x18>)
 8000114:	7823      	ldrb	r3, [r4, #0]
 8000116:	b933      	cbnz	r3, 8000126 <__do_global_dtors_aux+0x16>
 8000118:	4b04      	ldr	r3, [pc, #16]	; (800012c <__do_global_dtors_aux+0x1c>)
 800011a:	b113      	cbz	r3, 8000122 <__do_global_dtors_aux+0x12>
 800011c:	4804      	ldr	r0, [pc, #16]	; (8000130 <__do_global_dtors_aux+0x20>)
 800011e:	f3af 8000 	nop.w
 8000122:	2301      	movs	r3, #1
 8000124:	7023      	strb	r3, [r4, #0]
 8000126:	bd10      	pop	{r4, pc}
 8000128:	20000284 	.word	0x20000284
 800012c:	00000000 	.word	0x00000000
 8000130:	08008bac 	.word	0x08008bac

08000134 <frame_dummy>:
 8000134:	b508      	push	{r3, lr}
 8000136:	4b03      	ldr	r3, [pc, #12]	; (8000144 <frame_dummy+0x10>)
 8000138:	b11b      	cbz	r3, 8000142 <frame_dummy+0xe>
 800013a:	4903      	ldr	r1, [pc, #12]	; (8000148 <frame_dummy+0x14>)
 800013c:	4803      	ldr	r0, [pc, #12]	; (800014c <frame_dummy+0x18>)
 800013e:	f3af 8000 	nop.w
 8000142:	bd08      	pop	{r3, pc}
 8000144:	00000000 	.word	0x00000000
 8000148:	20000288 	.word	0x20000288
 800014c:	08008bac 	.word	0x08008bac

08000150 <strlen>:
 8000150:	4603      	mov	r3, r0
 8000152:	f813 2b01 	ldrb.w	r2, [r3], #1
 8000156:	2a00      	cmp	r2, #0
 8000158:	d1fb      	bne.n	8000152 <strlen+0x2>
 800015a:	1a18      	subs	r0, r3, r0
 800015c:	3801      	subs	r0, #1
 800015e:	4770      	bx	lr

08000160 <__aeabi_drsub>:
 8000160:	f081 4100 	eor.w	r1, r1, #2147483648	; 0x80000000
 8000164:	e002      	b.n	800016c <__adddf3>
 8000166:	bf00      	nop

08000168 <__aeabi_dsub>:
 8000168:	f083 4300 	eor.w	r3, r3, #2147483648	; 0x80000000

0800016c <__adddf3>:
 800016c:	b530      	push	{r4, r5, lr}
 800016e:	ea4f 0441 	mov.w	r4, r1, lsl #1
 8000172:	ea4f 0543 	mov.w	r5, r3, lsl #1
 8000176:	ea94 0f05 	teq	r4, r5
 800017a:	bf08      	it	eq
 800017c:	ea90 0f02 	teqeq	r0, r2
 8000180:	bf1f      	itttt	ne
 8000182:	ea54 0c00 	orrsne.w	ip, r4, r0
 8000186:	ea55 0c02 	orrsne.w	ip, r5, r2
 800018a:	ea7f 5c64 	mvnsne.w	ip, r4, asr #21
 800018e:	ea7f 5c65 	mvnsne.w	ip, r5, asr #21
 8000192:	f000 80e2 	beq.w	800035a <__adddf3+0x1ee>
 8000196:	ea4f 5454 	mov.w	r4, r4, lsr #21
 800019a:	ebd4 5555 	rsbs	r5, r4, r5, lsr #21
 800019e:	bfb8      	it	lt
 80001a0:	426d      	neglt	r5, r5
 80001a2:	dd0c      	ble.n	80001be <__adddf3+0x52>
 80001a4:	442c      	add	r4, r5
 80001a6:	ea80 0202 	eor.w	r2, r0, r2
 80001aa:	ea81 0303 	eor.w	r3, r1, r3
 80001ae:	ea82 0000 	eor.w	r0, r2, r0
 80001b2:	ea83 0101 	eor.w	r1, r3, r1
 80001b6:	ea80 0202 	eor.w	r2, r0, r2
 80001ba:	ea81 0303 	eor.w	r3, r1, r3
 80001be:	2d36      	cmp	r5, #54	; 0x36
 80001c0:	bf88      	it	hi
 80001c2:	bd30      	pophi	{r4, r5, pc}
 80001c4:	f011 4f00 	tst.w	r1, #2147483648	; 0x80000000
 80001c8:	ea4f 3101 	mov.w	r1, r1, lsl #12
 80001cc:	f44f 1c80 	mov.w	ip, #1048576	; 0x100000
 80001d0:	ea4c 3111 	orr.w	r1, ip, r1, lsr #12
 80001d4:	d002      	beq.n	80001dc <__adddf3+0x70>
 80001d6:	4240      	negs	r0, r0
 80001d8:	eb61 0141 	sbc.w	r1, r1, r1, lsl #1
 80001dc:	f013 4f00 	tst.w	r3, #2147483648	; 0x80000000
 80001e0:	ea4f 3303 	mov.w	r3, r3, lsl #12
 80001e4:	ea4c 3313 	orr.w	r3, ip, r3, lsr #12
 80001e8:	d002      	beq.n	80001f0 <__adddf3+0x84>
 80001ea:	4252      	negs	r2, r2
 80001ec:	eb63 0343 	sbc.w	r3, r3, r3, lsl #1
 80001f0:	ea94 0f05 	teq	r4, r5
 80001f4:	f000 80a7 	beq.w	8000346 <__adddf3+0x1da>
 80001f8:	f1a4 0401 	sub.w	r4, r4, #1
 80001fc:	f1d5 0e20 	rsbs	lr, r5, #32
 8000200:	db0d      	blt.n	800021e <__adddf3+0xb2>
 8000202:	fa02 fc0e 	lsl.w	ip, r2, lr
 8000206:	fa22 f205 	lsr.w	r2, r2, r5
 800020a:	1880      	adds	r0, r0, r2
 800020c:	f141 0100 	adc.w	r1, r1, #0
 8000210:	fa03 f20e 	lsl.w	r2, r3, lr
 8000214:	1880      	adds	r0, r0, r2
 8000216:	fa43 f305 	asr.w	r3, r3, r5
 800021a:	4159      	adcs	r1, r3
 800021c:	e00e      	b.n	800023c <__adddf3+0xd0>
 800021e:	f1a5 0520 	sub.w	r5, r5, #32
 8000222:	f10e 0e20 	add.w	lr, lr, #32
 8000226:	2a01      	cmp	r2, #1
 8000228:	fa03 fc0e 	lsl.w	ip, r3, lr
 800022c:	bf28      	it	cs
 800022e:	f04c 0c02 	orrcs.w	ip, ip, #2
 8000232:	fa43 f305 	asr.w	r3, r3, r5
 8000236:	18c0      	adds	r0, r0, r3
 8000238:	eb51 71e3 	adcs.w	r1, r1, r3, asr #31
 800023c:	f001 4500 	and.w	r5, r1, #2147483648	; 0x80000000
 8000240:	d507      	bpl.n	8000252 <__adddf3+0xe6>
 8000242:	f04f 0e00 	mov.w	lr, #0
 8000246:	f1dc 0c00 	rsbs	ip, ip, #0
 800024a:	eb7e 0000 	sbcs.w	r0, lr, r0
 800024e:	eb6e 0101 	sbc.w	r1, lr, r1
 8000252:	f5b1 1f80 	cmp.w	r1, #1048576	; 0x100000
 8000256:	d31b      	bcc.n	8000290 <__adddf3+0x124>
 8000258:	f5b1 1f00 	cmp.w	r1, #2097152	; 0x200000
 800025c:	d30c      	bcc.n	8000278 <__adddf3+0x10c>
 800025e:	0849      	lsrs	r1, r1, #1
 8000260:	ea5f 0030 	movs.w	r0, r0, rrx
 8000264:	ea4f 0c3c 	mov.w	ip, ip, rrx
 8000268:	f104 0401 	add.w	r4, r4, #1
 800026c:	ea4f 5244 	mov.w	r2, r4, lsl #21
 8000270:	f512 0f80 	cmn.w	r2, #4194304	; 0x400000
 8000274:	f080 809a 	bcs.w	80003ac <__adddf3+0x240>
 8000278:	f1bc 4f00 	cmp.w	ip, #2147483648	; 0x80000000
 800027c:	bf08      	it	eq
 800027e:	ea5f 0c50 	movseq.w	ip, r0, lsr #1
 8000282:	f150 0000 	adcs.w	r0, r0, #0
 8000286:	eb41 5104 	adc.w	r1, r1, r4, lsl #20
 800028a:	ea41 0105 	orr.w	r1, r1, r5
 800028e:	bd30      	pop	{r4, r5, pc}
 8000290:	ea5f 0c4c 	movs.w	ip, ip, lsl #1
 8000294:	4140      	adcs	r0, r0
 8000296:	eb41 0101 	adc.w	r1, r1, r1
 800029a:	3c01      	subs	r4, #1
 800029c:	bf28      	it	cs
 800029e:	f5b1 1f80 	cmpcs.w	r1, #1048576	; 0x100000
 80002a2:	d2e9      	bcs.n	8000278 <__adddf3+0x10c>
 80002a4:	f091 0f00 	teq	r1, #0
 80002a8:	bf04      	itt	eq
 80002aa:	4601      	moveq	r1, r0
 80002ac:	2000      	moveq	r0, #0
 80002ae:	fab1 f381 	clz	r3, r1
 80002b2:	bf08      	it	eq
 80002b4:	3320      	addeq	r3, #32
 80002b6:	f1a3 030b 	sub.w	r3, r3, #11
 80002ba:	f1b3 0220 	subs.w	r2, r3, #32
 80002be:	da0c      	bge.n	80002da <__adddf3+0x16e>
 80002c0:	320c      	adds	r2, #12
 80002c2:	dd08      	ble.n	80002d6 <__adddf3+0x16a>
 80002c4:	f102 0c14 	add.w	ip, r2, #20
 80002c8:	f1c2 020c 	rsb	r2, r2, #12
 80002cc:	fa01 f00c 	lsl.w	r0, r1, ip
 80002d0:	fa21 f102 	lsr.w	r1, r1, r2
 80002d4:	e00c      	b.n	80002f0 <__adddf3+0x184>
 80002d6:	f102 0214 	add.w	r2, r2, #20
 80002da:	bfd8      	it	le
 80002dc:	f1c2 0c20 	rsble	ip, r2, #32
 80002e0:	fa01 f102 	lsl.w	r1, r1, r2
 80002e4:	fa20 fc0c 	lsr.w	ip, r0, ip
 80002e8:	bfdc      	itt	le
 80002ea:	ea41 010c 	orrle.w	r1, r1, ip
 80002ee:	4090      	lslle	r0, r2
 80002f0:	1ae4      	subs	r4, r4, r3
 80002f2:	bfa2      	ittt	ge
 80002f4:	eb01 5104 	addge.w	r1, r1, r4, lsl #20
 80002f8:	4329      	orrge	r1, r5
 80002fa:	bd30      	popge	{r4, r5, pc}
 80002fc:	ea6f 0404 	mvn.w	r4, r4
 8000300:	3c1f      	subs	r4, #31
 8000302:	da1c      	bge.n	800033e <__adddf3+0x1d2>
 8000304:	340c      	adds	r4, #12
 8000306:	dc0e      	bgt.n	8000326 <__adddf3+0x1ba>
 8000308:	f104 0414 	add.w	r4, r4, #20
 800030c:	f1c4 0220 	rsb	r2, r4, #32
 8000310:	fa20 f004 	lsr.w	r0, r0, r4
 8000314:	fa01 f302 	lsl.w	r3, r1, r2
 8000318:	ea40 0003 	orr.w	r0, r0, r3
 800031c:	fa21 f304 	lsr.w	r3, r1, r4
 8000320:	ea45 0103 	orr.w	r1, r5, r3
 8000324:	bd30      	pop	{r4, r5, pc}
 8000326:	f1c4 040c 	rsb	r4, r4, #12
 800032a:	f1c4 0220 	rsb	r2, r4, #32
 800032e:	fa20 f002 	lsr.w	r0, r0, r2
 8000332:	fa01 f304 	lsl.w	r3, r1, r4
 8000336:	ea40 0003 	orr.w	r0, r0, r3
 800033a:	4629      	mov	r1, r5
 800033c:	bd30      	pop	{r4, r5, pc}
 800033e:	fa21 f004 	lsr.w	r0, r1, r4
 8000342:	4629      	mov	r1, r5
 8000344:	bd30      	pop	{r4, r5, pc}
 8000346:	f094 0f00 	teq	r4, #0
 800034a:	f483 1380 	eor.w	r3, r3, #1048576	; 0x100000
 800034e:	bf06      	itte	eq
 8000350:	f481 1180 	eoreq.w	r1, r1, #1048576	; 0x100000
 8000354:	3401      	addeq	r4, #1
 8000356:	3d01      	subne	r5, #1
 8000358:	e74e      	b.n	80001f8 <__adddf3+0x8c>
 800035a:	ea7f 5c64 	mvns.w	ip, r4, asr #21
 800035e:	bf18      	it	ne
 8000360:	ea7f 5c65 	mvnsne.w	ip, r5, asr #21
 8000364:	d029      	beq.n	80003ba <__adddf3+0x24e>
 8000366:	ea94 0f05 	teq	r4, r5
 800036a:	bf08      	it	eq
 800036c:	ea90 0f02 	teqeq	r0, r2
 8000370:	d005      	beq.n	800037e <__adddf3+0x212>
 8000372:	ea54 0c00 	orrs.w	ip, r4, r0
 8000376:	bf04      	itt	eq
 8000378:	4619      	moveq	r1, r3
 800037a:	4610      	moveq	r0, r2
 800037c:	bd30      	pop	{r4, r5, pc}
 800037e:	ea91 0f03 	teq	r1, r3
 8000382:	bf1e      	ittt	ne
 8000384:	2100      	movne	r1, #0
 8000386:	2000      	movne	r0, #0
 8000388:	bd30      	popne	{r4, r5, pc}
 800038a:	ea5f 5c54 	movs.w	ip, r4, lsr #21
 800038e:	d105      	bne.n	800039c <__adddf3+0x230>
 8000390:	0040      	lsls	r0, r0, #1
 8000392:	4149      	adcs	r1, r1
 8000394:	bf28      	it	cs
 8000396:	f041 4100 	orrcs.w	r1, r1, #2147483648	; 0x80000000
 800039a:	bd30      	pop	{r4, r5, pc}
 800039c:	f514 0480 	adds.w	r4, r4, #4194304	; 0x400000
 80003a0:	bf3c      	itt	cc
 80003a2:	f501 1180 	addcc.w	r1, r1, #1048576	; 0x100000
 80003a6:	bd30      	popcc	{r4, r5, pc}
 80003a8:	f001 4500 	and.w	r5, r1, #2147483648	; 0x80000000
 80003ac:	f045 41fe 	orr.w	r1, r5, #2130706432	; 0x7f000000
 80003b0:	f441 0170 	orr.w	r1, r1, #15728640	; 0xf00000
 80003b4:	f04f 0000 	mov.w	r0, #0
 80003b8:	bd30      	pop	{r4, r5, pc}
 80003ba:	ea7f 5c64 	mvns.w	ip, r4, asr #21
 80003be:	bf1a      	itte	ne
 80003c0:	4619      	movne	r1, r3
 80003c2:	4610      	movne	r0, r2
 80003c4:	ea7f 5c65 	mvnseq.w	ip, r5, asr #21
 80003c8:	bf1c      	itt	ne
 80003ca:	460b      	movne	r3, r1
 80003cc:	4602      	movne	r2, r0
 80003ce:	ea50 3401 	orrs.w	r4, r0, r1, lsl #12
 80003d2:	bf06      	itte	eq
 80003d4:	ea52 3503 	orrseq.w	r5, r2, r3, lsl #12
 80003d8:	ea91 0f03 	teqeq	r1, r3
 80003dc:	f441 2100 	orrne.w	r1, r1, #524288	; 0x80000
 80003e0:	bd30      	pop	{r4, r5, pc}
 80003e2:	bf00      	nop

080003e4 <__aeabi_ui2d>:
 80003e4:	f090 0f00 	teq	r0, #0
 80003e8:	bf04      	itt	eq
 80003ea:	2100      	moveq	r1, #0
 80003ec:	4770      	bxeq	lr
 80003ee:	b530      	push	{r4, r5, lr}
 80003f0:	f44f 6480 	mov.w	r4, #1024	; 0x400
 80003f4:	f104 0432 	add.w	r4, r4, #50	; 0x32
 80003f8:	f04f 0500 	mov.w	r5, #0
 80003fc:	f04f 0100 	mov.w	r1, #0
 8000400:	e750      	b.n	80002a4 <__adddf3+0x138>
 8000402:	bf00      	nop

08000404 <__aeabi_i2d>:
 8000404:	f090 0f00 	teq	r0, #0
 8000408:	bf04      	itt	eq
 800040a:	2100      	moveq	r1, #0
 800040c:	4770      	bxeq	lr
 800040e:	b530      	push	{r4, r5, lr}
 8000410:	f44f 6480 	mov.w	r4, #1024	; 0x400
 8000414:	f104 0432 	add.w	r4, r4, #50	; 0x32
 8000418:	f010 4500 	ands.w	r5, r0, #2147483648	; 0x80000000
 800041c:	bf48      	it	mi
 800041e:	4240      	negmi	r0, r0
 8000420:	f04f 0100 	mov.w	r1, #0
 8000424:	e73e      	b.n	80002a4 <__adddf3+0x138>
 8000426:	bf00      	nop

08000428 <__aeabi_f2d>:
 8000428:	0042      	lsls	r2, r0, #1
 800042a:	ea4f 01e2 	mov.w	r1, r2, asr #3
 800042e:	ea4f 0131 	mov.w	r1, r1, rrx
 8000432:	ea4f 7002 	mov.w	r0, r2, lsl #28
 8000436:	bf1f      	itttt	ne
 8000438:	f012 437f 	andsne.w	r3, r2, #4278190080	; 0xff000000
 800043c:	f093 4f7f 	teqne	r3, #4278190080	; 0xff000000
 8000440:	f081 5160 	eorne.w	r1, r1, #939524096	; 0x38000000
 8000444:	4770      	bxne	lr
 8000446:	f032 427f 	bics.w	r2, r2, #4278190080	; 0xff000000
 800044a:	bf08      	it	eq
 800044c:	4770      	bxeq	lr
 800044e:	f093 4f7f 	teq	r3, #4278190080	; 0xff000000
 8000452:	bf04      	itt	eq
 8000454:	f441 2100 	orreq.w	r1, r1, #524288	; 0x80000
 8000458:	4770      	bxeq	lr
 800045a:	b530      	push	{r4, r5, lr}
 800045c:	f44f 7460 	mov.w	r4, #896	; 0x380
 8000460:	f001 4500 	and.w	r5, r1, #2147483648	; 0x80000000
 8000464:	f021 4100 	bic.w	r1, r1, #2147483648	; 0x80000000
 8000468:	e71c      	b.n	80002a4 <__adddf3+0x138>
 800046a:	bf00      	nop

0800046c <__aeabi_ul2d>:
 800046c:	ea50 0201 	orrs.w	r2, r0, r1
 8000470:	bf08      	it	eq
 8000472:	4770      	bxeq	lr
 8000474:	b530      	push	{r4, r5, lr}
 8000476:	f04f 0500 	mov.w	r5, #0
 800047a:	e00a      	b.n	8000492 <__aeabi_l2d+0x16>

0800047c <__aeabi_l2d>:
 800047c:	ea50 0201 	orrs.w	r2, r0, r1
 8000480:	bf08      	it	eq
 8000482:	4770      	bxeq	lr
 8000484:	b530      	push	{r4, r5, lr}
 8000486:	f011 4500 	ands.w	r5, r1, #2147483648	; 0x80000000
 800048a:	d502      	bpl.n	8000492 <__aeabi_l2d+0x16>
 800048c:	4240      	negs	r0, r0
 800048e:	eb61 0141 	sbc.w	r1, r1, r1, lsl #1
 8000492:	f44f 6480 	mov.w	r4, #1024	; 0x400
 8000496:	f104 0432 	add.w	r4, r4, #50	; 0x32
 800049a:	ea5f 5c91 	movs.w	ip, r1, lsr #22
 800049e:	f43f aed8 	beq.w	8000252 <__adddf3+0xe6>
 80004a2:	f04f 0203 	mov.w	r2, #3
 80004a6:	ea5f 0cdc 	movs.w	ip, ip, lsr #3
 80004aa:	bf18      	it	ne
 80004ac:	3203      	addne	r2, #3
 80004ae:	ea5f 0cdc 	movs.w	ip, ip, lsr #3
 80004b2:	bf18      	it	ne
 80004b4:	3203      	addne	r2, #3
 80004b6:	eb02 02dc 	add.w	r2, r2, ip, lsr #3
 80004ba:	f1c2 0320 	rsb	r3, r2, #32
 80004be:	fa00 fc03 	lsl.w	ip, r0, r3
 80004c2:	fa20 f002 	lsr.w	r0, r0, r2
 80004c6:	fa01 fe03 	lsl.w	lr, r1, r3
 80004ca:	ea40 000e 	orr.w	r0, r0, lr
 80004ce:	fa21 f102 	lsr.w	r1, r1, r2
 80004d2:	4414      	add	r4, r2
 80004d4:	e6bd      	b.n	8000252 <__adddf3+0xe6>
 80004d6:	bf00      	nop

080004d8 <__aeabi_dmul>:
 80004d8:	b570      	push	{r4, r5, r6, lr}
 80004da:	f04f 0cff 	mov.w	ip, #255	; 0xff
 80004de:	f44c 6ce0 	orr.w	ip, ip, #1792	; 0x700
 80004e2:	ea1c 5411 	ands.w	r4, ip, r1, lsr #20
 80004e6:	bf1d      	ittte	ne
 80004e8:	ea1c 5513 	andsne.w	r5, ip, r3, lsr #20
 80004ec:	ea94 0f0c 	teqne	r4, ip
 80004f0:	ea95 0f0c 	teqne	r5, ip
 80004f4:	f000 f8de 	bleq	80006b4 <__aeabi_dmul+0x1dc>
 80004f8:	442c      	add	r4, r5
 80004fa:	ea81 0603 	eor.w	r6, r1, r3
 80004fe:	ea21 514c 	bic.w	r1, r1, ip, lsl #21
 8000502:	ea23 534c 	bic.w	r3, r3, ip, lsl #21
 8000506:	ea50 3501 	orrs.w	r5, r0, r1, lsl #12
 800050a:	bf18      	it	ne
 800050c:	ea52 3503 	orrsne.w	r5, r2, r3, lsl #12
 8000510:	f441 1180 	orr.w	r1, r1, #1048576	; 0x100000
 8000514:	f443 1380 	orr.w	r3, r3, #1048576	; 0x100000
 8000518:	d038      	beq.n	800058c <__aeabi_dmul+0xb4>
 800051a:	fba0 ce02 	umull	ip, lr, r0, r2
 800051e:	f04f 0500 	mov.w	r5, #0
 8000522:	fbe1 e502 	umlal	lr, r5, r1, r2
 8000526:	f006 4200 	and.w	r2, r6, #2147483648	; 0x80000000
 800052a:	fbe0 e503 	umlal	lr, r5, r0, r3
 800052e:	f04f 0600 	mov.w	r6, #0
 8000532:	fbe1 5603 	umlal	r5, r6, r1, r3
 8000536:	f09c 0f00 	teq	ip, #0
 800053a:	bf18      	it	ne
 800053c:	f04e 0e01 	orrne.w	lr, lr, #1
 8000540:	f1a4 04ff 	sub.w	r4, r4, #255	; 0xff
 8000544:	f5b6 7f00 	cmp.w	r6, #512	; 0x200
 8000548:	f564 7440 	sbc.w	r4, r4, #768	; 0x300
 800054c:	d204      	bcs.n	8000558 <__aeabi_dmul+0x80>
 800054e:	ea5f 0e4e 	movs.w	lr, lr, lsl #1
 8000552:	416d      	adcs	r5, r5
 8000554:	eb46 0606 	adc.w	r6, r6, r6
 8000558:	ea42 21c6 	orr.w	r1, r2, r6, lsl #11
 800055c:	ea41 5155 	orr.w	r1, r1, r5, lsr #21
 8000560:	ea4f 20c5 	mov.w	r0, r5, lsl #11
 8000564:	ea40 505e 	orr.w	r0, r0, lr, lsr #21
 8000568:	ea4f 2ece 	mov.w	lr, lr, lsl #11
 800056c:	f1b4 0cfd 	subs.w	ip, r4, #253	; 0xfd
 8000570:	bf88      	it	hi
 8000572:	f5bc 6fe0 	cmphi.w	ip, #1792	; 0x700
 8000576:	d81e      	bhi.n	80005b6 <__aeabi_dmul+0xde>
 8000578:	f1be 4f00 	cmp.w	lr, #2147483648	; 0x80000000
 800057c:	bf08      	it	eq
 800057e:	ea5f 0e50 	movseq.w	lr, r0, lsr #1
 8000582:	f150 0000 	adcs.w	r0, r0, #0
 8000586:	eb41 5104 	adc.w	r1, r1, r4, lsl #20
 800058a:	bd70      	pop	{r4, r5, r6, pc}
 800058c:	f006 4600 	and.w	r6, r6, #2147483648	; 0x80000000
 8000590:	ea46 0101 	orr.w	r1, r6, r1
 8000594:	ea40 0002 	orr.w	r0, r0, r2
 8000598:	ea81 0103 	eor.w	r1, r1, r3
 800059c:	ebb4 045c 	subs.w	r4, r4, ip, lsr #1
 80005a0:	bfc2      	ittt	gt
 80005a2:	ebd4 050c 	rsbsgt	r5, r4, ip
 80005a6:	ea41 5104 	orrgt.w	r1, r1, r4, lsl #20
 80005aa:	bd70      	popgt	{r4, r5, r6, pc}
 80005ac:	f441 1180 	orr.w	r1, r1, #1048576	; 0x100000
 80005b0:	f04f 0e00 	mov.w	lr, #0
 80005b4:	3c01      	subs	r4, #1
 80005b6:	f300 80ab 	bgt.w	8000710 <__aeabi_dmul+0x238>
 80005ba:	f114 0f36 	cmn.w	r4, #54	; 0x36
 80005be:	bfde      	ittt	le
 80005c0:	2000      	movle	r0, #0
 80005c2:	f001 4100 	andle.w	r1, r1, #2147483648	; 0x80000000
 80005c6:	bd70      	pople	{r4, r5, r6, pc}
 80005c8:	f1c4 0400 	rsb	r4, r4, #0
 80005cc:	3c20      	subs	r4, #32
 80005ce:	da35      	bge.n	800063c <__aeabi_dmul+0x164>
 80005d0:	340c      	adds	r4, #12
 80005d2:	dc1b      	bgt.n	800060c <__aeabi_dmul+0x134>
 80005d4:	f104 0414 	add.w	r4, r4, #20
 80005d8:	f1c4 0520 	rsb	r5, r4, #32
 80005dc:	fa00 f305 	lsl.w	r3, r0, r5
 80005e0:	fa20 f004 	lsr.w	r0, r0, r4
 80005e4:	fa01 f205 	lsl.w	r2, r1, r5
 80005e8:	ea40 0002 	orr.w	r0, r0, r2
 80005ec:	f001 4200 	and.w	r2, r1, #2147483648	; 0x80000000
 80005f0:	f021 4100 	bic.w	r1, r1, #2147483648	; 0x80000000
 80005f4:	eb10 70d3 	adds.w	r0, r0, r3, lsr #31
 80005f8:	fa21 f604 	lsr.w	r6, r1, r4
 80005fc:	eb42 0106 	adc.w	r1, r2, r6
 8000600:	ea5e 0e43 	orrs.w	lr, lr, r3, lsl #1
 8000604:	bf08      	it	eq
 8000606:	ea20 70d3 	biceq.w	r0, r0, r3, lsr #31
 800060a:	bd70      	pop	{r4, r5, r6, pc}
 800060c:	f1c4 040c 	rsb	r4, r4, #12
 8000610:	f1c4 0520 	rsb	r5, r4, #32
 8000614:	fa00 f304 	lsl.w	r3, r0, r4
 8000618:	fa20 f005 	lsr.w	r0, r0, r5
 800061c:	fa01 f204 	lsl.w	r2, r1, r4
 8000620:	ea40 0002 	orr.w	r0, r0, r2
 8000624:	f001 4100 	and.w	r1, r1, #2147483648	; 0x80000000
 8000628:	eb10 70d3 	adds.w	r0, r0, r3, lsr #31
 800062c:	f141 0100 	adc.w	r1, r1, #0
 8000630:	ea5e 0e43 	orrs.w	lr, lr, r3, lsl #1
 8000634:	bf08      	it	eq
 8000636:	ea20 70d3 	biceq.w	r0, r0, r3, lsr #31
 800063a:	bd70      	pop	{r4, r5, r6, pc}
 800063c:	f1c4 0520 	rsb	r5, r4, #32
 8000640:	fa00 f205 	lsl.w	r2, r0, r5
 8000644:	ea4e 0e02 	orr.w	lr, lr, r2
 8000648:	fa20 f304 	lsr.w	r3, r0, r4
 800064c:	fa01 f205 	lsl.w	r2, r1, r5
 8000650:	ea43 0302 	orr.w	r3, r3, r2
 8000654:	fa21 f004 	lsr.w	r0, r1, r4
 8000658:	f001 4100 	and.w	r1, r1, #2147483648	; 0x80000000
 800065c:	fa21 f204 	lsr.w	r2, r1, r4
 8000660:	ea20 0002 	bic.w	r0, r0, r2
 8000664:	eb00 70d3 	add.w	r0, r0, r3, lsr #31
 8000668:	ea5e 0e43 	orrs.w	lr, lr, r3, lsl #1
 800066c:	bf08      	it	eq
 800066e:	ea20 70d3 	biceq.w	r0, r0, r3, lsr #31
 8000672:	bd70      	pop	{r4, r5, r6, pc}
 8000674:	f094 0f00 	teq	r4, #0
 8000678:	d10f      	bne.n	800069a <__aeabi_dmul+0x1c2>
 800067a:	f001 4600 	and.w	r6, r1, #2147483648	; 0x80000000
 800067e:	0040      	lsls	r0, r0, #1
 8000680:	eb41 0101 	adc.w	r1, r1, r1
 8000684:	f411 1f80 	tst.w	r1, #1048576	; 0x100000
 8000688:	bf08      	it	eq
 800068a:	3c01      	subeq	r4, #1
 800068c:	d0f7      	beq.n	800067e <__aeabi_dmul+0x1a6>
 800068e:	ea41 0106 	orr.w	r1, r1, r6
 8000692:	f095 0f00 	teq	r5, #0
 8000696:	bf18      	it	ne
 8000698:	4770      	bxne	lr
 800069a:	f003 4600 	and.w	r6, r3, #2147483648	; 0x80000000
 800069e:	0052      	lsls	r2, r2, #1
 80006a0:	eb43 0303 	adc.w	r3, r3, r3
 80006a4:	f413 1f80 	tst.w	r3, #1048576	; 0x100000
 80006a8:	bf08      	it	eq
 80006aa:	3d01      	subeq	r5, #1
 80006ac:	d0f7      	beq.n	800069e <__aeabi_dmul+0x1c6>
 80006ae:	ea43 0306 	orr.w	r3, r3, r6
 80006b2:	4770      	bx	lr
 80006b4:	ea94 0f0c 	teq	r4, ip
 80006b8:	ea0c 5513 	and.w	r5, ip, r3, lsr #20
 80006bc:	bf18      	it	ne
 80006be:	ea95 0f0c 	teqne	r5, ip
 80006c2:	d00c      	beq.n	80006de <__aeabi_dmul+0x206>
 80006c4:	ea50 0641 	orrs.w	r6, r0, r1, lsl #1
 80006c8:	bf18      	it	ne
 80006ca:	ea52 0643 	orrsne.w	r6, r2, r3, lsl #1
 80006ce:	d1d1      	bne.n	8000674 <__aeabi_dmul+0x19c>
 80006d0:	ea81 0103 	eor.w	r1, r1, r3
 80006d4:	f001 4100 	and.w	r1, r1, #2147483648	; 0x80000000
 80006d8:	f04f 0000 	mov.w	r0, #0
 80006dc:	bd70      	pop	{r4, r5, r6, pc}
 80006de:	ea50 0641 	orrs.w	r6, r0, r1, lsl #1
 80006e2:	bf06      	itte	eq
 80006e4:	4610      	moveq	r0, r2
 80006e6:	4619      	moveq	r1, r3
 80006e8:	ea52 0643 	orrsne.w	r6, r2, r3, lsl #1
 80006ec:	d019      	beq.n	8000722 <__aeabi_dmul+0x24a>
 80006ee:	ea94 0f0c 	teq	r4, ip
 80006f2:	d102      	bne.n	80006fa <__aeabi_dmul+0x222>
 80006f4:	ea50 3601 	orrs.w	r6, r0, r1, lsl #12
 80006f8:	d113      	bne.n	8000722 <__aeabi_dmul+0x24a>
 80006fa:	ea95 0f0c 	teq	r5, ip
 80006fe:	d105      	bne.n	800070c <__aeabi_dmul+0x234>
 8000700:	ea52 3603 	orrs.w	r6, r2, r3, lsl #12
 8000704:	bf1c      	itt	ne
 8000706:	4610      	movne	r0, r2
 8000708:	4619      	movne	r1, r3
 800070a:	d10a      	bne.n	8000722 <__aeabi_dmul+0x24a>
 800070c:	ea81 0103 	eor.w	r1, r1, r3
 8000710:	f001 4100 	and.w	r1, r1, #2147483648	; 0x80000000
 8000714:	f041 41fe 	orr.w	r1, r1, #2130706432	; 0x7f000000
 8000718:	f441 0170 	orr.w	r1, r1, #15728640	; 0xf00000
 800071c:	f04f 0000 	mov.w	r0, #0
 8000720:	bd70      	pop	{r4, r5, r6, pc}
 8000722:	f041 41fe 	orr.w	r1, r1, #2130706432	; 0x7f000000
 8000726:	f441 0178 	orr.w	r1, r1, #16252928	; 0xf80000
 800072a:	bd70      	pop	{r4, r5, r6, pc}

0800072c <__aeabi_ddiv>:
 800072c:	b570      	push	{r4, r5, r6, lr}
 800072e:	f04f 0cff 	mov.w	ip, #255	; 0xff
 8000732:	f44c 6ce0 	orr.w	ip, ip, #1792	; 0x700
 8000736:	ea1c 5411 	ands.w	r4, ip, r1, lsr #20
 800073a:	bf1d      	ittte	ne
 800073c:	ea1c 5513 	andsne.w	r5, ip, r3, lsr #20
 8000740:	ea94 0f0c 	teqne	r4, ip
 8000744:	ea95 0f0c 	teqne	r5, ip
 8000748:	f000 f8a7 	bleq	800089a <__aeabi_ddiv+0x16e>
 800074c:	eba4 0405 	sub.w	r4, r4, r5
 8000750:	ea81 0e03 	eor.w	lr, r1, r3
 8000754:	ea52 3503 	orrs.w	r5, r2, r3, lsl #12
 8000758:	ea4f 3101 	mov.w	r1, r1, lsl #12
 800075c:	f000 8088 	beq.w	8000870 <__aeabi_ddiv+0x144>
 8000760:	ea4f 3303 	mov.w	r3, r3, lsl #12
 8000764:	f04f 5580 	mov.w	r5, #268435456	; 0x10000000
 8000768:	ea45 1313 	orr.w	r3, r5, r3, lsr #4
 800076c:	ea43 6312 	orr.w	r3, r3, r2, lsr #24
 8000770:	ea4f 2202 	mov.w	r2, r2, lsl #8
 8000774:	ea45 1511 	orr.w	r5, r5, r1, lsr #4
 8000778:	ea45 6510 	orr.w	r5, r5, r0, lsr #24
 800077c:	ea4f 2600 	mov.w	r6, r0, lsl #8
 8000780:	f00e 4100 	and.w	r1, lr, #2147483648	; 0x80000000
 8000784:	429d      	cmp	r5, r3
 8000786:	bf08      	it	eq
 8000788:	4296      	cmpeq	r6, r2
 800078a:	f144 04fd 	adc.w	r4, r4, #253	; 0xfd
 800078e:	f504 7440 	add.w	r4, r4, #768	; 0x300
 8000792:	d202      	bcs.n	800079a <__aeabi_ddiv+0x6e>
 8000794:	085b      	lsrs	r3, r3, #1
 8000796:	ea4f 0232 	mov.w	r2, r2, rrx
 800079a:	1ab6      	subs	r6, r6, r2
 800079c:	eb65 0503 	sbc.w	r5, r5, r3
 80007a0:	085b      	lsrs	r3, r3, #1
 80007a2:	ea4f 0232 	mov.w	r2, r2, rrx
 80007a6:	f44f 1080 	mov.w	r0, #1048576	; 0x100000
 80007aa:	f44f 2c00 	mov.w	ip, #524288	; 0x80000
 80007ae:	ebb6 0e02 	subs.w	lr, r6, r2
 80007b2:	eb75 0e03 	sbcs.w	lr, r5, r3
 80007b6:	bf22      	ittt	cs
 80007b8:	1ab6      	subcs	r6, r6, r2
 80007ba:	4675      	movcs	r5, lr
 80007bc:	ea40 000c 	orrcs.w	r0, r0, ip
 80007c0:	085b      	lsrs	r3, r3, #1
 80007c2:	ea4f 0232 	mov.w	r2, r2, rrx
 80007c6:	ebb6 0e02 	subs.w	lr, r6, r2
 80007ca:	eb75 0e03 	sbcs.w	lr, r5, r3
 80007ce:	bf22      	ittt	cs
 80007d0:	1ab6      	subcs	r6, r6, r2
 80007d2:	4675      	movcs	r5, lr
 80007d4:	ea40 005c 	orrcs.w	r0, r0, ip, lsr #1
 80007d8:	085b      	lsrs	r3, r3, #1
 80007da:	ea4f 0232 	mov.w	r2, r2, rrx
 80007de:	ebb6 0e02 	subs.w	lr, r6, r2
 80007e2:	eb75 0e03 	sbcs.w	lr, r5, r3
 80007e6:	bf22      	ittt	cs
 80007e8:	1ab6      	subcs	r6, r6, r2
 80007ea:	4675      	movcs	r5, lr
 80007ec:	ea40 009c 	orrcs.w	r0, r0, ip, lsr #2
 80007f0:	085b      	lsrs	r3, r3, #1
 80007f2:	ea4f 0232 	mov.w	r2, r2, rrx
 80007f6:	ebb6 0e02 	subs.w	lr, r6, r2
 80007fa:	eb75 0e03 	sbcs.w	lr, r5, r3
 80007fe:	bf22      	ittt	cs
 8000800:	1ab6      	subcs	r6, r6, r2
 8000802:	4675      	movcs	r5, lr
 8000804:	ea40 00dc 	orrcs.w	r0, r0, ip, lsr #3
 8000808:	ea55 0e06 	orrs.w	lr, r5, r6
 800080c:	d018      	beq.n	8000840 <__aeabi_ddiv+0x114>
 800080e:	ea4f 1505 	mov.w	r5, r5, lsl #4
 8000812:	ea45 7516 	orr.w	r5, r5, r6, lsr #28
 8000816:	ea4f 1606 	mov.w	r6, r6, lsl #4
 800081a:	ea4f 03c3 	mov.w	r3, r3, lsl #3
 800081e:	ea43 7352 	orr.w	r3, r3, r2, lsr #29
 8000822:	ea4f 02c2 	mov.w	r2, r2, lsl #3
 8000826:	ea5f 1c1c 	movs.w	ip, ip, lsr #4
 800082a:	d1c0      	bne.n	80007ae <__aeabi_ddiv+0x82>
 800082c:	f411 1f80 	tst.w	r1, #1048576	; 0x100000
 8000830:	d10b      	bne.n	800084a <__aeabi_ddiv+0x11e>
 8000832:	ea41 0100 	orr.w	r1, r1, r0
 8000836:	f04f 0000 	mov.w	r0, #0
 800083a:	f04f 4c00 	mov.w	ip, #2147483648	; 0x80000000
 800083e:	e7b6      	b.n	80007ae <__aeabi_ddiv+0x82>
 8000840:	f411 1f80 	tst.w	r1, #1048576	; 0x100000
 8000844:	bf04      	itt	eq
 8000846:	4301      	orreq	r1, r0
 8000848:	2000      	moveq	r0, #0
 800084a:	f1b4 0cfd 	subs.w	ip, r4, #253	; 0xfd
 800084e:	bf88      	it	hi
 8000850:	f5bc 6fe0 	cmphi.w	ip, #1792	; 0x700
 8000854:	f63f aeaf 	bhi.w	80005b6 <__aeabi_dmul+0xde>
 8000858:	ebb5 0c03 	subs.w	ip, r5, r3
 800085c:	bf04      	itt	eq
 800085e:	ebb6 0c02 	subseq.w	ip, r6, r2
 8000862:	ea5f 0c50 	movseq.w	ip, r0, lsr #1
 8000866:	f150 0000 	adcs.w	r0, r0, #0
 800086a:	eb41 5104 	adc.w	r1, r1, r4, lsl #20
 800086e:	bd70      	pop	{r4, r5, r6, pc}
 8000870:	f00e 4e00 	and.w	lr, lr, #2147483648	; 0x80000000
 8000874:	ea4e 3111 	orr.w	r1, lr, r1, lsr #12
 8000878:	eb14 045c 	adds.w	r4, r4, ip, lsr #1
 800087c:	bfc2      	ittt	gt
 800087e:	ebd4 050c 	rsbsgt	r5, r4, ip
 8000882:	ea41 5104 	orrgt.w	r1, r1, r4, lsl #20
 8000886:	bd70      	popgt	{r4, r5, r6, pc}
 8000888:	f441 1180 	orr.w	r1, r1, #1048576	; 0x100000
 800088c:	f04f 0e00 	mov.w	lr, #0
 8000890:	3c01      	subs	r4, #1
 8000892:	e690      	b.n	80005b6 <__aeabi_dmul+0xde>
 8000894:	ea45 0e06 	orr.w	lr, r5, r6
 8000898:	e68d      	b.n	80005b6 <__aeabi_dmul+0xde>
 800089a:	ea0c 5513 	and.w	r5, ip, r3, lsr #20
 800089e:	ea94 0f0c 	teq	r4, ip
 80008a2:	bf08      	it	eq
 80008a4:	ea95 0f0c 	teqeq	r5, ip
 80008a8:	f43f af3b 	beq.w	8000722 <__aeabi_dmul+0x24a>
 80008ac:	ea94 0f0c 	teq	r4, ip
 80008b0:	d10a      	bne.n	80008c8 <__aeabi_ddiv+0x19c>
 80008b2:	ea50 3401 	orrs.w	r4, r0, r1, lsl #12
 80008b6:	f47f af34 	bne.w	8000722 <__aeabi_dmul+0x24a>
 80008ba:	ea95 0f0c 	teq	r5, ip
 80008be:	f47f af25 	bne.w	800070c <__aeabi_dmul+0x234>
 80008c2:	4610      	mov	r0, r2
 80008c4:	4619      	mov	r1, r3
 80008c6:	e72c      	b.n	8000722 <__aeabi_dmul+0x24a>
 80008c8:	ea95 0f0c 	teq	r5, ip
 80008cc:	d106      	bne.n	80008dc <__aeabi_ddiv+0x1b0>
 80008ce:	ea52 3503 	orrs.w	r5, r2, r3, lsl #12
 80008d2:	f43f aefd 	beq.w	80006d0 <__aeabi_dmul+0x1f8>
 80008d6:	4610      	mov	r0, r2
 80008d8:	4619      	mov	r1, r3
 80008da:	e722      	b.n	8000722 <__aeabi_dmul+0x24a>
 80008dc:	ea50 0641 	orrs.w	r6, r0, r1, lsl #1
 80008e0:	bf18      	it	ne
 80008e2:	ea52 0643 	orrsne.w	r6, r2, r3, lsl #1
 80008e6:	f47f aec5 	bne.w	8000674 <__aeabi_dmul+0x19c>
 80008ea:	ea50 0441 	orrs.w	r4, r0, r1, lsl #1
 80008ee:	f47f af0d 	bne.w	800070c <__aeabi_dmul+0x234>
 80008f2:	ea52 0543 	orrs.w	r5, r2, r3, lsl #1
 80008f6:	f47f aeeb 	bne.w	80006d0 <__aeabi_dmul+0x1f8>
 80008fa:	e712      	b.n	8000722 <__aeabi_dmul+0x24a>

080008fc <__gedf2>:
 80008fc:	f04f 3cff 	mov.w	ip, #4294967295	; 0xffffffff
 8000900:	e006      	b.n	8000910 <__cmpdf2+0x4>
 8000902:	bf00      	nop

08000904 <__ledf2>:
 8000904:	f04f 0c01 	mov.w	ip, #1
 8000908:	e002      	b.n	8000910 <__cmpdf2+0x4>
 800090a:	bf00      	nop

0800090c <__cmpdf2>:
 800090c:	f04f 0c01 	mov.w	ip, #1
 8000910:	f84d cd04 	str.w	ip, [sp, #-4]!
 8000914:	ea4f 0c41 	mov.w	ip, r1, lsl #1
 8000918:	ea7f 5c6c 	mvns.w	ip, ip, asr #21
 800091c:	ea4f 0c43 	mov.w	ip, r3, lsl #1
 8000920:	bf18      	it	ne
 8000922:	ea7f 5c6c 	mvnsne.w	ip, ip, asr #21
 8000926:	d01b      	beq.n	8000960 <__cmpdf2+0x54>
 8000928:	b001      	add	sp, #4
 800092a:	ea50 0c41 	orrs.w	ip, r0, r1, lsl #1
 800092e:	bf0c      	ite	eq
 8000930:	ea52 0c43 	orrseq.w	ip, r2, r3, lsl #1
 8000934:	ea91 0f03 	teqne	r1, r3
 8000938:	bf02      	ittt	eq
 800093a:	ea90 0f02 	teqeq	r0, r2
 800093e:	2000      	moveq	r0, #0
 8000940:	4770      	bxeq	lr
 8000942:	f110 0f00 	cmn.w	r0, #0
 8000946:	ea91 0f03 	teq	r1, r3
 800094a:	bf58      	it	pl
 800094c:	4299      	cmppl	r1, r3
 800094e:	bf08      	it	eq
 8000950:	4290      	cmpeq	r0, r2
 8000952:	bf2c      	ite	cs
 8000954:	17d8      	asrcs	r0, r3, #31
 8000956:	ea6f 70e3 	mvncc.w	r0, r3, asr #31
 800095a:	f040 0001 	orr.w	r0, r0, #1
 800095e:	4770      	bx	lr
 8000960:	ea4f 0c41 	mov.w	ip, r1, lsl #1
 8000964:	ea7f 5c6c 	mvns.w	ip, ip, asr #21
 8000968:	d102      	bne.n	8000970 <__cmpdf2+0x64>
 800096a:	ea50 3c01 	orrs.w	ip, r0, r1, lsl #12
 800096e:	d107      	bne.n	8000980 <__cmpdf2+0x74>
 8000970:	ea4f 0c43 	mov.w	ip, r3, lsl #1
 8000974:	ea7f 5c6c 	mvns.w	ip, ip, asr #21
 8000978:	d1d6      	bne.n	8000928 <__cmpdf2+0x1c>
 800097a:	ea52 3c03 	orrs.w	ip, r2, r3, lsl #12
 800097e:	d0d3      	beq.n	8000928 <__cmpdf2+0x1c>
 8000980:	f85d 0b04 	ldr.w	r0, [sp], #4
 8000984:	4770      	bx	lr
 8000986:	bf00      	nop

08000988 <__aeabi_cdrcmple>:
 8000988:	4684      	mov	ip, r0
 800098a:	4610      	mov	r0, r2
 800098c:	4662      	mov	r2, ip
 800098e:	468c      	mov	ip, r1
 8000990:	4619      	mov	r1, r3
 8000992:	4663      	mov	r3, ip
 8000994:	e000      	b.n	8000998 <__aeabi_cdcmpeq>
 8000996:	bf00      	nop

08000998 <__aeabi_cdcmpeq>:
 8000998:	b501      	push	{r0, lr}
 800099a:	f7ff ffb7 	bl	800090c <__cmpdf2>
 800099e:	2800      	cmp	r0, #0
 80009a0:	bf48      	it	mi
 80009a2:	f110 0f00 	cmnmi.w	r0, #0
 80009a6:	bd01      	pop	{r0, pc}

080009a8 <__aeabi_dcmpeq>:
 80009a8:	f84d ed08 	str.w	lr, [sp, #-8]!
 80009ac:	f7ff fff4 	bl	8000998 <__aeabi_cdcmpeq>
 80009b0:	bf0c      	ite	eq
 80009b2:	2001      	moveq	r0, #1
 80009b4:	2000      	movne	r0, #0
 80009b6:	f85d fb08 	ldr.w	pc, [sp], #8
 80009ba:	bf00      	nop

080009bc <__aeabi_dcmplt>:
 80009bc:	f84d ed08 	str.w	lr, [sp, #-8]!
 80009c0:	f7ff ffea 	bl	8000998 <__aeabi_cdcmpeq>
 80009c4:	bf34      	ite	cc
 80009c6:	2001      	movcc	r0, #1
 80009c8:	2000      	movcs	r0, #0
 80009ca:	f85d fb08 	ldr.w	pc, [sp], #8
 80009ce:	bf00      	nop

080009d0 <__aeabi_dcmple>:
 80009d0:	f84d ed08 	str.w	lr, [sp, #-8]!
 80009d4:	f7ff ffe0 	bl	8000998 <__aeabi_cdcmpeq>
 80009d8:	bf94      	ite	ls
 80009da:	2001      	movls	r0, #1
 80009dc:	2000      	movhi	r0, #0
 80009de:	f85d fb08 	ldr.w	pc, [sp], #8
 80009e2:	bf00      	nop

080009e4 <__aeabi_dcmpge>:
 80009e4:	f84d ed08 	str.w	lr, [sp, #-8]!
 80009e8:	f7ff ffce 	bl	8000988 <__aeabi_cdrcmple>
 80009ec:	bf94      	ite	ls
 80009ee:	2001      	movls	r0, #1
 80009f0:	2000      	movhi	r0, #0
 80009f2:	f85d fb08 	ldr.w	pc, [sp], #8
 80009f6:	bf00      	nop

080009f8 <__aeabi_dcmpgt>:
 80009f8:	f84d ed08 	str.w	lr, [sp, #-8]!
 80009fc:	f7ff ffc4 	bl	8000988 <__aeabi_cdrcmple>
 8000a00:	bf34      	ite	cc
 8000a02:	2001      	movcc	r0, #1
 8000a04:	2000      	movcs	r0, #0
 8000a06:	f85d fb08 	ldr.w	pc, [sp], #8
 8000a0a:	bf00      	nop

08000a0c <__aeabi_dcmpun>:
 8000a0c:	ea4f 0c41 	mov.w	ip, r1, lsl #1
 8000a10:	ea7f 5c6c 	mvns.w	ip, ip, asr #21
 8000a14:	d102      	bne.n	8000a1c <__aeabi_dcmpun+0x10>
 8000a16:	ea50 3c01 	orrs.w	ip, r0, r1, lsl #12
 8000a1a:	d10a      	bne.n	8000a32 <__aeabi_dcmpun+0x26>
 8000a1c:	ea4f 0c43 	mov.w	ip, r3, lsl #1
 8000a20:	ea7f 5c6c 	mvns.w	ip, ip, asr #21
 8000a24:	d102      	bne.n	8000a2c <__aeabi_dcmpun+0x20>
 8000a26:	ea52 3c03 	orrs.w	ip, r2, r3, lsl #12
 8000a2a:	d102      	bne.n	8000a32 <__aeabi_dcmpun+0x26>
 8000a2c:	f04f 0000 	mov.w	r0, #0
 8000a30:	4770      	bx	lr
 8000a32:	f04f 0001 	mov.w	r0, #1
 8000a36:	4770      	bx	lr

08000a38 <__aeabi_d2iz>:
 8000a38:	ea4f 0241 	mov.w	r2, r1, lsl #1
 8000a3c:	f512 1200 	adds.w	r2, r2, #2097152	; 0x200000
 8000a40:	d215      	bcs.n	8000a6e <__aeabi_d2iz+0x36>
 8000a42:	d511      	bpl.n	8000a68 <__aeabi_d2iz+0x30>
 8000a44:	f46f 7378 	mvn.w	r3, #992	; 0x3e0
 8000a48:	ebb3 5262 	subs.w	r2, r3, r2, asr #21
 8000a4c:	d912      	bls.n	8000a74 <__aeabi_d2iz+0x3c>
 8000a4e:	ea4f 23c1 	mov.w	r3, r1, lsl #11
 8000a52:	f043 4300 	orr.w	r3, r3, #2147483648	; 0x80000000
 8000a56:	ea43 5350 	orr.w	r3, r3, r0, lsr #21
 8000a5a:	f011 4f00 	tst.w	r1, #2147483648	; 0x80000000
 8000a5e:	fa23 f002 	lsr.w	r0, r3, r2
 8000a62:	bf18      	it	ne
 8000a64:	4240      	negne	r0, r0
 8000a66:	4770      	bx	lr
 8000a68:	f04f 0000 	mov.w	r0, #0
 8000a6c:	4770      	bx	lr
 8000a6e:	ea50 3001 	orrs.w	r0, r0, r1, lsl #12
 8000a72:	d105      	bne.n	8000a80 <__aeabi_d2iz+0x48>
 8000a74:	f011 4000 	ands.w	r0, r1, #2147483648	; 0x80000000
 8000a78:	bf08      	it	eq
 8000a7a:	f06f 4000 	mvneq.w	r0, #2147483648	; 0x80000000
 8000a7e:	4770      	bx	lr
 8000a80:	f04f 0000 	mov.w	r0, #0
 8000a84:	4770      	bx	lr
 8000a86:	bf00      	nop

08000a88 <__aeabi_d2uiz>:
 8000a88:	004a      	lsls	r2, r1, #1
 8000a8a:	d211      	bcs.n	8000ab0 <__aeabi_d2uiz+0x28>
 8000a8c:	f512 1200 	adds.w	r2, r2, #2097152	; 0x200000
 8000a90:	d211      	bcs.n	8000ab6 <__aeabi_d2uiz+0x2e>
 8000a92:	d50d      	bpl.n	8000ab0 <__aeabi_d2uiz+0x28>
 8000a94:	f46f 7378 	mvn.w	r3, #992	; 0x3e0
 8000a98:	ebb3 5262 	subs.w	r2, r3, r2, asr #21
 8000a9c:	d40e      	bmi.n	8000abc <__aeabi_d2uiz+0x34>
 8000a9e:	ea4f 23c1 	mov.w	r3, r1, lsl #11
 8000aa2:	f043 4300 	orr.w	r3, r3, #2147483648	; 0x80000000
 8000aa6:	ea43 5350 	orr.w	r3, r3, r0, lsr #21
 8000aaa:	fa23 f002 	lsr.w	r0, r3, r2
 8000aae:	4770      	bx	lr
 8000ab0:	f04f 0000 	mov.w	r0, #0
 8000ab4:	4770      	bx	lr
 8000ab6:	ea50 3001 	orrs.w	r0, r0, r1, lsl #12
 8000aba:	d102      	bne.n	8000ac2 <__aeabi_d2uiz+0x3a>
 8000abc:	f04f 30ff 	mov.w	r0, #4294967295	; 0xffffffff
 8000ac0:	4770      	bx	lr
 8000ac2:	f04f 0000 	mov.w	r0, #0
 8000ac6:	4770      	bx	lr

08000ac8 <__aeabi_d2f>:
 8000ac8:	ea4f 0241 	mov.w	r2, r1, lsl #1
 8000acc:	f1b2 43e0 	subs.w	r3, r2, #1879048192	; 0x70000000
 8000ad0:	bf24      	itt	cs
 8000ad2:	f5b3 1c00 	subscs.w	ip, r3, #2097152	; 0x200000
 8000ad6:	f1dc 5cfe 	rsbscs	ip, ip, #532676608	; 0x1fc00000
 8000ada:	d90d      	bls.n	8000af8 <__aeabi_d2f+0x30>
 8000adc:	f001 4c00 	and.w	ip, r1, #2147483648	; 0x80000000
 8000ae0:	ea4f 02c0 	mov.w	r2, r0, lsl #3
 8000ae4:	ea4c 7050 	orr.w	r0, ip, r0, lsr #29
 8000ae8:	f1b2 4f00 	cmp.w	r2, #2147483648	; 0x80000000
 8000aec:	eb40 0083 	adc.w	r0, r0, r3, lsl #2
 8000af0:	bf08      	it	eq
 8000af2:	f020 0001 	biceq.w	r0, r0, #1
 8000af6:	4770      	bx	lr
 8000af8:	f011 4f80 	tst.w	r1, #1073741824	; 0x40000000
 8000afc:	d121      	bne.n	8000b42 <__aeabi_d2f+0x7a>
 8000afe:	f113 7238 	adds.w	r2, r3, #48234496	; 0x2e00000
 8000b02:	bfbc      	itt	lt
 8000b04:	f001 4000 	andlt.w	r0, r1, #2147483648	; 0x80000000
 8000b08:	4770      	bxlt	lr
 8000b0a:	f441 1180 	orr.w	r1, r1, #1048576	; 0x100000
 8000b0e:	ea4f 5252 	mov.w	r2, r2, lsr #21
 8000b12:	f1c2 0218 	rsb	r2, r2, #24
 8000b16:	f1c2 0c20 	rsb	ip, r2, #32
 8000b1a:	fa10 f30c 	lsls.w	r3, r0, ip
 8000b1e:	fa20 f002 	lsr.w	r0, r0, r2
 8000b22:	bf18      	it	ne
 8000b24:	f040 0001 	orrne.w	r0, r0, #1
 8000b28:	ea4f 23c1 	mov.w	r3, r1, lsl #11
 8000b2c:	ea4f 23d3 	mov.w	r3, r3, lsr #11
 8000b30:	fa03 fc0c 	lsl.w	ip, r3, ip
 8000b34:	ea40 000c 	orr.w	r0, r0, ip
 8000b38:	fa23 f302 	lsr.w	r3, r3, r2
 8000b3c:	ea4f 0343 	mov.w	r3, r3, lsl #1
 8000b40:	e7cc      	b.n	8000adc <__aeabi_d2f+0x14>
 8000b42:	ea7f 5362 	mvns.w	r3, r2, asr #21
 8000b46:	d107      	bne.n	8000b58 <__aeabi_d2f+0x90>
 8000b48:	ea50 3301 	orrs.w	r3, r0, r1, lsl #12
 8000b4c:	bf1e      	ittt	ne
 8000b4e:	f04f 40fe 	movne.w	r0, #2130706432	; 0x7f000000
 8000b52:	f440 0040 	orrne.w	r0, r0, #12582912	; 0xc00000
 8000b56:	4770      	bxne	lr
 8000b58:	f001 4000 	and.w	r0, r1, #2147483648	; 0x80000000
 8000b5c:	f040 40fe 	orr.w	r0, r0, #2130706432	; 0x7f000000
 8000b60:	f440 0000 	orr.w	r0, r0, #8388608	; 0x800000
 8000b64:	4770      	bx	lr
 8000b66:	bf00      	nop

08000b68 <__aeabi_frsub>:
 8000b68:	f080 4000 	eor.w	r0, r0, #2147483648	; 0x80000000
 8000b6c:	e002      	b.n	8000b74 <__addsf3>
 8000b6e:	bf00      	nop

08000b70 <__aeabi_fsub>:
 8000b70:	f081 4100 	eor.w	r1, r1, #2147483648	; 0x80000000

08000b74 <__addsf3>:
 8000b74:	0042      	lsls	r2, r0, #1
 8000b76:	bf1f      	itttt	ne
 8000b78:	ea5f 0341 	movsne.w	r3, r1, lsl #1
 8000b7c:	ea92 0f03 	teqne	r2, r3
 8000b80:	ea7f 6c22 	mvnsne.w	ip, r2, asr #24
 8000b84:	ea7f 6c23 	mvnsne.w	ip, r3, asr #24
 8000b88:	d06a      	beq.n	8000c60 <__addsf3+0xec>
 8000b8a:	ea4f 6212 	mov.w	r2, r2, lsr #24
 8000b8e:	ebd2 6313 	rsbs	r3, r2, r3, lsr #24
 8000b92:	bfc1      	itttt	gt
 8000b94:	18d2      	addgt	r2, r2, r3
 8000b96:	4041      	eorgt	r1, r0
 8000b98:	4048      	eorgt	r0, r1
 8000b9a:	4041      	eorgt	r1, r0
 8000b9c:	bfb8      	it	lt
 8000b9e:	425b      	neglt	r3, r3
 8000ba0:	2b19      	cmp	r3, #25
 8000ba2:	bf88      	it	hi
 8000ba4:	4770      	bxhi	lr
 8000ba6:	f010 4f00 	tst.w	r0, #2147483648	; 0x80000000
 8000baa:	f440 0000 	orr.w	r0, r0, #8388608	; 0x800000
 8000bae:	f020 407f 	bic.w	r0, r0, #4278190080	; 0xff000000
 8000bb2:	bf18      	it	ne
 8000bb4:	4240      	negne	r0, r0
 8000bb6:	f011 4f00 	tst.w	r1, #2147483648	; 0x80000000
 8000bba:	f441 0100 	orr.w	r1, r1, #8388608	; 0x800000
 8000bbe:	f021 417f 	bic.w	r1, r1, #4278190080	; 0xff000000
 8000bc2:	bf18      	it	ne
 8000bc4:	4249      	negne	r1, r1
 8000bc6:	ea92 0f03 	teq	r2, r3
 8000bca:	d03f      	beq.n	8000c4c <__addsf3+0xd8>
 8000bcc:	f1a2 0201 	sub.w	r2, r2, #1
 8000bd0:	fa41 fc03 	asr.w	ip, r1, r3
 8000bd4:	eb10 000c 	adds.w	r0, r0, ip
 8000bd8:	f1c3 0320 	rsb	r3, r3, #32
 8000bdc:	fa01 f103 	lsl.w	r1, r1, r3
 8000be0:	f000 4300 	and.w	r3, r0, #2147483648	; 0x80000000
 8000be4:	d502      	bpl.n	8000bec <__addsf3+0x78>
 8000be6:	4249      	negs	r1, r1
 8000be8:	eb60 0040 	sbc.w	r0, r0, r0, lsl #1
 8000bec:	f5b0 0f00 	cmp.w	r0, #8388608	; 0x800000
 8000bf0:	d313      	bcc.n	8000c1a <__addsf3+0xa6>
 8000bf2:	f1b0 7f80 	cmp.w	r0, #16777216	; 0x1000000
 8000bf6:	d306      	bcc.n	8000c06 <__addsf3+0x92>
 8000bf8:	0840      	lsrs	r0, r0, #1
 8000bfa:	ea4f 0131 	mov.w	r1, r1, rrx
 8000bfe:	f102 0201 	add.w	r2, r2, #1
 8000c02:	2afe      	cmp	r2, #254	; 0xfe
 8000c04:	d251      	bcs.n	8000caa <__addsf3+0x136>
 8000c06:	f1b1 4f00 	cmp.w	r1, #2147483648	; 0x80000000
 8000c0a:	eb40 50c2 	adc.w	r0, r0, r2, lsl #23
 8000c0e:	bf08      	it	eq
 8000c10:	f020 0001 	biceq.w	r0, r0, #1
 8000c14:	ea40 0003 	orr.w	r0, r0, r3
 8000c18:	4770      	bx	lr
 8000c1a:	0049      	lsls	r1, r1, #1
 8000c1c:	eb40 0000 	adc.w	r0, r0, r0
 8000c20:	3a01      	subs	r2, #1
 8000c22:	bf28      	it	cs
 8000c24:	f5b0 0f00 	cmpcs.w	r0, #8388608	; 0x800000
 8000c28:	d2ed      	bcs.n	8000c06 <__addsf3+0x92>
 8000c2a:	fab0 fc80 	clz	ip, r0
 8000c2e:	f1ac 0c08 	sub.w	ip, ip, #8
 8000c32:	ebb2 020c 	subs.w	r2, r2, ip
 8000c36:	fa00 f00c 	lsl.w	r0, r0, ip
 8000c3a:	bfaa      	itet	ge
 8000c3c:	eb00 50c2 	addge.w	r0, r0, r2, lsl #23
 8000c40:	4252      	neglt	r2, r2
 8000c42:	4318      	orrge	r0, r3
 8000c44:	bfbc      	itt	lt
 8000c46:	40d0      	lsrlt	r0, r2
 8000c48:	4318      	orrlt	r0, r3
 8000c4a:	4770      	bx	lr
 8000c4c:	f092 0f00 	teq	r2, #0
 8000c50:	f481 0100 	eor.w	r1, r1, #8388608	; 0x800000
 8000c54:	bf06      	itte	eq
 8000c56:	f480 0000 	eoreq.w	r0, r0, #8388608	; 0x800000
 8000c5a:	3201      	addeq	r2, #1
 8000c5c:	3b01      	subne	r3, #1
 8000c5e:	e7b5      	b.n	8000bcc <__addsf3+0x58>
 8000c60:	ea4f 0341 	mov.w	r3, r1, lsl #1
 8000c64:	ea7f 6c22 	mvns.w	ip, r2, asr #24
 8000c68:	bf18      	it	ne
 8000c6a:	ea7f 6c23 	mvnsne.w	ip, r3, asr #24
 8000c6e:	d021      	beq.n	8000cb4 <__addsf3+0x140>
 8000c70:	ea92 0f03 	teq	r2, r3
 8000c74:	d004      	beq.n	8000c80 <__addsf3+0x10c>
 8000c76:	f092 0f00 	teq	r2, #0
 8000c7a:	bf08      	it	eq
 8000c7c:	4608      	moveq	r0, r1
 8000c7e:	4770      	bx	lr
 8000c80:	ea90 0f01 	teq	r0, r1
 8000c84:	bf1c      	itt	ne
 8000c86:	2000      	movne	r0, #0
 8000c88:	4770      	bxne	lr
 8000c8a:	f012 4f7f 	tst.w	r2, #4278190080	; 0xff000000
 8000c8e:	d104      	bne.n	8000c9a <__addsf3+0x126>
 8000c90:	0040      	lsls	r0, r0, #1
 8000c92:	bf28      	it	cs
 8000c94:	f040 4000 	orrcs.w	r0, r0, #2147483648	; 0x80000000
 8000c98:	4770      	bx	lr
 8000c9a:	f112 7200 	adds.w	r2, r2, #33554432	; 0x2000000
 8000c9e:	bf3c      	itt	cc
 8000ca0:	f500 0000 	addcc.w	r0, r0, #8388608	; 0x800000
 8000ca4:	4770      	bxcc	lr
 8000ca6:	f000 4300 	and.w	r3, r0, #2147483648	; 0x80000000
 8000caa:	f043 40fe 	orr.w	r0, r3, #2130706432	; 0x7f000000
 8000cae:	f440 0000 	orr.w	r0, r0, #8388608	; 0x800000
 8000cb2:	4770      	bx	lr
 8000cb4:	ea7f 6222 	mvns.w	r2, r2, asr #24
 8000cb8:	bf16      	itet	ne
 8000cba:	4608      	movne	r0, r1
 8000cbc:	ea7f 6323 	mvnseq.w	r3, r3, asr #24
 8000cc0:	4601      	movne	r1, r0
 8000cc2:	0242      	lsls	r2, r0, #9
 8000cc4:	bf06      	itte	eq
 8000cc6:	ea5f 2341 	movseq.w	r3, r1, lsl #9
 8000cca:	ea90 0f01 	teqeq	r0, r1
 8000cce:	f440 0080 	orrne.w	r0, r0, #4194304	; 0x400000
 8000cd2:	4770      	bx	lr

08000cd4 <__aeabi_ui2f>:
 8000cd4:	f04f 0300 	mov.w	r3, #0
 8000cd8:	e004      	b.n	8000ce4 <__aeabi_i2f+0x8>
 8000cda:	bf00      	nop

08000cdc <__aeabi_i2f>:
 8000cdc:	f010 4300 	ands.w	r3, r0, #2147483648	; 0x80000000
 8000ce0:	bf48      	it	mi
 8000ce2:	4240      	negmi	r0, r0
 8000ce4:	ea5f 0c00 	movs.w	ip, r0
 8000ce8:	bf08      	it	eq
 8000cea:	4770      	bxeq	lr
 8000cec:	f043 4396 	orr.w	r3, r3, #1258291200	; 0x4b000000
 8000cf0:	4601      	mov	r1, r0
 8000cf2:	f04f 0000 	mov.w	r0, #0
 8000cf6:	e01c      	b.n	8000d32 <__aeabi_l2f+0x2a>

08000cf8 <__aeabi_ul2f>:
 8000cf8:	ea50 0201 	orrs.w	r2, r0, r1
 8000cfc:	bf08      	it	eq
 8000cfe:	4770      	bxeq	lr
 8000d00:	f04f 0300 	mov.w	r3, #0
 8000d04:	e00a      	b.n	8000d1c <__aeabi_l2f+0x14>
 8000d06:	bf00      	nop

08000d08 <__aeabi_l2f>:
 8000d08:	ea50 0201 	orrs.w	r2, r0, r1
 8000d0c:	bf08      	it	eq
 8000d0e:	4770      	bxeq	lr
 8000d10:	f011 4300 	ands.w	r3, r1, #2147483648	; 0x80000000
 8000d14:	d502      	bpl.n	8000d1c <__aeabi_l2f+0x14>
 8000d16:	4240      	negs	r0, r0
 8000d18:	eb61 0141 	sbc.w	r1, r1, r1, lsl #1
 8000d1c:	ea5f 0c01 	movs.w	ip, r1
 8000d20:	bf02      	ittt	eq
 8000d22:	4684      	moveq	ip, r0
 8000d24:	4601      	moveq	r1, r0
 8000d26:	2000      	moveq	r0, #0
 8000d28:	f043 43b6 	orr.w	r3, r3, #1526726656	; 0x5b000000
 8000d2c:	bf08      	it	eq
 8000d2e:	f1a3 5380 	subeq.w	r3, r3, #268435456	; 0x10000000
 8000d32:	f5a3 0300 	sub.w	r3, r3, #8388608	; 0x800000
 8000d36:	fabc f28c 	clz	r2, ip
 8000d3a:	3a08      	subs	r2, #8
 8000d3c:	eba3 53c2 	sub.w	r3, r3, r2, lsl #23
 8000d40:	db10      	blt.n	8000d64 <__aeabi_l2f+0x5c>
 8000d42:	fa01 fc02 	lsl.w	ip, r1, r2
 8000d46:	4463      	add	r3, ip
 8000d48:	fa00 fc02 	lsl.w	ip, r0, r2
 8000d4c:	f1c2 0220 	rsb	r2, r2, #32
 8000d50:	f1bc 4f00 	cmp.w	ip, #2147483648	; 0x80000000
 8000d54:	fa20 f202 	lsr.w	r2, r0, r2
 8000d58:	eb43 0002 	adc.w	r0, r3, r2
 8000d5c:	bf08      	it	eq
 8000d5e:	f020 0001 	biceq.w	r0, r0, #1
 8000d62:	4770      	bx	lr
 8000d64:	f102 0220 	add.w	r2, r2, #32
 8000d68:	fa01 fc02 	lsl.w	ip, r1, r2
 8000d6c:	f1c2 0220 	rsb	r2, r2, #32
 8000d70:	ea50 004c 	orrs.w	r0, r0, ip, lsl #1
 8000d74:	fa21 f202 	lsr.w	r2, r1, r2
 8000d78:	eb43 0002 	adc.w	r0, r3, r2
 8000d7c:	bf08      	it	eq
 8000d7e:	ea20 70dc 	biceq.w	r0, r0, ip, lsr #31
 8000d82:	4770      	bx	lr

08000d84 <__aeabi_fmul>:
 8000d84:	f04f 0cff 	mov.w	ip, #255	; 0xff
 8000d88:	ea1c 52d0 	ands.w	r2, ip, r0, lsr #23
 8000d8c:	bf1e      	ittt	ne
 8000d8e:	ea1c 53d1 	andsne.w	r3, ip, r1, lsr #23
 8000d92:	ea92 0f0c 	teqne	r2, ip
 8000d96:	ea93 0f0c 	teqne	r3, ip
 8000d9a:	d06f      	beq.n	8000e7c <__aeabi_fmul+0xf8>
 8000d9c:	441a      	add	r2, r3
 8000d9e:	ea80 0c01 	eor.w	ip, r0, r1
 8000da2:	0240      	lsls	r0, r0, #9
 8000da4:	bf18      	it	ne
 8000da6:	ea5f 2141 	movsne.w	r1, r1, lsl #9
 8000daa:	d01e      	beq.n	8000dea <__aeabi_fmul+0x66>
 8000dac:	f04f 6300 	mov.w	r3, #134217728	; 0x8000000
 8000db0:	ea43 1050 	orr.w	r0, r3, r0, lsr #5
 8000db4:	ea43 1151 	orr.w	r1, r3, r1, lsr #5
 8000db8:	fba0 3101 	umull	r3, r1, r0, r1
 8000dbc:	f00c 4000 	and.w	r0, ip, #2147483648	; 0x80000000
 8000dc0:	f5b1 0f00 	cmp.w	r1, #8388608	; 0x800000
 8000dc4:	bf3e      	ittt	cc
 8000dc6:	0049      	lslcc	r1, r1, #1
 8000dc8:	ea41 71d3 	orrcc.w	r1, r1, r3, lsr #31
 8000dcc:	005b      	lslcc	r3, r3, #1
 8000dce:	ea40 0001 	orr.w	r0, r0, r1
 8000dd2:	f162 027f 	sbc.w	r2, r2, #127	; 0x7f
 8000dd6:	2afd      	cmp	r2, #253	; 0xfd
 8000dd8:	d81d      	bhi.n	8000e16 <__aeabi_fmul+0x92>
 8000dda:	f1b3 4f00 	cmp.w	r3, #2147483648	; 0x80000000
 8000dde:	eb40 50c2 	adc.w	r0, r0, r2, lsl #23
 8000de2:	bf08      	it	eq
 8000de4:	f020 0001 	biceq.w	r0, r0, #1
 8000de8:	4770      	bx	lr
 8000dea:	f090 0f00 	teq	r0, #0
 8000dee:	f00c 4c00 	and.w	ip, ip, #2147483648	; 0x80000000
 8000df2:	bf08      	it	eq
 8000df4:	0249      	lsleq	r1, r1, #9
 8000df6:	ea4c 2050 	orr.w	r0, ip, r0, lsr #9
 8000dfa:	ea40 2051 	orr.w	r0, r0, r1, lsr #9
 8000dfe:	3a7f      	subs	r2, #127	; 0x7f
 8000e00:	bfc2      	ittt	gt
 8000e02:	f1d2 03ff 	rsbsgt	r3, r2, #255	; 0xff
 8000e06:	ea40 50c2 	orrgt.w	r0, r0, r2, lsl #23
 8000e0a:	4770      	bxgt	lr
 8000e0c:	f440 0000 	orr.w	r0, r0, #8388608	; 0x800000
 8000e10:	f04f 0300 	mov.w	r3, #0
 8000e14:	3a01      	subs	r2, #1
 8000e16:	dc5d      	bgt.n	8000ed4 <__aeabi_fmul+0x150>
 8000e18:	f112 0f19 	cmn.w	r2, #25
 8000e1c:	bfdc      	itt	le
 8000e1e:	f000 4000 	andle.w	r0, r0, #2147483648	; 0x80000000
 8000e22:	4770      	bxle	lr
 8000e24:	f1c2 0200 	rsb	r2, r2, #0
 8000e28:	0041      	lsls	r1, r0, #1
 8000e2a:	fa21 f102 	lsr.w	r1, r1, r2
 8000e2e:	f1c2 0220 	rsb	r2, r2, #32
 8000e32:	fa00 fc02 	lsl.w	ip, r0, r2
 8000e36:	ea5f 0031 	movs.w	r0, r1, rrx
 8000e3a:	f140 0000 	adc.w	r0, r0, #0
 8000e3e:	ea53 034c 	orrs.w	r3, r3, ip, lsl #1
 8000e42:	bf08      	it	eq
 8000e44:	ea20 70dc 	biceq.w	r0, r0, ip, lsr #31
 8000e48:	4770      	bx	lr
 8000e4a:	f092 0f00 	teq	r2, #0
 8000e4e:	f000 4c00 	and.w	ip, r0, #2147483648	; 0x80000000
 8000e52:	bf02      	ittt	eq
 8000e54:	0040      	lsleq	r0, r0, #1
 8000e56:	f410 0f00 	tsteq.w	r0, #8388608	; 0x800000
 8000e5a:	3a01      	subeq	r2, #1
 8000e5c:	d0f9      	beq.n	8000e52 <__aeabi_fmul+0xce>
 8000e5e:	ea40 000c 	orr.w	r0, r0, ip
 8000e62:	f093 0f00 	teq	r3, #0
 8000e66:	f001 4c00 	and.w	ip, r1, #2147483648	; 0x80000000
 8000e6a:	bf02      	ittt	eq
 8000e6c:	0049      	lsleq	r1, r1, #1
 8000e6e:	f411 0f00 	tsteq.w	r1, #8388608	; 0x800000
 8000e72:	3b01      	subeq	r3, #1
 8000e74:	d0f9      	beq.n	8000e6a <__aeabi_fmul+0xe6>
 8000e76:	ea41 010c 	orr.w	r1, r1, ip
 8000e7a:	e78f      	b.n	8000d9c <__aeabi_fmul+0x18>
 8000e7c:	ea0c 53d1 	and.w	r3, ip, r1, lsr #23
 8000e80:	ea92 0f0c 	teq	r2, ip
 8000e84:	bf18      	it	ne
 8000e86:	ea93 0f0c 	teqne	r3, ip
 8000e8a:	d00a      	beq.n	8000ea2 <__aeabi_fmul+0x11e>
 8000e8c:	f030 4c00 	bics.w	ip, r0, #2147483648	; 0x80000000
 8000e90:	bf18      	it	ne
 8000e92:	f031 4c00 	bicsne.w	ip, r1, #2147483648	; 0x80000000
 8000e96:	d1d8      	bne.n	8000e4a <__aeabi_fmul+0xc6>
 8000e98:	ea80 0001 	eor.w	r0, r0, r1
 8000e9c:	f000 4000 	and.w	r0, r0, #2147483648	; 0x80000000
 8000ea0:	4770      	bx	lr
 8000ea2:	f090 0f00 	teq	r0, #0
 8000ea6:	bf17      	itett	ne
 8000ea8:	f090 4f00 	teqne	r0, #2147483648	; 0x80000000
 8000eac:	4608      	moveq	r0, r1
 8000eae:	f091 0f00 	teqne	r1, #0
 8000eb2:	f091 4f00 	teqne	r1, #2147483648	; 0x80000000
 8000eb6:	d014      	beq.n	8000ee2 <__aeabi_fmul+0x15e>
 8000eb8:	ea92 0f0c 	teq	r2, ip
 8000ebc:	d101      	bne.n	8000ec2 <__aeabi_fmul+0x13e>
 8000ebe:	0242      	lsls	r2, r0, #9
 8000ec0:	d10f      	bne.n	8000ee2 <__aeabi_fmul+0x15e>
 8000ec2:	ea93 0f0c 	teq	r3, ip
 8000ec6:	d103      	bne.n	8000ed0 <__aeabi_fmul+0x14c>
 8000ec8:	024b      	lsls	r3, r1, #9
 8000eca:	bf18      	it	ne
 8000ecc:	4608      	movne	r0, r1
 8000ece:	d108      	bne.n	8000ee2 <__aeabi_fmul+0x15e>
 8000ed0:	ea80 0001 	eor.w	r0, r0, r1
 8000ed4:	f000 4000 	and.w	r0, r0, #2147483648	; 0x80000000
 8000ed8:	f040 40fe 	orr.w	r0, r0, #2130706432	; 0x7f000000
 8000edc:	f440 0000 	orr.w	r0, r0, #8388608	; 0x800000
 8000ee0:	4770      	bx	lr
 8000ee2:	f040 40fe 	orr.w	r0, r0, #2130706432	; 0x7f000000
 8000ee6:	f440 0040 	orr.w	r0, r0, #12582912	; 0xc00000
 8000eea:	4770      	bx	lr

08000eec <__aeabi_fdiv>:
 8000eec:	f04f 0cff 	mov.w	ip, #255	; 0xff
 8000ef0:	ea1c 52d0 	ands.w	r2, ip, r0, lsr #23
 8000ef4:	bf1e      	ittt	ne
 8000ef6:	ea1c 53d1 	andsne.w	r3, ip, r1, lsr #23
 8000efa:	ea92 0f0c 	teqne	r2, ip
 8000efe:	ea93 0f0c 	teqne	r3, ip
 8000f02:	d069      	beq.n	8000fd8 <__aeabi_fdiv+0xec>
 8000f04:	eba2 0203 	sub.w	r2, r2, r3
 8000f08:	ea80 0c01 	eor.w	ip, r0, r1
 8000f0c:	0249      	lsls	r1, r1, #9
 8000f0e:	ea4f 2040 	mov.w	r0, r0, lsl #9
 8000f12:	d037      	beq.n	8000f84 <__aeabi_fdiv+0x98>
 8000f14:	f04f 5380 	mov.w	r3, #268435456	; 0x10000000
 8000f18:	ea43 1111 	orr.w	r1, r3, r1, lsr #4
 8000f1c:	ea43 1310 	orr.w	r3, r3, r0, lsr #4
 8000f20:	f00c 4000 	and.w	r0, ip, #2147483648	; 0x80000000
 8000f24:	428b      	cmp	r3, r1
 8000f26:	bf38      	it	cc
 8000f28:	005b      	lslcc	r3, r3, #1
 8000f2a:	f142 027d 	adc.w	r2, r2, #125	; 0x7d
 8000f2e:	f44f 0c00 	mov.w	ip, #8388608	; 0x800000
 8000f32:	428b      	cmp	r3, r1
 8000f34:	bf24      	itt	cs
 8000f36:	1a5b      	subcs	r3, r3, r1
 8000f38:	ea40 000c 	orrcs.w	r0, r0, ip
 8000f3c:	ebb3 0f51 	cmp.w	r3, r1, lsr #1
 8000f40:	bf24      	itt	cs
 8000f42:	eba3 0351 	subcs.w	r3, r3, r1, lsr #1
 8000f46:	ea40 005c 	orrcs.w	r0, r0, ip, lsr #1
 8000f4a:	ebb3 0f91 	cmp.w	r3, r1, lsr #2
 8000f4e:	bf24      	itt	cs
 8000f50:	eba3 0391 	subcs.w	r3, r3, r1, lsr #2
 8000f54:	ea40 009c 	orrcs.w	r0, r0, ip, lsr #2
 8000f58:	ebb3 0fd1 	cmp.w	r3, r1, lsr #3
 8000f5c:	bf24      	itt	cs
 8000f5e:	eba3 03d1 	subcs.w	r3, r3, r1, lsr #3
 8000f62:	ea40 00dc 	orrcs.w	r0, r0, ip, lsr #3
 8000f66:	011b      	lsls	r3, r3, #4
 8000f68:	bf18      	it	ne
 8000f6a:	ea5f 1c1c 	movsne.w	ip, ip, lsr #4
 8000f6e:	d1e0      	bne.n	8000f32 <__aeabi_fdiv+0x46>
 8000f70:	2afd      	cmp	r2, #253	; 0xfd
 8000f72:	f63f af50 	bhi.w	8000e16 <__aeabi_fmul+0x92>
 8000f76:	428b      	cmp	r3, r1
 8000f78:	eb40 50c2 	adc.w	r0, r0, r2, lsl #23
 8000f7c:	bf08      	it	eq
 8000f7e:	f020 0001 	biceq.w	r0, r0, #1
 8000f82:	4770      	bx	lr
 8000f84:	f00c 4c00 	and.w	ip, ip, #2147483648	; 0x80000000
 8000f88:	ea4c 2050 	orr.w	r0, ip, r0, lsr #9
 8000f8c:	327f      	adds	r2, #127	; 0x7f
 8000f8e:	bfc2      	ittt	gt
 8000f90:	f1d2 03ff 	rsbsgt	r3, r2, #255	; 0xff
 8000f94:	ea40 50c2 	orrgt.w	r0, r0, r2, lsl #23
 8000f98:	4770      	bxgt	lr
 8000f9a:	f440 0000 	orr.w	r0, r0, #8388608	; 0x800000
 8000f9e:	f04f 0300 	mov.w	r3, #0
 8000fa2:	3a01      	subs	r2, #1
 8000fa4:	e737      	b.n	8000e16 <__aeabi_fmul+0x92>
 8000fa6:	f092 0f00 	teq	r2, #0
 8000faa:	f000 4c00 	and.w	ip, r0, #2147483648	; 0x80000000
 8000fae:	bf02      	ittt	eq
 8000fb0:	0040      	lsleq	r0, r0, #1
 8000fb2:	f410 0f00 	tsteq.w	r0, #8388608	; 0x800000
 8000fb6:	3a01      	subeq	r2, #1
 8000fb8:	d0f9      	beq.n	8000fae <__aeabi_fdiv+0xc2>
 8000fba:	ea40 000c 	orr.w	r0, r0, ip
 8000fbe:	f093 0f00 	teq	r3, #0
 8000fc2:	f001 4c00 	and.w	ip, r1, #2147483648	; 0x80000000
 8000fc6:	bf02      	ittt	eq
 8000fc8:	0049      	lsleq	r1, r1, #1
 8000fca:	f411 0f00 	tsteq.w	r1, #8388608	; 0x800000
 8000fce:	3b01      	subeq	r3, #1
 8000fd0:	d0f9      	beq.n	8000fc6 <__aeabi_fdiv+0xda>
 8000fd2:	ea41 010c 	orr.w	r1, r1, ip
 8000fd6:	e795      	b.n	8000f04 <__aeabi_fdiv+0x18>
 8000fd8:	ea0c 53d1 	and.w	r3, ip, r1, lsr #23
 8000fdc:	ea92 0f0c 	teq	r2, ip
 8000fe0:	d108      	bne.n	8000ff4 <__aeabi_fdiv+0x108>
 8000fe2:	0242      	lsls	r2, r0, #9
 8000fe4:	f47f af7d 	bne.w	8000ee2 <__aeabi_fmul+0x15e>
 8000fe8:	ea93 0f0c 	teq	r3, ip
 8000fec:	f47f af70 	bne.w	8000ed0 <__aeabi_fmul+0x14c>
 8000ff0:	4608      	mov	r0, r1
 8000ff2:	e776      	b.n	8000ee2 <__aeabi_fmul+0x15e>
 8000ff4:	ea93 0f0c 	teq	r3, ip
 8000ff8:	d104      	bne.n	8001004 <__aeabi_fdiv+0x118>
 8000ffa:	024b      	lsls	r3, r1, #9
 8000ffc:	f43f af4c 	beq.w	8000e98 <__aeabi_fmul+0x114>
 8001000:	4608      	mov	r0, r1
 8001002:	e76e      	b.n	8000ee2 <__aeabi_fmul+0x15e>
 8001004:	f030 4c00 	bics.w	ip, r0, #2147483648	; 0x80000000
 8001008:	bf18      	it	ne
 800100a:	f031 4c00 	bicsne.w	ip, r1, #2147483648	; 0x80000000
 800100e:	d1ca      	bne.n	8000fa6 <__aeabi_fdiv+0xba>
 8001010:	f030 4200 	bics.w	r2, r0, #2147483648	; 0x80000000
 8001014:	f47f af5c 	bne.w	8000ed0 <__aeabi_fmul+0x14c>
 8001018:	f031 4300 	bics.w	r3, r1, #2147483648	; 0x80000000
 800101c:	f47f af3c 	bne.w	8000e98 <__aeabi_fmul+0x114>
 8001020:	e75f      	b.n	8000ee2 <__aeabi_fmul+0x15e>
 8001022:	bf00      	nop

08001024 <__gesf2>:
 8001024:	f04f 3cff 	mov.w	ip, #4294967295	; 0xffffffff
 8001028:	e006      	b.n	8001038 <__cmpsf2+0x4>
 800102a:	bf00      	nop

0800102c <__lesf2>:
 800102c:	f04f 0c01 	mov.w	ip, #1
 8001030:	e002      	b.n	8001038 <__cmpsf2+0x4>
 8001032:	bf00      	nop

08001034 <__cmpsf2>:
 8001034:	f04f 0c01 	mov.w	ip, #1
 8001038:	f84d cd04 	str.w	ip, [sp, #-4]!
 800103c:	ea4f 0240 	mov.w	r2, r0, lsl #1
 8001040:	ea4f 0341 	mov.w	r3, r1, lsl #1
 8001044:	ea7f 6c22 	mvns.w	ip, r2, asr #24
 8001048:	bf18      	it	ne
 800104a:	ea7f 6c23 	mvnsne.w	ip, r3, asr #24
 800104e:	d011      	beq.n	8001074 <__cmpsf2+0x40>
 8001050:	b001      	add	sp, #4
 8001052:	ea52 0c53 	orrs.w	ip, r2, r3, lsr #1
 8001056:	bf18      	it	ne
 8001058:	ea90 0f01 	teqne	r0, r1
 800105c:	bf58      	it	pl
 800105e:	ebb2 0003 	subspl.w	r0, r2, r3
 8001062:	bf88      	it	hi
 8001064:	17c8      	asrhi	r0, r1, #31
 8001066:	bf38      	it	cc
 8001068:	ea6f 70e1 	mvncc.w	r0, r1, asr #31
 800106c:	bf18      	it	ne
 800106e:	f040 0001 	orrne.w	r0, r0, #1
 8001072:	4770      	bx	lr
 8001074:	ea7f 6c22 	mvns.w	ip, r2, asr #24
 8001078:	d102      	bne.n	8001080 <__cmpsf2+0x4c>
 800107a:	ea5f 2c40 	movs.w	ip, r0, lsl #9
 800107e:	d105      	bne.n	800108c <__cmpsf2+0x58>
 8001080:	ea7f 6c23 	mvns.w	ip, r3, asr #24
 8001084:	d1e4      	bne.n	8001050 <__cmpsf2+0x1c>
 8001086:	ea5f 2c41 	movs.w	ip, r1, lsl #9
 800108a:	d0e1      	beq.n	8001050 <__cmpsf2+0x1c>
 800108c:	f85d 0b04 	ldr.w	r0, [sp], #4
 8001090:	4770      	bx	lr
 8001092:	bf00      	nop

08001094 <__aeabi_cfrcmple>:
 8001094:	4684      	mov	ip, r0
 8001096:	4608      	mov	r0, r1
 8001098:	4661      	mov	r1, ip
 800109a:	e7ff      	b.n	800109c <__aeabi_cfcmpeq>

0800109c <__aeabi_cfcmpeq>:
 800109c:	b50f      	push	{r0, r1, r2, r3, lr}
 800109e:	f7ff ffc9 	bl	8001034 <__cmpsf2>
 80010a2:	2800      	cmp	r0, #0
 80010a4:	bf48      	it	mi
 80010a6:	f110 0f00 	cmnmi.w	r0, #0
 80010aa:	bd0f      	pop	{r0, r1, r2, r3, pc}

080010ac <__aeabi_fcmpeq>:
 80010ac:	f84d ed08 	str.w	lr, [sp, #-8]!
 80010b0:	f7ff fff4 	bl	800109c <__aeabi_cfcmpeq>
 80010b4:	bf0c      	ite	eq
 80010b6:	2001      	moveq	r0, #1
 80010b8:	2000      	movne	r0, #0
 80010ba:	f85d fb08 	ldr.w	pc, [sp], #8
 80010be:	bf00      	nop

080010c0 <__aeabi_fcmplt>:
 80010c0:	f84d ed08 	str.w	lr, [sp, #-8]!
 80010c4:	f7ff ffea 	bl	800109c <__aeabi_cfcmpeq>
 80010c8:	bf34      	ite	cc
 80010ca:	2001      	movcc	r0, #1
 80010cc:	2000      	movcs	r0, #0
 80010ce:	f85d fb08 	ldr.w	pc, [sp], #8
 80010d2:	bf00      	nop

080010d4 <__aeabi_fcmple>:
 80010d4:	f84d ed08 	str.w	lr, [sp, #-8]!
 80010d8:	f7ff ffe0 	bl	800109c <__aeabi_cfcmpeq>
 80010dc:	bf94      	ite	ls
 80010de:	2001      	movls	r0, #1
 80010e0:	2000      	movhi	r0, #0
 80010e2:	f85d fb08 	ldr.w	pc, [sp], #8
 80010e6:	bf00      	nop

080010e8 <__aeabi_fcmpge>:
 80010e8:	f84d ed08 	str.w	lr, [sp, #-8]!
 80010ec:	f7ff ffd2 	bl	8001094 <__aeabi_cfrcmple>
 80010f0:	bf94      	ite	ls
 80010f2:	2001      	movls	r0, #1
 80010f4:	2000      	movhi	r0, #0
 80010f6:	f85d fb08 	ldr.w	pc, [sp], #8
 80010fa:	bf00      	nop

080010fc <__aeabi_fcmpgt>:
 80010fc:	f84d ed08 	str.w	lr, [sp, #-8]!
 8001100:	f7ff ffc8 	bl	8001094 <__aeabi_cfrcmple>
 8001104:	bf34      	ite	cc
 8001106:	2001      	movcc	r0, #1
 8001108:	2000      	movcs	r0, #0
 800110a:	f85d fb08 	ldr.w	pc, [sp], #8
 800110e:	bf00      	nop

08001110 <__aeabi_d2lz>:
 8001110:	b538      	push	{r3, r4, r5, lr}
 8001112:	460c      	mov	r4, r1
 8001114:	4605      	mov	r5, r0
 8001116:	4621      	mov	r1, r4
 8001118:	4628      	mov	r0, r5
 800111a:	2200      	movs	r2, #0
 800111c:	2300      	movs	r3, #0
 800111e:	f7ff fc4d 	bl	80009bc <__aeabi_dcmplt>
 8001122:	b928      	cbnz	r0, 8001130 <__aeabi_d2lz+0x20>
 8001124:	4628      	mov	r0, r5
 8001126:	4621      	mov	r1, r4
 8001128:	e8bd 4038 	ldmia.w	sp!, {r3, r4, r5, lr}
 800112c:	f000 b80a 	b.w	8001144 <__aeabi_d2ulz>
 8001130:	4628      	mov	r0, r5
 8001132:	f104 4100 	add.w	r1, r4, #2147483648	; 0x80000000
 8001136:	f000 f805 	bl	8001144 <__aeabi_d2ulz>
 800113a:	4240      	negs	r0, r0
 800113c:	eb61 0141 	sbc.w	r1, r1, r1, lsl #1
 8001140:	bd38      	pop	{r3, r4, r5, pc}
 8001142:	bf00      	nop

08001144 <__aeabi_d2ulz>:
 8001144:	b5d0      	push	{r4, r6, r7, lr}
 8001146:	2200      	movs	r2, #0
 8001148:	4b0b      	ldr	r3, [pc, #44]	; (8001178 <__aeabi_d2ulz+0x34>)
 800114a:	4606      	mov	r6, r0
 800114c:	460f      	mov	r7, r1
 800114e:	f7ff f9c3 	bl	80004d8 <__aeabi_dmul>
 8001152:	f7ff fc99 	bl	8000a88 <__aeabi_d2uiz>
 8001156:	4604      	mov	r4, r0
 8001158:	f7ff f944 	bl	80003e4 <__aeabi_ui2d>
 800115c:	2200      	movs	r2, #0
 800115e:	4b07      	ldr	r3, [pc, #28]	; (800117c <__aeabi_d2ulz+0x38>)
 8001160:	f7ff f9ba 	bl	80004d8 <__aeabi_dmul>
 8001164:	4602      	mov	r2, r0
 8001166:	460b      	mov	r3, r1
 8001168:	4630      	mov	r0, r6
 800116a:	4639      	mov	r1, r7
 800116c:	f7fe fffc 	bl	8000168 <__aeabi_dsub>
 8001170:	f7ff fc8a 	bl	8000a88 <__aeabi_d2uiz>
 8001174:	4621      	mov	r1, r4
 8001176:	bdd0      	pop	{r4, r6, r7, pc}
 8001178:	3df00000 	.word	0x3df00000
 800117c:	41f00000 	.word	0x41f00000

08001180 <SystemClock_Config>:
 8001180:	b510      	push	{r4, lr}
 8001182:	b090      	sub	sp, #64	; 0x40
 8001184:	2210      	movs	r2, #16
 8001186:	2100      	movs	r1, #0
 8001188:	a809      	add	r0, sp, #36	; 0x24
 800118a:	f003 fae1 	bl	8004750 <memset>
 800118e:	2214      	movs	r2, #20
 8001190:	2100      	movs	r1, #0
 8001192:	a801      	add	r0, sp, #4
 8001194:	f003 fadc 	bl	8004750 <memset>
 8001198:	2402      	movs	r4, #2
 800119a:	f44f 3380 	mov.w	r3, #65536	; 0x10000
 800119e:	2201      	movs	r2, #1
 80011a0:	2100      	movs	r1, #0
 80011a2:	e9cd 2306 	strd	r2, r3, [sp, #24]
 80011a6:	e9cd 430d 	strd	r4, r3, [sp, #52]	; 0x34
 80011aa:	f44f 13e0 	mov.w	r3, #1835008	; 0x1c0000
 80011ae:	a806      	add	r0, sp, #24
 80011b0:	9108      	str	r1, [sp, #32]
 80011b2:	920a      	str	r2, [sp, #40]	; 0x28
 80011b4:	930f      	str	r3, [sp, #60]	; 0x3c
 80011b6:	f002 fb23 	bl	8003800 <HAL_RCC_OscConfig>
 80011ba:	b108      	cbz	r0, 80011c0 <SystemClock_Config+0x40>
 80011bc:	b672      	cpsid	i
 80011be:	e7fe      	b.n	80011be <SystemClock_Config+0x3e>
 80011c0:	230f      	movs	r3, #15
 80011c2:	e9cd 3401 	strd	r3, r4, [sp, #4]
 80011c6:	f44f 6380 	mov.w	r3, #1024	; 0x400
 80011ca:	9003      	str	r0, [sp, #12]
 80011cc:	e9cd 3004 	strd	r3, r0, [sp, #16]
 80011d0:	4621      	mov	r1, r4
 80011d2:	a801      	add	r0, sp, #4
 80011d4:	f002 fcea 	bl	8003bac <HAL_RCC_ClockConfig>
 80011d8:	b108      	cbz	r0, 80011de <SystemClock_Config+0x5e>
 80011da:	b672      	cpsid	i
 80011dc:	e7fe      	b.n	80011dc <SystemClock_Config+0x5c>
 80011de:	b010      	add	sp, #64	; 0x40
 80011e0:	bd10      	pop	{r4, pc}
	...

080011e4 <inverse_kinematics>:
 80011e4:	e92d 4ff0 	stmdb	sp!, {r4, r5, r6, r7, r8, r9, sl, fp, lr}
 80011e8:	b087      	sub	sp, #28
 80011ea:	4699      	mov	r9, r3
 80011ec:	f89d 3040 	ldrb.w	r3, [sp, #64]	; 0x40
 80011f0:	6846      	ldr	r6, [r0, #4]
 80011f2:	2b6c      	cmp	r3, #108	; 0x6c
 80011f4:	bf14      	ite	ne
 80011f6:	f04f 537e 	movne.w	r3, #1065353216	; 0x3f800000
 80011fa:	4b74      	ldreq	r3, [pc, #464]	; (80013cc <inverse_kinematics+0x1e8>)
 80011fc:	6884      	ldr	r4, [r0, #8]
 80011fe:	9303      	str	r3, [sp, #12]
 8001200:	6803      	ldr	r3, [r0, #0]
 8001202:	9102      	str	r1, [sp, #8]
 8001204:	4630      	mov	r0, r6
 8001206:	4631      	mov	r1, r6
 8001208:	4693      	mov	fp, r2
 800120a:	9300      	str	r3, [sp, #0]
 800120c:	f7ff fdba 	bl	8000d84 <__aeabi_fmul>
 8001210:	4621      	mov	r1, r4
 8001212:	4607      	mov	r7, r0
 8001214:	4620      	mov	r0, r4
 8001216:	f7ff fdb5 	bl	8000d84 <__aeabi_fmul>
 800121a:	9902      	ldr	r1, [sp, #8]
 800121c:	4682      	mov	sl, r0
 800121e:	4608      	mov	r0, r1
 8001220:	f7ff fdb0 	bl	8000d84 <__aeabi_fmul>
 8001224:	4605      	mov	r5, r0
 8001226:	9900      	ldr	r1, [sp, #0]
 8001228:	4608      	mov	r0, r1
 800122a:	f7ff fdab 	bl	8000d84 <__aeabi_fmul>
 800122e:	4639      	mov	r1, r7
 8001230:	f7ff fca0 	bl	8000b74 <__addsf3>
 8001234:	4651      	mov	r1, sl
 8001236:	f7ff fc9d 	bl	8000b74 <__addsf3>
 800123a:	4629      	mov	r1, r5
 800123c:	f7ff fc98 	bl	8000b70 <__aeabi_fsub>
 8001240:	4659      	mov	r1, fp
 8001242:	4680      	mov	r8, r0
 8001244:	4658      	mov	r0, fp
 8001246:	f7ff fd9d 	bl	8000d84 <__aeabi_fmul>
 800124a:	4601      	mov	r1, r0
 800124c:	4640      	mov	r0, r8
 800124e:	f7ff fc8f 	bl	8000b70 <__aeabi_fsub>
 8001252:	4649      	mov	r1, r9
 8001254:	4680      	mov	r8, r0
 8001256:	4648      	mov	r0, r9
 8001258:	f7ff fd94 	bl	8000d84 <__aeabi_fmul>
 800125c:	4601      	mov	r1, r0
 800125e:	4640      	mov	r0, r8
 8001260:	f7ff fc86 	bl	8000b70 <__aeabi_fsub>
 8001264:	4659      	mov	r1, fp
 8001266:	4680      	mov	r8, r0
 8001268:	4658      	mov	r0, fp
 800126a:	f7ff fc83 	bl	8000b74 <__addsf3>
 800126e:	4649      	mov	r1, r9
 8001270:	f7ff fd88 	bl	8000d84 <__aeabi_fmul>
 8001274:	4601      	mov	r1, r0
 8001276:	4640      	mov	r0, r8
 8001278:	f7ff fe38 	bl	8000eec <__aeabi_fdiv>
 800127c:	4651      	mov	r1, sl
 800127e:	4680      	mov	r8, r0
 8001280:	4638      	mov	r0, r7
 8001282:	f7ff fc77 	bl	8000b74 <__addsf3>
 8001286:	4629      	mov	r1, r5
 8001288:	f7ff fc72 	bl	8000b70 <__aeabi_fsub>
 800128c:	f7ff f8cc 	bl	8000428 <__aeabi_f2d>
 8001290:	f006 fb2a 	bl	80078e8 <sqrt>
 8001294:	e9cd 0104 	strd	r0, r1, [sp, #16]
 8001298:	4641      	mov	r1, r8
 800129a:	4640      	mov	r0, r8
 800129c:	f7ff fd72 	bl	8000d84 <__aeabi_fmul>
 80012a0:	4601      	mov	r1, r0
 80012a2:	f04f 507e 	mov.w	r0, #1065353216	; 0x3f800000
 80012a6:	f7ff fc63 	bl	8000b70 <__aeabi_fsub>
 80012aa:	2100      	movs	r1, #0
 80012ac:	4682      	mov	sl, r0
 80012ae:	f7ff ff1b 	bl	80010e8 <__aeabi_fcmpge>
 80012b2:	2800      	cmp	r0, #0
 80012b4:	f000 8086 	beq.w	80013c4 <inverse_kinematics+0x1e0>
 80012b8:	f104 4000 	add.w	r0, r4, #2147483648	; 0x80000000
 80012bc:	f7ff f8b4 	bl	8000428 <__aeabi_f2d>
 80012c0:	4604      	mov	r4, r0
 80012c2:	460d      	mov	r5, r1
 80012c4:	4630      	mov	r0, r6
 80012c6:	f7ff f8af 	bl	8000428 <__aeabi_f2d>
 80012ca:	4622      	mov	r2, r4
 80012cc:	462b      	mov	r3, r5
 80012ce:	f006 fb09 	bl	80078e4 <atan2>
 80012d2:	4606      	mov	r6, r0
 80012d4:	460f      	mov	r7, r1
 80012d6:	e9dd 0104 	ldrd	r0, r1, [sp, #16]
 80012da:	f7ff fbf5 	bl	8000ac8 <__aeabi_d2f>
 80012de:	f7ff f8a3 	bl	8000428 <__aeabi_f2d>
 80012e2:	9b03      	ldr	r3, [sp, #12]
 80012e4:	4604      	mov	r4, r0
 80012e6:	460d      	mov	r5, r1
 80012e8:	f103 4000 	add.w	r0, r3, #2147483648	; 0x80000000
 80012ec:	9902      	ldr	r1, [sp, #8]
 80012ee:	f7ff fd49 	bl	8000d84 <__aeabi_fmul>
 80012f2:	f7ff f899 	bl	8000428 <__aeabi_f2d>
 80012f6:	4602      	mov	r2, r0
 80012f8:	460b      	mov	r3, r1
 80012fa:	4620      	mov	r0, r4
 80012fc:	4629      	mov	r1, r5
 80012fe:	f006 faf1 	bl	80078e4 <atan2>
 8001302:	4602      	mov	r2, r0
 8001304:	460b      	mov	r3, r1
 8001306:	4630      	mov	r0, r6
 8001308:	4639      	mov	r1, r7
 800130a:	f7fe ff2f 	bl	800016c <__adddf3>
 800130e:	f7ff fbdb 	bl	8000ac8 <__aeabi_d2f>
 8001312:	9b11      	ldr	r3, [sp, #68]	; 0x44
 8001314:	6018      	str	r0, [r3, #0]
 8001316:	4650      	mov	r0, sl
 8001318:	f7ff f886 	bl	8000428 <__aeabi_f2d>
 800131c:	f006 fae4 	bl	80078e8 <sqrt>
 8001320:	4606      	mov	r6, r0
 8001322:	4640      	mov	r0, r8
 8001324:	460f      	mov	r7, r1
 8001326:	f7ff f87f 	bl	8000428 <__aeabi_f2d>
 800132a:	4602      	mov	r2, r0
 800132c:	460b      	mov	r3, r1
 800132e:	4630      	mov	r0, r6
 8001330:	4639      	mov	r1, r7
 8001332:	f006 fad7 	bl	80078e4 <atan2>
 8001336:	f7ff fbc7 	bl	8000ac8 <__aeabi_d2f>
 800133a:	9b11      	ldr	r3, [sp, #68]	; 0x44
 800133c:	6098      	str	r0, [r3, #8]
 800133e:	9800      	ldr	r0, [sp, #0]
 8001340:	f7ff f872 	bl	8000428 <__aeabi_f2d>
 8001344:	4622      	mov	r2, r4
 8001346:	462b      	mov	r3, r5
 8001348:	f006 facc 	bl	80078e4 <atan2>
 800134c:	e9cd 0100 	strd	r0, r1, [sp]
 8001350:	4648      	mov	r0, r9
 8001352:	f7ff f869 	bl	8000428 <__aeabi_f2d>
 8001356:	9b11      	ldr	r3, [sp, #68]	; 0x44
 8001358:	4604      	mov	r4, r0
 800135a:	6898      	ldr	r0, [r3, #8]
 800135c:	460d      	mov	r5, r1
 800135e:	f7ff f863 	bl	8000428 <__aeabi_f2d>
 8001362:	4606      	mov	r6, r0
 8001364:	460f      	mov	r7, r1
 8001366:	f006 fa77 	bl	8007858 <sin>
 800136a:	4680      	mov	r8, r0
 800136c:	4689      	mov	r9, r1
 800136e:	4630      	mov	r0, r6
 8001370:	4639      	mov	r1, r7
 8001372:	f006 f9e3 	bl	800773c <cos>
 8001376:	4602      	mov	r2, r0
 8001378:	460b      	mov	r3, r1
 800137a:	4620      	mov	r0, r4
 800137c:	4629      	mov	r1, r5
 800137e:	f7ff f8ab 	bl	80004d8 <__aeabi_dmul>
 8001382:	4606      	mov	r6, r0
 8001384:	4658      	mov	r0, fp
 8001386:	460f      	mov	r7, r1
 8001388:	f7ff f84e 	bl	8000428 <__aeabi_f2d>
 800138c:	4602      	mov	r2, r0
 800138e:	460b      	mov	r3, r1
 8001390:	4630      	mov	r0, r6
 8001392:	4639      	mov	r1, r7
 8001394:	f7fe feea 	bl	800016c <__adddf3>
 8001398:	4606      	mov	r6, r0
 800139a:	460f      	mov	r7, r1
 800139c:	4642      	mov	r2, r8
 800139e:	464b      	mov	r3, r9
 80013a0:	4620      	mov	r0, r4
 80013a2:	4629      	mov	r1, r5
 80013a4:	f7ff f898 	bl	80004d8 <__aeabi_dmul>
 80013a8:	4632      	mov	r2, r6
 80013aa:	463b      	mov	r3, r7
 80013ac:	f006 fa9a 	bl	80078e4 <atan2>
 80013b0:	460b      	mov	r3, r1
 80013b2:	4602      	mov	r2, r0
 80013b4:	e9dd 0100 	ldrd	r0, r1, [sp]
 80013b8:	f7fe fed6 	bl	8000168 <__aeabi_dsub>
 80013bc:	f7ff fb84 	bl	8000ac8 <__aeabi_d2f>
 80013c0:	9b11      	ldr	r3, [sp, #68]	; 0x44
 80013c2:	6058      	str	r0, [r3, #4]
 80013c4:	b007      	add	sp, #28
 80013c6:	e8bd 8ff0 	ldmia.w	sp!, {r4, r5, r6, r7, r8, r9, sl, fp, pc}
 80013ca:	bf00      	nop
 80013cc:	bf800000 	.word	0xbf800000

080013d0 <roto_translation>:
 80013d0:	e92d 4ff0 	stmdb	sp!, {r4, r5, r6, r7, r8, r9, sl, fp, lr}
 80013d4:	4605      	mov	r5, r0
 80013d6:	b08d      	sub	sp, #52	; 0x34
 80013d8:	4608      	mov	r0, r1
 80013da:	469b      	mov	fp, r3
 80013dc:	4614      	mov	r4, r2
 80013de:	f7ff f823 	bl	8000428 <__aeabi_f2d>
 80013e2:	4606      	mov	r6, r0
 80013e4:	460f      	mov	r7, r1
 80013e6:	f006 fa37 	bl	8007858 <sin>
 80013ea:	4680      	mov	r8, r0
 80013ec:	4689      	mov	r9, r1
 80013ee:	4630      	mov	r0, r6
 80013f0:	4639      	mov	r1, r7
 80013f2:	f006 f9a3 	bl	800773c <cos>
 80013f6:	e9cd 0102 	strd	r0, r1, [sp, #8]
 80013fa:	4628      	mov	r0, r5
 80013fc:	f7ff f814 	bl	8000428 <__aeabi_f2d>
 8001400:	4606      	mov	r6, r0
 8001402:	460f      	mov	r7, r1
 8001404:	f006 f99a 	bl	800773c <cos>
 8001408:	e9cd 0104 	strd	r0, r1, [sp, #16]
 800140c:	4630      	mov	r0, r6
 800140e:	4639      	mov	r1, r7
 8001410:	f006 fa22 	bl	8007858 <sin>
 8001414:	f8dd a058 	ldr.w	sl, [sp, #88]	; 0x58
 8001418:	e9cd 0100 	strd	r0, r1, [sp]
 800141c:	f8da 0000 	ldr.w	r0, [sl]
 8001420:	f7ff f802 	bl	8000428 <__aeabi_f2d>
 8001424:	e9dd 2302 	ldrd	r2, r3, [sp, #8]
 8001428:	f7ff f856 	bl	80004d8 <__aeabi_dmul>
 800142c:	e9dd 2304 	ldrd	r2, r3, [sp, #16]
 8001430:	f7ff f852 	bl	80004d8 <__aeabi_dmul>
 8001434:	4606      	mov	r6, r0
 8001436:	f8da 0008 	ldr.w	r0, [sl, #8]
 800143a:	460f      	mov	r7, r1
 800143c:	f7fe fff4 	bl	8000428 <__aeabi_f2d>
 8001440:	4642      	mov	r2, r8
 8001442:	464b      	mov	r3, r9
 8001444:	f7ff f848 	bl	80004d8 <__aeabi_dmul>
 8001448:	4602      	mov	r2, r0
 800144a:	460b      	mov	r3, r1
 800144c:	4630      	mov	r0, r6
 800144e:	4639      	mov	r1, r7
 8001450:	f7fe fe8c 	bl	800016c <__adddf3>
 8001454:	4606      	mov	r6, r0
 8001456:	f8da 0004 	ldr.w	r0, [sl, #4]
 800145a:	460f      	mov	r7, r1
 800145c:	f7fe ffe4 	bl	8000428 <__aeabi_f2d>
 8001460:	e9dd 2302 	ldrd	r2, r3, [sp, #8]
 8001464:	f7ff f838 	bl	80004d8 <__aeabi_dmul>
 8001468:	e9dd 2300 	ldrd	r2, r3, [sp]
 800146c:	f7ff f834 	bl	80004d8 <__aeabi_dmul>
 8001470:	4602      	mov	r2, r0
 8001472:	460b      	mov	r3, r1
 8001474:	4630      	mov	r0, r6
 8001476:	4639      	mov	r1, r7
 8001478:	f7fe fe76 	bl	8000168 <__aeabi_dsub>
 800147c:	4606      	mov	r6, r0
 800147e:	f8db 0000 	ldr.w	r0, [fp]
 8001482:	460f      	mov	r7, r1
 8001484:	f7fe ffd0 	bl	8000428 <__aeabi_f2d>
 8001488:	4602      	mov	r2, r0
 800148a:	460b      	mov	r3, r1
 800148c:	4630      	mov	r0, r6
 800148e:	4639      	mov	r1, r7
 8001490:	f7fe fe6c 	bl	800016c <__adddf3>
 8001494:	f7ff fb18 	bl	8000ac8 <__aeabi_d2f>
 8001498:	9b17      	ldr	r3, [sp, #92]	; 0x5c
 800149a:	6018      	str	r0, [r3, #0]
 800149c:	4620      	mov	r0, r4
 800149e:	f7fe ffc3 	bl	8000428 <__aeabi_f2d>
 80014a2:	4604      	mov	r4, r0
 80014a4:	460d      	mov	r5, r1
 80014a6:	f006 f949 	bl	800773c <cos>
 80014aa:	e9cd 0106 	strd	r0, r1, [sp, #24]
 80014ae:	4620      	mov	r0, r4
 80014b0:	4629      	mov	r1, r5
 80014b2:	f006 f9d1 	bl	8007858 <sin>
 80014b6:	e9dd 2306 	ldrd	r2, r3, [sp, #24]
 80014ba:	4604      	mov	r4, r0
 80014bc:	460d      	mov	r5, r1
 80014be:	e9dd 0104 	ldrd	r0, r1, [sp, #16]
 80014c2:	f7ff f809 	bl	80004d8 <__aeabi_dmul>
 80014c6:	e9dd 2304 	ldrd	r2, r3, [sp, #16]
 80014ca:	e9cd 0108 	strd	r0, r1, [sp, #32]
 80014ce:	4640      	mov	r0, r8
 80014d0:	4649      	mov	r1, r9
 80014d2:	f7ff f801 	bl	80004d8 <__aeabi_dmul>
 80014d6:	4622      	mov	r2, r4
 80014d8:	462b      	mov	r3, r5
 80014da:	f7fe fffd 	bl	80004d8 <__aeabi_dmul>
 80014de:	e9dd 2306 	ldrd	r2, r3, [sp, #24]
 80014e2:	4606      	mov	r6, r0
 80014e4:	460f      	mov	r7, r1
 80014e6:	e9dd 0100 	ldrd	r0, r1, [sp]
 80014ea:	f7fe fff5 	bl	80004d8 <__aeabi_dmul>
 80014ee:	4602      	mov	r2, r0
 80014f0:	460b      	mov	r3, r1
 80014f2:	4630      	mov	r0, r6
 80014f4:	4639      	mov	r1, r7
 80014f6:	f7fe fe39 	bl	800016c <__adddf3>
 80014fa:	4606      	mov	r6, r0
 80014fc:	f8da 0000 	ldr.w	r0, [sl]
 8001500:	460f      	mov	r7, r1
 8001502:	f7fe ff91 	bl	8000428 <__aeabi_f2d>
 8001506:	4602      	mov	r2, r0
 8001508:	460b      	mov	r3, r1
 800150a:	4630      	mov	r0, r6
 800150c:	4639      	mov	r1, r7
 800150e:	f7fe ffe3 	bl	80004d8 <__aeabi_dmul>
 8001512:	e9dd 2300 	ldrd	r2, r3, [sp]
 8001516:	4606      	mov	r6, r0
 8001518:	460f      	mov	r7, r1
 800151a:	4640      	mov	r0, r8
 800151c:	4649      	mov	r1, r9
 800151e:	f7fe ffdb 	bl	80004d8 <__aeabi_dmul>
 8001522:	4622      	mov	r2, r4
 8001524:	462b      	mov	r3, r5
 8001526:	f7fe ffd7 	bl	80004d8 <__aeabi_dmul>
 800152a:	4602      	mov	r2, r0
 800152c:	460b      	mov	r3, r1
 800152e:	e9dd 0108 	ldrd	r0, r1, [sp, #32]
 8001532:	f7fe fe19 	bl	8000168 <__aeabi_dsub>
 8001536:	e9cd 010a 	strd	r0, r1, [sp, #40]	; 0x28
 800153a:	f8da 0004 	ldr.w	r0, [sl, #4]
 800153e:	f7fe ff73 	bl	8000428 <__aeabi_f2d>
 8001542:	4602      	mov	r2, r0
 8001544:	460b      	mov	r3, r1
 8001546:	e9dd 010a 	ldrd	r0, r1, [sp, #40]	; 0x28
 800154a:	f7fe ffc5 	bl	80004d8 <__aeabi_dmul>
 800154e:	4602      	mov	r2, r0
 8001550:	460b      	mov	r3, r1
 8001552:	4630      	mov	r0, r6
 8001554:	4639      	mov	r1, r7
 8001556:	f7fe fe09 	bl	800016c <__adddf3>
 800155a:	4606      	mov	r6, r0
 800155c:	f8da 0008 	ldr.w	r0, [sl, #8]
 8001560:	460f      	mov	r7, r1
 8001562:	f7fe ff61 	bl	8000428 <__aeabi_f2d>
 8001566:	e9dd 2302 	ldrd	r2, r3, [sp, #8]
 800156a:	f7fe ffb5 	bl	80004d8 <__aeabi_dmul>
 800156e:	4622      	mov	r2, r4
 8001570:	462b      	mov	r3, r5
 8001572:	f7fe ffb1 	bl	80004d8 <__aeabi_dmul>
 8001576:	4602      	mov	r2, r0
 8001578:	460b      	mov	r3, r1
 800157a:	4630      	mov	r0, r6
 800157c:	4639      	mov	r1, r7
 800157e:	f7fe fdf3 	bl	8000168 <__aeabi_dsub>
 8001582:	4606      	mov	r6, r0
 8001584:	f8db 0004 	ldr.w	r0, [fp, #4]
 8001588:	460f      	mov	r7, r1
 800158a:	f7fe ff4d 	bl	8000428 <__aeabi_f2d>
 800158e:	4602      	mov	r2, r0
 8001590:	460b      	mov	r3, r1
 8001592:	4630      	mov	r0, r6
 8001594:	4639      	mov	r1, r7
 8001596:	f7fe fde9 	bl	800016c <__adddf3>
 800159a:	f7ff fa95 	bl	8000ac8 <__aeabi_d2f>
 800159e:	9b17      	ldr	r3, [sp, #92]	; 0x5c
 80015a0:	4649      	mov	r1, r9
 80015a2:	6058      	str	r0, [r3, #4]
 80015a4:	e9dd 2306 	ldrd	r2, r3, [sp, #24]
 80015a8:	4640      	mov	r0, r8
 80015aa:	f7fe ff95 	bl	80004d8 <__aeabi_dmul>
 80015ae:	e9dd 2300 	ldrd	r2, r3, [sp]
 80015b2:	f7fe ff91 	bl	80004d8 <__aeabi_dmul>
 80015b6:	4622      	mov	r2, r4
 80015b8:	4606      	mov	r6, r0
 80015ba:	460f      	mov	r7, r1
 80015bc:	e9dd 0104 	ldrd	r0, r1, [sp, #16]
 80015c0:	462b      	mov	r3, r5
 80015c2:	f7fe ff89 	bl	80004d8 <__aeabi_dmul>
 80015c6:	4602      	mov	r2, r0
 80015c8:	460b      	mov	r3, r1
 80015ca:	4630      	mov	r0, r6
 80015cc:	4639      	mov	r1, r7
 80015ce:	f7fe fdcd 	bl	800016c <__adddf3>
 80015d2:	4606      	mov	r6, r0
 80015d4:	f8da 0004 	ldr.w	r0, [sl, #4]
 80015d8:	460f      	mov	r7, r1
 80015da:	f7fe ff25 	bl	8000428 <__aeabi_f2d>
 80015de:	4602      	mov	r2, r0
 80015e0:	460b      	mov	r3, r1
 80015e2:	4630      	mov	r0, r6
 80015e4:	4639      	mov	r1, r7
 80015e6:	f7fe ff77 	bl	80004d8 <__aeabi_dmul>
 80015ea:	4622      	mov	r2, r4
 80015ec:	4606      	mov	r6, r0
 80015ee:	460f      	mov	r7, r1
 80015f0:	e9dd 0100 	ldrd	r0, r1, [sp]
 80015f4:	462b      	mov	r3, r5
 80015f6:	f7fe ff6f 	bl	80004d8 <__aeabi_dmul>
 80015fa:	e9dd 2308 	ldrd	r2, r3, [sp, #32]
 80015fe:	4604      	mov	r4, r0
 8001600:	460d      	mov	r5, r1
 8001602:	4640      	mov	r0, r8
 8001604:	4649      	mov	r1, r9
 8001606:	f7fe ff67 	bl	80004d8 <__aeabi_dmul>
 800160a:	4602      	mov	r2, r0
 800160c:	460b      	mov	r3, r1
 800160e:	4620      	mov	r0, r4
 8001610:	4629      	mov	r1, r5
 8001612:	f7fe fda9 	bl	8000168 <__aeabi_dsub>
 8001616:	4604      	mov	r4, r0
 8001618:	f8da 0000 	ldr.w	r0, [sl]
 800161c:	460d      	mov	r5, r1
 800161e:	f7fe ff03 	bl	8000428 <__aeabi_f2d>
 8001622:	4602      	mov	r2, r0
 8001624:	460b      	mov	r3, r1
 8001626:	4620      	mov	r0, r4
 8001628:	4629      	mov	r1, r5
 800162a:	f7fe ff55 	bl	80004d8 <__aeabi_dmul>
 800162e:	4602      	mov	r2, r0
 8001630:	460b      	mov	r3, r1
 8001632:	4630      	mov	r0, r6
 8001634:	4639      	mov	r1, r7
 8001636:	f7fe fd99 	bl	800016c <__adddf3>
 800163a:	4604      	mov	r4, r0
 800163c:	f8da 0008 	ldr.w	r0, [sl, #8]
 8001640:	460d      	mov	r5, r1
 8001642:	f7fe fef1 	bl	8000428 <__aeabi_f2d>
 8001646:	e9dd 2302 	ldrd	r2, r3, [sp, #8]
 800164a:	f7fe ff45 	bl	80004d8 <__aeabi_dmul>
 800164e:	e9dd 2306 	ldrd	r2, r3, [sp, #24]
 8001652:	f7fe ff41 	bl	80004d8 <__aeabi_dmul>
 8001656:	4602      	mov	r2, r0
 8001658:	460b      	mov	r3, r1
 800165a:	4620      	mov	r0, r4
 800165c:	4629      	mov	r1, r5
 800165e:	f7fe fd85 	bl	800016c <__adddf3>
 8001662:	4604      	mov	r4, r0
 8001664:	f8db 0008 	ldr.w	r0, [fp, #8]
 8001668:	460d      	mov	r5, r1
 800166a:	f7fe fedd 	bl	8000428 <__aeabi_f2d>
 800166e:	4602      	mov	r2, r0
 8001670:	460b      	mov	r3, r1
 8001672:	4620      	mov	r0, r4
 8001674:	4629      	mov	r1, r5
 8001676:	f7fe fd79 	bl	800016c <__adddf3>
 800167a:	f7ff fa25 	bl	8000ac8 <__aeabi_d2f>
 800167e:	9b17      	ldr	r3, [sp, #92]	; 0x5c
 8001680:	6098      	str	r0, [r3, #8]
 8001682:	b00d      	add	sp, #52	; 0x34
 8001684:	e8bd 8ff0 	ldmia.w	sp!, {r4, r5, r6, r7, r8, r9, sl, fp, pc}

08001688 <subtract>:
 8001688:	b570      	push	{r4, r5, r6, lr}
 800168a:	4605      	mov	r5, r0
 800168c:	460e      	mov	r6, r1
 800168e:	6800      	ldr	r0, [r0, #0]
 8001690:	6809      	ldr	r1, [r1, #0]
 8001692:	4614      	mov	r4, r2
 8001694:	f7ff fa6c 	bl	8000b70 <__aeabi_fsub>
 8001698:	6020      	str	r0, [r4, #0]
 800169a:	6871      	ldr	r1, [r6, #4]
 800169c:	6868      	ldr	r0, [r5, #4]
 800169e:	f7ff fa67 	bl	8000b70 <__aeabi_fsub>
 80016a2:	6060      	str	r0, [r4, #4]
 80016a4:	68b1      	ldr	r1, [r6, #8]
 80016a6:	68a8      	ldr	r0, [r5, #8]
 80016a8:	f7ff fa62 	bl	8000b70 <__aeabi_fsub>
 80016ac:	60a0      	str	r0, [r4, #8]
 80016ae:	bd70      	pop	{r4, r5, r6, pc}

080016b0 <MPU6050_Init>:
 80016b0:	e92d 41f0 	stmdb	sp!, {r4, r5, r6, r7, r8, lr}
 80016b4:	2401      	movs	r4, #1
 80016b6:	2664      	movs	r6, #100	; 0x64
 80016b8:	b086      	sub	sp, #24
 80016ba:	f10d 0316 	add.w	r3, sp, #22
 80016be:	9300      	str	r3, [sp, #0]
 80016c0:	2275      	movs	r2, #117	; 0x75
 80016c2:	4623      	mov	r3, r4
 80016c4:	21d0      	movs	r1, #208	; 0xd0
 80016c6:	e9cd 4601 	strd	r4, r6, [sp, #4]
 80016ca:	4605      	mov	r5, r0
 80016cc:	f001 ff5a 	bl	8003584 <HAL_I2C_Mem_Read>
 80016d0:	f89d 3016 	ldrb.w	r3, [sp, #22]
 80016d4:	2b68      	cmp	r3, #104	; 0x68
 80016d6:	d137      	bne.n	8001748 <MPU6050_Init+0x98>
 80016d8:	2700      	movs	r7, #0
 80016da:	f10d 0817 	add.w	r8, sp, #23
 80016de:	4623      	mov	r3, r4
 80016e0:	226b      	movs	r2, #107	; 0x6b
 80016e2:	21d0      	movs	r1, #208	; 0xd0
 80016e4:	4628      	mov	r0, r5
 80016e6:	e9cd 4601 	strd	r4, r6, [sp, #4]
 80016ea:	f8cd 8000 	str.w	r8, [sp]
 80016ee:	f88d 7017 	strb.w	r7, [sp, #23]
 80016f2:	f001 feb7 	bl	8003464 <HAL_I2C_Mem_Write>
 80016f6:	2307      	movs	r3, #7
 80016f8:	2219      	movs	r2, #25
 80016fa:	21d0      	movs	r1, #208	; 0xd0
 80016fc:	f88d 3017 	strb.w	r3, [sp, #23]
 8001700:	4628      	mov	r0, r5
 8001702:	4623      	mov	r3, r4
 8001704:	e9cd 4601 	strd	r4, r6, [sp, #4]
 8001708:	f8cd 8000 	str.w	r8, [sp]
 800170c:	f001 feaa 	bl	8003464 <HAL_I2C_Mem_Write>
 8001710:	4623      	mov	r3, r4
 8001712:	221c      	movs	r2, #28
 8001714:	21d0      	movs	r1, #208	; 0xd0
 8001716:	4628      	mov	r0, r5
 8001718:	e9cd 4601 	strd	r4, r6, [sp, #4]
 800171c:	f8cd 8000 	str.w	r8, [sp]
 8001720:	f88d 7017 	strb.w	r7, [sp, #23]
 8001724:	f001 fe9e 	bl	8003464 <HAL_I2C_Mem_Write>
 8001728:	4623      	mov	r3, r4
 800172a:	221b      	movs	r2, #27
 800172c:	21d0      	movs	r1, #208	; 0xd0
 800172e:	4628      	mov	r0, r5
 8001730:	e9cd 4601 	strd	r4, r6, [sp, #4]
 8001734:	f8cd 8000 	str.w	r8, [sp]
 8001738:	f88d 7017 	strb.w	r7, [sp, #23]
 800173c:	f001 fe92 	bl	8003464 <HAL_I2C_Mem_Write>
 8001740:	4638      	mov	r0, r7
 8001742:	b006      	add	sp, #24
 8001744:	e8bd 81f0 	ldmia.w	sp!, {r4, r5, r6, r7, r8, pc}
 8001748:	4620      	mov	r0, r4
 800174a:	e7fa      	b.n	8001742 <MPU6050_Init+0x92>

0800174c <Kalman_getAngle>:
 800174c:	e92d 47f0 	stmdb	sp!, {r4, r5, r6, r7, r8, r9, sl, lr}
 8001750:	4682      	mov	sl, r0
 8001752:	b090      	sub	sp, #64	; 0x40
 8001754:	e9cd 230c 	strd	r2, r3, [sp, #48]	; 0x30
 8001758:	e9d0 3408 	ldrd	r3, r4, [r0, #32]
 800175c:	e9dd 0118 	ldrd	r0, r1, [sp, #96]	; 0x60
 8001760:	e9cd 3404 	strd	r3, r4, [sp, #16]
 8001764:	e9dd 671a 	ldrd	r6, r7, [sp, #104]	; 0x68
 8001768:	461a      	mov	r2, r3
 800176a:	4623      	mov	r3, r4
 800176c:	f7fe fcfc 	bl	8000168 <__aeabi_dsub>
 8001770:	4632      	mov	r2, r6
 8001772:	463b      	mov	r3, r7
 8001774:	f7fe feb0 	bl	80004d8 <__aeabi_dmul>
 8001778:	e9da 2306 	ldrd	r2, r3, [sl, #24]
 800177c:	f7fe fcf6 	bl	800016c <__adddf3>
 8001780:	e9da 3410 	ldrd	r3, r4, [sl, #64]	; 0x40
 8001784:	e9cd 3406 	strd	r3, r4, [sp, #24]
 8001788:	4632      	mov	r2, r6
 800178a:	463b      	mov	r3, r7
 800178c:	e9cd 010a 	strd	r0, r1, [sp, #40]	; 0x28
 8001790:	e9dd 0106 	ldrd	r0, r1, [sp, #24]
 8001794:	f7fe fea0 	bl	80004d8 <__aeabi_dmul>
 8001798:	e9da 890c 	ldrd	r8, r9, [sl, #48]	; 0x30
 800179c:	e9da 230e 	ldrd	r2, r3, [sl, #56]	; 0x38
 80017a0:	e9cd 2308 	strd	r2, r3, [sp, #32]
 80017a4:	4642      	mov	r2, r8
 80017a6:	464b      	mov	r3, r9
 80017a8:	4604      	mov	r4, r0
 80017aa:	460d      	mov	r5, r1
 80017ac:	f7fe fcdc 	bl	8000168 <__aeabi_dsub>
 80017b0:	e9dd 2308 	ldrd	r2, r3, [sp, #32]
 80017b4:	f7fe fcd8 	bl	8000168 <__aeabi_dsub>
 80017b8:	e9da 2300 	ldrd	r2, r3, [sl]
 80017bc:	f7fe fcd6 	bl	800016c <__adddf3>
 80017c0:	4632      	mov	r2, r6
 80017c2:	463b      	mov	r3, r7
 80017c4:	f7fe fe88 	bl	80004d8 <__aeabi_dmul>
 80017c8:	e9da 230a 	ldrd	r2, r3, [sl, #40]	; 0x28
 80017cc:	f7fe fcce 	bl	800016c <__adddf3>
 80017d0:	4622      	mov	r2, r4
 80017d2:	e9cd 0100 	strd	r0, r1, [sp]
 80017d6:	462b      	mov	r3, r5
 80017d8:	4640      	mov	r0, r8
 80017da:	4649      	mov	r1, r9
 80017dc:	f7fe fcc4 	bl	8000168 <__aeabi_dsub>
 80017e0:	4622      	mov	r2, r4
 80017e2:	462b      	mov	r3, r5
 80017e4:	e9cd 0102 	strd	r0, r1, [sp, #8]
 80017e8:	e9dd 0108 	ldrd	r0, r1, [sp, #32]
 80017ec:	f7fe fcbc 	bl	8000168 <__aeabi_dsub>
 80017f0:	e9da 2302 	ldrd	r2, r3, [sl, #8]
 80017f4:	e9cd 0108 	strd	r0, r1, [sp, #32]
 80017f8:	4630      	mov	r0, r6
 80017fa:	4639      	mov	r1, r7
 80017fc:	f7fe fe6c 	bl	80004d8 <__aeabi_dmul>
 8001800:	e9dd 2306 	ldrd	r2, r3, [sp, #24]
 8001804:	f7fe fcb2 	bl	800016c <__adddf3>
 8001808:	e9da 2304 	ldrd	r2, r3, [sl, #16]
 800180c:	e9cd 010e 	strd	r0, r1, [sp, #56]	; 0x38
 8001810:	e9dd 0100 	ldrd	r0, r1, [sp]
 8001814:	f7fe fcaa 	bl	800016c <__adddf3>
 8001818:	4606      	mov	r6, r0
 800181a:	460f      	mov	r7, r1
 800181c:	4602      	mov	r2, r0
 800181e:	460b      	mov	r3, r1
 8001820:	e9dd 0100 	ldrd	r0, r1, [sp]
 8001824:	f7fe ff82 	bl	800072c <__aeabi_ddiv>
 8001828:	4632      	mov	r2, r6
 800182a:	4604      	mov	r4, r0
 800182c:	460d      	mov	r5, r1
 800182e:	e9dd 0108 	ldrd	r0, r1, [sp, #32]
 8001832:	463b      	mov	r3, r7
 8001834:	f7fe ff7a 	bl	800072c <__aeabi_ddiv>
 8001838:	e9dd 230a 	ldrd	r2, r3, [sp, #40]	; 0x28
 800183c:	4680      	mov	r8, r0
 800183e:	4689      	mov	r9, r1
 8001840:	e9dd 010c 	ldrd	r0, r1, [sp, #48]	; 0x30
 8001844:	f7fe fc90 	bl	8000168 <__aeabi_dsub>
 8001848:	4606      	mov	r6, r0
 800184a:	460f      	mov	r7, r1
 800184c:	4602      	mov	r2, r0
 800184e:	460b      	mov	r3, r1
 8001850:	4620      	mov	r0, r4
 8001852:	4629      	mov	r1, r5
 8001854:	f7fe fe40 	bl	80004d8 <__aeabi_dmul>
 8001858:	e9dd 230a 	ldrd	r2, r3, [sp, #40]	; 0x28
 800185c:	f7fe fc86 	bl	800016c <__adddf3>
 8001860:	4602      	mov	r2, r0
 8001862:	460b      	mov	r3, r1
 8001864:	e9cd 0106 	strd	r0, r1, [sp, #24]
 8001868:	e9ca 2306 	strd	r2, r3, [sl, #24]
 800186c:	4640      	mov	r0, r8
 800186e:	4632      	mov	r2, r6
 8001870:	463b      	mov	r3, r7
 8001872:	4649      	mov	r1, r9
 8001874:	f7fe fe30 	bl	80004d8 <__aeabi_dmul>
 8001878:	e9dd 2304 	ldrd	r2, r3, [sp, #16]
 800187c:	f7fe fc76 	bl	800016c <__adddf3>
 8001880:	4622      	mov	r2, r4
 8001882:	462b      	mov	r3, r5
 8001884:	e9ca 0108 	strd	r0, r1, [sl, #32]
 8001888:	e9dd 0100 	ldrd	r0, r1, [sp]
 800188c:	f7fe fe24 	bl	80004d8 <__aeabi_dmul>
 8001890:	4602      	mov	r2, r0
 8001892:	460b      	mov	r3, r1
 8001894:	e9dd 0100 	ldrd	r0, r1, [sp]
 8001898:	f7fe fc66 	bl	8000168 <__aeabi_dsub>
 800189c:	4622      	mov	r2, r4
 800189e:	462b      	mov	r3, r5
 80018a0:	e9ca 010a 	strd	r0, r1, [sl, #40]	; 0x28
 80018a4:	e9dd 0102 	ldrd	r0, r1, [sp, #8]
 80018a8:	f7fe fe16 	bl	80004d8 <__aeabi_dmul>
 80018ac:	4602      	mov	r2, r0
 80018ae:	460b      	mov	r3, r1
 80018b0:	e9dd 0102 	ldrd	r0, r1, [sp, #8]
 80018b4:	f7fe fc58 	bl	8000168 <__aeabi_dsub>
 80018b8:	4642      	mov	r2, r8
 80018ba:	464b      	mov	r3, r9
 80018bc:	e9ca 010c 	strd	r0, r1, [sl, #48]	; 0x30
 80018c0:	e9dd 0100 	ldrd	r0, r1, [sp]
 80018c4:	f7fe fe08 	bl	80004d8 <__aeabi_dmul>
 80018c8:	4602      	mov	r2, r0
 80018ca:	460b      	mov	r3, r1
 80018cc:	e9dd 0108 	ldrd	r0, r1, [sp, #32]
 80018d0:	f7fe fc4a 	bl	8000168 <__aeabi_dsub>
 80018d4:	4642      	mov	r2, r8
 80018d6:	464b      	mov	r3, r9
 80018d8:	e9ca 010e 	strd	r0, r1, [sl, #56]	; 0x38
 80018dc:	e9dd 0102 	ldrd	r0, r1, [sp, #8]
 80018e0:	f7fe fdfa 	bl	80004d8 <__aeabi_dmul>
 80018e4:	4602      	mov	r2, r0
 80018e6:	460b      	mov	r3, r1
 80018e8:	e9dd 010e 	ldrd	r0, r1, [sp, #56]	; 0x38
 80018ec:	f7fe fc3c 	bl	8000168 <__aeabi_dsub>
 80018f0:	e9ca 0110 	strd	r0, r1, [sl, #64]	; 0x40
 80018f4:	e9dd 0106 	ldrd	r0, r1, [sp, #24]
 80018f8:	b010      	add	sp, #64	; 0x40
 80018fa:	e8bd 87f0 	ldmia.w	sp!, {r4, r5, r6, r7, r8, r9, sl, pc}
	...

08001900 <MPU6050_Read_All>:
 8001900:	230e      	movs	r3, #14
 8001902:	2264      	movs	r2, #100	; 0x64
 8001904:	e92d 4ff0 	stmdb	sp!, {r4, r5, r6, r7, r8, r9, sl, fp, lr}
 8001908:	460c      	mov	r4, r1
 800190a:	b089      	sub	sp, #36	; 0x24
 800190c:	e9cd 3201 	strd	r3, r2, [sp, #4]
 8001910:	ab04      	add	r3, sp, #16
 8001912:	223b      	movs	r2, #59	; 0x3b
 8001914:	21d0      	movs	r1, #208	; 0xd0
 8001916:	9300      	str	r3, [sp, #0]
 8001918:	2301      	movs	r3, #1
 800191a:	f001 fe33 	bl	8003584 <HAL_I2C_Mem_Read>
 800191e:	f89d 3010 	ldrb.w	r3, [sp, #16]
 8001922:	f89d 0011 	ldrb.w	r0, [sp, #17]
 8001926:	f89d 9013 	ldrb.w	r9, [sp, #19]
 800192a:	ea40 2003 	orr.w	r0, r0, r3, lsl #8
 800192e:	f89d 3012 	ldrb.w	r3, [sp, #18]
 8001932:	f89d 8015 	ldrb.w	r8, [sp, #21]
 8001936:	ea49 2903 	orr.w	r9, r9, r3, lsl #8
 800193a:	f89d 3014 	ldrb.w	r3, [sp, #20]
 800193e:	f89d a017 	ldrb.w	sl, [sp, #23]
 8001942:	ea48 2803 	orr.w	r8, r8, r3, lsl #8
 8001946:	f89d 3016 	ldrb.w	r3, [sp, #22]
 800194a:	f89d 7019 	ldrb.w	r7, [sp, #25]
 800194e:	ea4a 2a03 	orr.w	sl, sl, r3, lsl #8
 8001952:	f89d 3018 	ldrb.w	r3, [sp, #24]
 8001956:	f89d 601b 	ldrb.w	r6, [sp, #27]
 800195a:	ea47 2703 	orr.w	r7, r7, r3, lsl #8
 800195e:	f89d 301a 	ldrb.w	r3, [sp, #26]
 8001962:	f89d 501d 	ldrb.w	r5, [sp, #29]
 8001966:	ea46 2603 	orr.w	r6, r6, r3, lsl #8
 800196a:	f89d 301c 	ldrb.w	r3, [sp, #28]
 800196e:	b23f      	sxth	r7, r7
 8001970:	ea45 2503 	orr.w	r5, r5, r3, lsl #8
 8001974:	b236      	sxth	r6, r6
 8001976:	b22d      	sxth	r5, r5
 8001978:	b200      	sxth	r0, r0
 800197a:	fa0f f989 	sxth.w	r9, r9
 800197e:	fa0f f888 	sxth.w	r8, r8
 8001982:	8427      	strh	r7, [r4, #32]
 8001984:	8466      	strh	r6, [r4, #34]	; 0x22
 8001986:	84a5      	strh	r5, [r4, #36]	; 0x24
 8001988:	8020      	strh	r0, [r4, #0]
 800198a:	f8a4 9002 	strh.w	r9, [r4, #2]
 800198e:	f8a4 8004 	strh.w	r8, [r4, #4]
 8001992:	f7fe fd37 	bl	8000404 <__aeabi_i2d>
 8001996:	2200      	movs	r2, #0
 8001998:	4b73      	ldr	r3, [pc, #460]	; (8001b68 <MPU6050_Read_All+0x268>)
 800199a:	f7fe fd9d 	bl	80004d8 <__aeabi_dmul>
 800199e:	e9c4 0102 	strd	r0, r1, [r4, #8]
 80019a2:	4648      	mov	r0, r9
 80019a4:	f7fe fd2e 	bl	8000404 <__aeabi_i2d>
 80019a8:	2200      	movs	r2, #0
 80019aa:	4b6f      	ldr	r3, [pc, #444]	; (8001b68 <MPU6050_Read_All+0x268>)
 80019ac:	f7fe fd94 	bl	80004d8 <__aeabi_dmul>
 80019b0:	e9c4 0104 	strd	r0, r1, [r4, #16]
 80019b4:	4640      	mov	r0, r8
 80019b6:	f7fe fd25 	bl	8000404 <__aeabi_i2d>
 80019ba:	a365      	add	r3, pc, #404	; (adr r3, 8001b50 <MPU6050_Read_All+0x250>)
 80019bc:	e9d3 2300 	ldrd	r2, r3, [r3]
 80019c0:	f7fe feb4 	bl	800072c <__aeabi_ddiv>
 80019c4:	fa0f fa8a 	sxth.w	sl, sl
 80019c8:	e9c4 0106 	strd	r0, r1, [r4, #24]
 80019cc:	4650      	mov	r0, sl
 80019ce:	f7ff f985 	bl	8000cdc <__aeabi_i2f>
 80019d2:	4966      	ldr	r1, [pc, #408]	; (8001b6c <MPU6050_Read_All+0x26c>)
 80019d4:	f7ff fa8a 	bl	8000eec <__aeabi_fdiv>
 80019d8:	4965      	ldr	r1, [pc, #404]	; (8001b70 <MPU6050_Read_All+0x270>)
 80019da:	f7ff f8cb 	bl	8000b74 <__addsf3>
 80019de:	6420      	str	r0, [r4, #64]	; 0x40
 80019e0:	4638      	mov	r0, r7
 80019e2:	f7fe fd0f 	bl	8000404 <__aeabi_i2d>
 80019e6:	a35c      	add	r3, pc, #368	; (adr r3, 8001b58 <MPU6050_Read_All+0x258>)
 80019e8:	e9d3 2300 	ldrd	r2, r3, [r3]
 80019ec:	f7fe fe9e 	bl	800072c <__aeabi_ddiv>
 80019f0:	e9c4 010a 	strd	r0, r1, [r4, #40]	; 0x28
 80019f4:	4630      	mov	r0, r6
 80019f6:	f7fe fd05 	bl	8000404 <__aeabi_i2d>
 80019fa:	a357      	add	r3, pc, #348	; (adr r3, 8001b58 <MPU6050_Read_All+0x258>)
 80019fc:	e9d3 2300 	ldrd	r2, r3, [r3]
 8001a00:	f7fe fe94 	bl	800072c <__aeabi_ddiv>
 8001a04:	e9c4 010c 	strd	r0, r1, [r4, #48]	; 0x30
 8001a08:	4628      	mov	r0, r5
 8001a0a:	f7fe fcfb 	bl	8000404 <__aeabi_i2d>
 8001a0e:	a352      	add	r3, pc, #328	; (adr r3, 8001b58 <MPU6050_Read_All+0x258>)
 8001a10:	e9d3 2300 	ldrd	r2, r3, [r3]
 8001a14:	f7fe fe8a 	bl	800072c <__aeabi_ddiv>
 8001a18:	e9c4 010e 	strd	r0, r1, [r4, #56]	; 0x38
 8001a1c:	f001 f856 	bl	8002acc <HAL_GetTick>
 8001a20:	4d54      	ldr	r5, [pc, #336]	; (8001b74 <MPU6050_Read_All+0x274>)
 8001a22:	682b      	ldr	r3, [r5, #0]
 8001a24:	1ac0      	subs	r0, r0, r3
 8001a26:	f7fe fcdd 	bl	80003e4 <__aeabi_ui2d>
 8001a2a:	2200      	movs	r2, #0
 8001a2c:	4b52      	ldr	r3, [pc, #328]	; (8001b78 <MPU6050_Read_All+0x278>)
 8001a2e:	f7fe fe7d 	bl	800072c <__aeabi_ddiv>
 8001a32:	468b      	mov	fp, r1
 8001a34:	4682      	mov	sl, r0
 8001a36:	f001 f849 	bl	8002acc <HAL_GetTick>
 8001a3a:	f9b4 3004 	ldrsh.w	r3, [r4, #4]
 8001a3e:	6028      	str	r0, [r5, #0]
 8001a40:	435b      	muls	r3, r3
 8001a42:	f9b4 0000 	ldrsh.w	r0, [r4]
 8001a46:	fb00 3000 	mla	r0, r0, r0, r3
 8001a4a:	f7fe fcdb 	bl	8000404 <__aeabi_i2d>
 8001a4e:	f005 ff4b 	bl	80078e8 <sqrt>
 8001a52:	2200      	movs	r2, #0
 8001a54:	2300      	movs	r3, #0
 8001a56:	4606      	mov	r6, r0
 8001a58:	460f      	mov	r7, r1
 8001a5a:	f7fe ffa5 	bl	80009a8 <__aeabi_dcmpeq>
 8001a5e:	2800      	cmp	r0, #0
 8001a60:	d163      	bne.n	8001b2a <MPU6050_Read_All+0x22a>
 8001a62:	f9b4 0002 	ldrsh.w	r0, [r4, #2]
 8001a66:	f7fe fccd 	bl	8000404 <__aeabi_i2d>
 8001a6a:	4632      	mov	r2, r6
 8001a6c:	463b      	mov	r3, r7
 8001a6e:	f7fe fe5d 	bl	800072c <__aeabi_ddiv>
 8001a72:	f005 fcd9 	bl	8007428 <atan>
 8001a76:	a33a      	add	r3, pc, #232	; (adr r3, 8001b60 <MPU6050_Read_All+0x260>)
 8001a78:	e9d3 2300 	ldrd	r2, r3, [r3]
 8001a7c:	f7fe fd2c 	bl	80004d8 <__aeabi_dmul>
 8001a80:	4680      	mov	r8, r0
 8001a82:	4689      	mov	r9, r1
 8001a84:	f9b4 0004 	ldrsh.w	r0, [r4, #4]
 8001a88:	f7fe fcbc 	bl	8000404 <__aeabi_i2d>
 8001a8c:	4606      	mov	r6, r0
 8001a8e:	460f      	mov	r7, r1
 8001a90:	f9b4 0000 	ldrsh.w	r0, [r4]
 8001a94:	4240      	negs	r0, r0
 8001a96:	f7fe fcb5 	bl	8000404 <__aeabi_i2d>
 8001a9a:	4632      	mov	r2, r6
 8001a9c:	463b      	mov	r3, r7
 8001a9e:	f005 ff21 	bl	80078e4 <atan2>
 8001aa2:	a32f      	add	r3, pc, #188	; (adr r3, 8001b60 <MPU6050_Read_All+0x260>)
 8001aa4:	e9d3 2300 	ldrd	r2, r3, [r3]
 8001aa8:	f7fe fd16 	bl	80004d8 <__aeabi_dmul>
 8001aac:	2200      	movs	r2, #0
 8001aae:	4b33      	ldr	r3, [pc, #204]	; (8001b7c <MPU6050_Read_All+0x27c>)
 8001ab0:	4606      	mov	r6, r0
 8001ab2:	460f      	mov	r7, r1
 8001ab4:	f7fe ff82 	bl	80009bc <__aeabi_dcmplt>
 8001ab8:	b130      	cbz	r0, 8001ac8 <MPU6050_Read_All+0x1c8>
 8001aba:	e9d4 0114 	ldrd	r0, r1, [r4, #80]	; 0x50
 8001abe:	2200      	movs	r2, #0
 8001ac0:	4b2f      	ldr	r3, [pc, #188]	; (8001b80 <MPU6050_Read_All+0x280>)
 8001ac2:	f7fe ff99 	bl	80009f8 <__aeabi_dcmpgt>
 8001ac6:	b970      	cbnz	r0, 8001ae6 <MPU6050_Read_All+0x1e6>
 8001ac8:	2200      	movs	r2, #0
 8001aca:	4630      	mov	r0, r6
 8001acc:	4639      	mov	r1, r7
 8001ace:	4b2c      	ldr	r3, [pc, #176]	; (8001b80 <MPU6050_Read_All+0x280>)
 8001ad0:	f7fe ff92 	bl	80009f8 <__aeabi_dcmpgt>
 8001ad4:	2800      	cmp	r0, #0
 8001ad6:	d02d      	beq.n	8001b34 <MPU6050_Read_All+0x234>
 8001ad8:	e9d4 0114 	ldrd	r0, r1, [r4, #80]	; 0x50
 8001adc:	2200      	movs	r2, #0
 8001ade:	4b27      	ldr	r3, [pc, #156]	; (8001b7c <MPU6050_Read_All+0x27c>)
 8001ae0:	f7fe ff6c 	bl	80009bc <__aeabi_dcmplt>
 8001ae4:	b330      	cbz	r0, 8001b34 <MPU6050_Read_All+0x234>
 8001ae6:	4b27      	ldr	r3, [pc, #156]	; (8001b84 <MPU6050_Read_All+0x284>)
 8001ae8:	e9c4 6714 	strd	r6, r7, [r4, #80]	; 0x50
 8001aec:	e9c3 6706 	strd	r6, r7, [r3, #24]
 8001af0:	6d65      	ldr	r5, [r4, #84]	; 0x54
 8001af2:	2200      	movs	r2, #0
 8001af4:	4b22      	ldr	r3, [pc, #136]	; (8001b80 <MPU6050_Read_All+0x280>)
 8001af6:	6d20      	ldr	r0, [r4, #80]	; 0x50
 8001af8:	f025 4100 	bic.w	r1, r5, #2147483648	; 0x80000000
 8001afc:	f7fe ff7c 	bl	80009f8 <__aeabi_dcmpgt>
 8001b00:	b118      	cbz	r0, 8001b0a <MPU6050_Read_All+0x20a>
 8001b02:	6ae3      	ldr	r3, [r4, #44]	; 0x2c
 8001b04:	f103 4300 	add.w	r3, r3, #2147483648	; 0x80000000
 8001b08:	62e3      	str	r3, [r4, #44]	; 0x2c
 8001b0a:	e9d4 230a 	ldrd	r2, r3, [r4, #40]	; 0x28
 8001b0e:	e9cd ab02 	strd	sl, fp, [sp, #8]
 8001b12:	e9cd 2300 	strd	r2, r3, [sp]
 8001b16:	481c      	ldr	r0, [pc, #112]	; (8001b88 <MPU6050_Read_All+0x288>)
 8001b18:	4642      	mov	r2, r8
 8001b1a:	464b      	mov	r3, r9
 8001b1c:	f7ff fe16 	bl	800174c <Kalman_getAngle>
 8001b20:	e9c4 0112 	strd	r0, r1, [r4, #72]	; 0x48
 8001b24:	b009      	add	sp, #36	; 0x24
 8001b26:	e8bd 8ff0 	ldmia.w	sp!, {r4, r5, r6, r7, r8, r9, sl, fp, pc}
 8001b2a:	f04f 0800 	mov.w	r8, #0
 8001b2e:	f04f 0900 	mov.w	r9, #0
 8001b32:	e7a7      	b.n	8001a84 <MPU6050_Read_All+0x184>
 8001b34:	e9d4 230c 	ldrd	r2, r3, [r4, #48]	; 0x30
 8001b38:	e9cd ab02 	strd	sl, fp, [sp, #8]
 8001b3c:	e9cd 2300 	strd	r2, r3, [sp]
 8001b40:	4810      	ldr	r0, [pc, #64]	; (8001b84 <MPU6050_Read_All+0x284>)
 8001b42:	4632      	mov	r2, r6
 8001b44:	463b      	mov	r3, r7
 8001b46:	f7ff fe01 	bl	800174c <Kalman_getAngle>
 8001b4a:	e9c4 0114 	strd	r0, r1, [r4, #80]	; 0x50
 8001b4e:	e7cf      	b.n	8001af0 <MPU6050_Read_All+0x1f0>
 8001b50:	00000000 	.word	0x00000000
 8001b54:	40cc2900 	.word	0x40cc2900
 8001b58:	00000000 	.word	0x00000000
 8001b5c:	40606000 	.word	0x40606000
 8001b60:	1a63c1f8 	.word	0x1a63c1f8
 8001b64:	404ca5dc 	.word	0x404ca5dc
 8001b68:	3f100000 	.word	0x3f100000
 8001b6c:	43aa0000 	.word	0x43aa0000
 8001b70:	42121eb8 	.word	0x42121eb8
 8001b74:	200002ac 	.word	0x200002ac
 8001b78:	408f4000 	.word	0x408f4000
 8001b7c:	c0568000 	.word	0xc0568000
 8001b80:	40568000 	.word	0x40568000
 8001b84:	20000048 	.word	0x20000048
 8001b88:	20000000 	.word	0x20000000
 8001b8c:	00000000 	.word	0x00000000

08001b90 <main>:
 8001b90:	e92d 4ff0 	stmdb	sp!, {r4, r5, r6, r7, r8, r9, sl, fp, lr}
 8001b94:	b0e9      	sub	sp, #420	; 0x1a4
 8001b96:	f000 ff7b 	bl	8002a90 <HAL_Init>
 8001b9a:	f7ff faf1 	bl	8001180 <SystemClock_Config>
 8001b9e:	4b9f      	ldr	r3, [pc, #636]	; (8001e1c <main+0x28c>)
 8001ba0:	2500      	movs	r5, #0
 8001ba2:	699a      	ldr	r2, [r3, #24]
 8001ba4:	f04f 0848 	mov.w	r8, #72	; 0x48
 8001ba8:	f042 0210 	orr.w	r2, r2, #16
 8001bac:	619a      	str	r2, [r3, #24]
 8001bae:	699a      	ldr	r2, [r3, #24]
 8001bb0:	f242 770f 	movw	r7, #9999	; 0x270f
 8001bb4:	2680      	movs	r6, #128	; 0x80
 8001bb6:	f002 0210 	and.w	r2, r2, #16
 8001bba:	9206      	str	r2, [sp, #24]
 8001bbc:	9a06      	ldr	r2, [sp, #24]
 8001bbe:	699a      	ldr	r2, [r3, #24]
 8001bc0:	2100      	movs	r1, #0
 8001bc2:	f042 0220 	orr.w	r2, r2, #32
 8001bc6:	619a      	str	r2, [r3, #24]
 8001bc8:	699a      	ldr	r2, [r3, #24]
 8001bca:	a847      	add	r0, sp, #284	; 0x11c
 8001bcc:	f002 0220 	and.w	r2, r2, #32
 8001bd0:	9207      	str	r2, [sp, #28]
 8001bd2:	9a07      	ldr	r2, [sp, #28]
 8001bd4:	699a      	ldr	r2, [r3, #24]
 8001bd6:	4c92      	ldr	r4, [pc, #584]	; (8001e20 <main+0x290>)
 8001bd8:	f042 0204 	orr.w	r2, r2, #4
 8001bdc:	619a      	str	r2, [r3, #24]
 8001bde:	699a      	ldr	r2, [r3, #24]
 8001be0:	f002 0204 	and.w	r2, r2, #4
 8001be4:	9208      	str	r2, [sp, #32]
 8001be6:	9a08      	ldr	r2, [sp, #32]
 8001be8:	699a      	ldr	r2, [r3, #24]
 8001bea:	f042 0208 	orr.w	r2, r2, #8
 8001bee:	619a      	str	r2, [r3, #24]
 8001bf0:	699b      	ldr	r3, [r3, #24]
 8001bf2:	2210      	movs	r2, #16
 8001bf4:	f003 0308 	and.w	r3, r3, #8
 8001bf8:	9309      	str	r3, [sp, #36]	; 0x24
 8001bfa:	9b09      	ldr	r3, [sp, #36]	; 0x24
 8001bfc:	f002 fda8 	bl	8004750 <memset>
 8001c00:	221c      	movs	r2, #28
 8001c02:	4629      	mov	r1, r5
 8001c04:	a84b      	add	r0, sp, #300	; 0x12c
 8001c06:	e9cd 5544 	strd	r5, r5, [sp, #272]	; 0x110
 8001c0a:	f002 fda1 	bl	8004750 <memset>
 8001c0e:	2220      	movs	r2, #32
 8001c10:	4629      	mov	r1, r5
 8001c12:	a852      	add	r0, sp, #328	; 0x148
 8001c14:	f002 fd9c 	bl	8004750 <memset>
 8001c18:	4b82      	ldr	r3, [pc, #520]	; (8001e24 <main+0x294>)
 8001c1a:	4620      	mov	r0, r4
 8001c1c:	e9c4 3800 	strd	r3, r8, [r4]
 8001c20:	e9c4 7503 	strd	r7, r5, [r4, #12]
 8001c24:	60a5      	str	r5, [r4, #8]
 8001c26:	6165      	str	r5, [r4, #20]
 8001c28:	61a6      	str	r6, [r4, #24]
 8001c2a:	f002 f929 	bl	8003e80 <HAL_TIM_Base_Init>
 8001c2e:	b108      	cbz	r0, 8001c34 <main+0xa4>
 8001c30:	b672      	cpsid	i
 8001c32:	e7fe      	b.n	8001c32 <main+0xa2>
 8001c34:	f44f 5380 	mov.w	r3, #4096	; 0x1000
 8001c38:	4620      	mov	r0, r4
 8001c3a:	a947      	add	r1, sp, #284	; 0x11c
 8001c3c:	9347      	str	r3, [sp, #284]	; 0x11c
 8001c3e:	f002 fa08 	bl	8004052 <HAL_TIM_ConfigClockSource>
 8001c42:	b108      	cbz	r0, 8001c48 <main+0xb8>
 8001c44:	b672      	cpsid	i
 8001c46:	e7fe      	b.n	8001c46 <main+0xb6>
 8001c48:	4620      	mov	r0, r4
 8001c4a:	f002 f945 	bl	8003ed8 <HAL_TIM_PWM_Init>
 8001c4e:	b108      	cbz	r0, 8001c54 <main+0xc4>
 8001c50:	b672      	cpsid	i
 8001c52:	e7fe      	b.n	8001c52 <main+0xc2>
 8001c54:	e9cd 0044 	strd	r0, r0, [sp, #272]	; 0x110
 8001c58:	a944      	add	r1, sp, #272	; 0x110
 8001c5a:	4620      	mov	r0, r4
 8001c5c:	f002 faec 	bl	8004238 <HAL_TIMEx_MasterConfigSynchronization>
 8001c60:	4602      	mov	r2, r0
 8001c62:	b108      	cbz	r0, 8001c68 <main+0xd8>
 8001c64:	b672      	cpsid	i
 8001c66:	e7fe      	b.n	8001c66 <main+0xd6>
 8001c68:	2360      	movs	r3, #96	; 0x60
 8001c6a:	e9cd 004d 	strd	r0, r0, [sp, #308]	; 0x134
 8001c6e:	e9cd 304b 	strd	r3, r0, [sp, #300]	; 0x12c
 8001c72:	e9cd 004f 	strd	r0, r0, [sp, #316]	; 0x13c
 8001c76:	9051      	str	r0, [sp, #324]	; 0x144
 8001c78:	a94b      	add	r1, sp, #300	; 0x12c
 8001c7a:	4620      	mov	r0, r4
 8001c7c:	f002 f984 	bl	8003f88 <HAL_TIM_PWM_ConfigChannel>
 8001c80:	b108      	cbz	r0, 8001c86 <main+0xf6>
 8001c82:	b672      	cpsid	i
 8001c84:	e7fe      	b.n	8001c84 <main+0xf4>
 8001c86:	2204      	movs	r2, #4
 8001c88:	4620      	mov	r0, r4
 8001c8a:	a94b      	add	r1, sp, #300	; 0x12c
 8001c8c:	f002 f97c 	bl	8003f88 <HAL_TIM_PWM_ConfigChannel>
 8001c90:	b108      	cbz	r0, 8001c96 <main+0x106>
 8001c92:	b672      	cpsid	i
 8001c94:	e7fe      	b.n	8001c94 <main+0x104>
 8001c96:	2208      	movs	r2, #8
 8001c98:	4620      	mov	r0, r4
 8001c9a:	a94b      	add	r1, sp, #300	; 0x12c
 8001c9c:	f002 f974 	bl	8003f88 <HAL_TIM_PWM_ConfigChannel>
 8001ca0:	b108      	cbz	r0, 8001ca6 <main+0x116>
 8001ca2:	b672      	cpsid	i
 8001ca4:	e7fe      	b.n	8001ca4 <main+0x114>
 8001ca6:	220c      	movs	r2, #12
 8001ca8:	4620      	mov	r0, r4
 8001caa:	a94b      	add	r1, sp, #300	; 0x12c
 8001cac:	f002 f96c 	bl	8003f88 <HAL_TIM_PWM_ConfigChannel>
 8001cb0:	b108      	cbz	r0, 8001cb6 <main+0x126>
 8001cb2:	b672      	cpsid	i
 8001cb4:	e7fe      	b.n	8001cb4 <main+0x124>
 8001cb6:	f44f 5300 	mov.w	r3, #8192	; 0x2000
 8001cba:	e9cd 0052 	strd	r0, r0, [sp, #328]	; 0x148
 8001cbe:	e9cd 0054 	strd	r0, r0, [sp, #336]	; 0x150
 8001cc2:	9056      	str	r0, [sp, #344]	; 0x158
 8001cc4:	9059      	str	r0, [sp, #356]	; 0x164
 8001cc6:	a952      	add	r1, sp, #328	; 0x148
 8001cc8:	4620      	mov	r0, r4
 8001cca:	9357      	str	r3, [sp, #348]	; 0x15c
 8001ccc:	f002 fae2 	bl	8004294 <HAL_TIMEx_ConfigBreakDeadTime>
 8001cd0:	4605      	mov	r5, r0
 8001cd2:	b108      	cbz	r0, 8001cd8 <main+0x148>
 8001cd4:	b672      	cpsid	i
 8001cd6:	e7fe      	b.n	8001cd6 <main+0x146>
 8001cd8:	4620      	mov	r0, r4
 8001cda:	f000 fd5d 	bl	8002798 <HAL_TIM_MspPostInit>
 8001cde:	2210      	movs	r2, #16
 8001ce0:	4629      	mov	r1, r5
 8001ce2:	a84b      	add	r0, sp, #300	; 0x12c
 8001ce4:	f002 fd34 	bl	8004750 <memset>
 8001ce8:	221c      	movs	r2, #28
 8001cea:	4629      	mov	r1, r5
 8001cec:	a852      	add	r0, sp, #328	; 0x148
 8001cee:	e9cd 5547 	strd	r5, r5, [sp, #284]	; 0x11c
 8001cf2:	f002 fd2d 	bl	8004750 <memset>
 8001cf6:	f04f 4380 	mov.w	r3, #1073741824	; 0x40000000
 8001cfa:	484b      	ldr	r0, [pc, #300]	; (8001e28 <main+0x298>)
 8001cfc:	e9c0 3800 	strd	r3, r8, [r0]
 8001d00:	e9c0 5702 	strd	r5, r7, [r0, #8]
 8001d04:	6105      	str	r5, [r0, #16]
 8001d06:	6186      	str	r6, [r0, #24]
 8001d08:	f002 f8ba 	bl	8003e80 <HAL_TIM_Base_Init>
 8001d0c:	b108      	cbz	r0, 8001d12 <main+0x182>
 8001d0e:	b672      	cpsid	i
 8001d10:	e7fe      	b.n	8001d10 <main+0x180>
 8001d12:	f44f 5680 	mov.w	r6, #4096	; 0x1000
 8001d16:	4844      	ldr	r0, [pc, #272]	; (8001e28 <main+0x298>)
 8001d18:	a94b      	add	r1, sp, #300	; 0x12c
 8001d1a:	964b      	str	r6, [sp, #300]	; 0x12c
 8001d1c:	f002 f999 	bl	8004052 <HAL_TIM_ConfigClockSource>
 8001d20:	b108      	cbz	r0, 8001d26 <main+0x196>
 8001d22:	b672      	cpsid	i
 8001d24:	e7fe      	b.n	8001d24 <main+0x194>
 8001d26:	4840      	ldr	r0, [pc, #256]	; (8001e28 <main+0x298>)
 8001d28:	f002 f8d6 	bl	8003ed8 <HAL_TIM_PWM_Init>
 8001d2c:	b108      	cbz	r0, 8001d32 <main+0x1a2>
 8001d2e:	b672      	cpsid	i
 8001d30:	e7fe      	b.n	8001d30 <main+0x1a0>
 8001d32:	e9cd 0047 	strd	r0, r0, [sp, #284]	; 0x11c
 8001d36:	a947      	add	r1, sp, #284	; 0x11c
 8001d38:	483b      	ldr	r0, [pc, #236]	; (8001e28 <main+0x298>)
 8001d3a:	f002 fa7d 	bl	8004238 <HAL_TIMEx_MasterConfigSynchronization>
 8001d3e:	4602      	mov	r2, r0
 8001d40:	b108      	cbz	r0, 8001d46 <main+0x1b6>
 8001d42:	b672      	cpsid	i
 8001d44:	e7fe      	b.n	8001d44 <main+0x1b4>
 8001d46:	2360      	movs	r3, #96	; 0x60
 8001d48:	9054      	str	r0, [sp, #336]	; 0x150
 8001d4a:	e9cd 3052 	strd	r3, r0, [sp, #328]	; 0x148
 8001d4e:	9056      	str	r0, [sp, #344]	; 0x158
 8001d50:	a952      	add	r1, sp, #328	; 0x148
 8001d52:	4835      	ldr	r0, [pc, #212]	; (8001e28 <main+0x298>)
 8001d54:	f002 f918 	bl	8003f88 <HAL_TIM_PWM_ConfigChannel>
 8001d58:	b108      	cbz	r0, 8001d5e <main+0x1ce>
 8001d5a:	b672      	cpsid	i
 8001d5c:	e7fe      	b.n	8001d5c <main+0x1cc>
 8001d5e:	2204      	movs	r2, #4
 8001d60:	4831      	ldr	r0, [pc, #196]	; (8001e28 <main+0x298>)
 8001d62:	a952      	add	r1, sp, #328	; 0x148
 8001d64:	f002 f910 	bl	8003f88 <HAL_TIM_PWM_ConfigChannel>
 8001d68:	b108      	cbz	r0, 8001d6e <main+0x1de>
 8001d6a:	b672      	cpsid	i
 8001d6c:	e7fe      	b.n	8001d6c <main+0x1dc>
 8001d6e:	2208      	movs	r2, #8
 8001d70:	482d      	ldr	r0, [pc, #180]	; (8001e28 <main+0x298>)
 8001d72:	a952      	add	r1, sp, #328	; 0x148
 8001d74:	f002 f908 	bl	8003f88 <HAL_TIM_PWM_ConfigChannel>
 8001d78:	b108      	cbz	r0, 8001d7e <main+0x1ee>
 8001d7a:	b672      	cpsid	i
 8001d7c:	e7fe      	b.n	8001d7c <main+0x1ec>
 8001d7e:	220c      	movs	r2, #12
 8001d80:	4829      	ldr	r0, [pc, #164]	; (8001e28 <main+0x298>)
 8001d82:	a952      	add	r1, sp, #328	; 0x148
 8001d84:	f002 f900 	bl	8003f88 <HAL_TIM_PWM_ConfigChannel>
 8001d88:	4605      	mov	r5, r0
 8001d8a:	b108      	cbz	r0, 8001d90 <main+0x200>
 8001d8c:	b672      	cpsid	i
 8001d8e:	e7fe      	b.n	8001d8e <main+0x1fe>
 8001d90:	4825      	ldr	r0, [pc, #148]	; (8001e28 <main+0x298>)
 8001d92:	f000 fd01 	bl	8002798 <HAL_TIM_MspPostInit>
 8001d96:	2210      	movs	r2, #16
 8001d98:	4629      	mov	r1, r5
 8001d9a:	a84b      	add	r0, sp, #300	; 0x12c
 8001d9c:	f002 fcd8 	bl	8004750 <memset>
 8001da0:	221c      	movs	r2, #28
 8001da2:	4629      	mov	r1, r5
 8001da4:	a852      	add	r0, sp, #328	; 0x148
 8001da6:	e9cd 5547 	strd	r5, r5, [sp, #284]	; 0x11c
 8001daa:	f002 fcd1 	bl	8004750 <memset>
 8001dae:	2348      	movs	r3, #72	; 0x48
 8001db0:	4c1e      	ldr	r4, [pc, #120]	; (8001e2c <main+0x29c>)
 8001db2:	481f      	ldr	r0, [pc, #124]	; (8001e30 <main+0x2a0>)
 8001db4:	60a5      	str	r5, [r4, #8]
 8001db6:	e9c4 0300 	strd	r0, r3, [r4]
 8001dba:	f242 730f 	movw	r3, #9999	; 0x270f
 8001dbe:	e9c4 3503 	strd	r3, r5, [r4, #12]
 8001dc2:	2380      	movs	r3, #128	; 0x80
 8001dc4:	4620      	mov	r0, r4
 8001dc6:	61a3      	str	r3, [r4, #24]
 8001dc8:	f002 f85a 	bl	8003e80 <HAL_TIM_Base_Init>
 8001dcc:	b108      	cbz	r0, 8001dd2 <main+0x242>
 8001dce:	b672      	cpsid	i
 8001dd0:	e7fe      	b.n	8001dd0 <main+0x240>
 8001dd2:	4620      	mov	r0, r4
 8001dd4:	a94b      	add	r1, sp, #300	; 0x12c
 8001dd6:	964b      	str	r6, [sp, #300]	; 0x12c
 8001dd8:	f002 f93b 	bl	8004052 <HAL_TIM_ConfigClockSource>
 8001ddc:	b108      	cbz	r0, 8001de2 <main+0x252>
 8001dde:	b672      	cpsid	i
 8001de0:	e7fe      	b.n	8001de0 <main+0x250>
 8001de2:	4620      	mov	r0, r4
 8001de4:	f002 f878 	bl	8003ed8 <HAL_TIM_PWM_Init>
 8001de8:	b108      	cbz	r0, 8001dee <main+0x25e>
 8001dea:	b672      	cpsid	i
 8001dec:	e7fe      	b.n	8001dec <main+0x25c>
 8001dee:	2300      	movs	r3, #0
 8001df0:	480e      	ldr	r0, [pc, #56]	; (8001e2c <main+0x29c>)
 8001df2:	a947      	add	r1, sp, #284	; 0x11c
 8001df4:	e9cd 3347 	strd	r3, r3, [sp, #284]	; 0x11c
 8001df8:	f002 fa1e 	bl	8004238 <HAL_TIMEx_MasterConfigSynchronization>
 8001dfc:	4602      	mov	r2, r0
 8001dfe:	b108      	cbz	r0, 8001e04 <main+0x274>
 8001e00:	b672      	cpsid	i
 8001e02:	e7fe      	b.n	8001e02 <main+0x272>
 8001e04:	2360      	movs	r3, #96	; 0x60
 8001e06:	9054      	str	r0, [sp, #336]	; 0x150
 8001e08:	e9cd 3052 	strd	r3, r0, [sp, #328]	; 0x148
 8001e0c:	9056      	str	r0, [sp, #344]	; 0x158
 8001e0e:	a952      	add	r1, sp, #328	; 0x148
 8001e10:	4806      	ldr	r0, [pc, #24]	; (8001e2c <main+0x29c>)
 8001e12:	f002 f8b9 	bl	8003f88 <HAL_TIM_PWM_ConfigChannel>
 8001e16:	b168      	cbz	r0, 8001e34 <main+0x2a4>
 8001e18:	b672      	cpsid	i
 8001e1a:	e7fe      	b.n	8001e1a <main+0x28a>
 8001e1c:	40021000 	.word	0x40021000
 8001e20:	2000034c 	.word	0x2000034c
 8001e24:	40012c00 	.word	0x40012c00
 8001e28:	20000394 	.word	0x20000394
 8001e2c:	20000304 	.word	0x20000304
 8001e30:	40000400 	.word	0x40000400
 8001e34:	2204      	movs	r2, #4
 8001e36:	48c4      	ldr	r0, [pc, #784]	; (8002148 <main+0x5b8>)
 8001e38:	a952      	add	r1, sp, #328	; 0x148
 8001e3a:	f002 f8a5 	bl	8003f88 <HAL_TIM_PWM_ConfigChannel>
 8001e3e:	b108      	cbz	r0, 8001e44 <main+0x2b4>
 8001e40:	b672      	cpsid	i
 8001e42:	e7fe      	b.n	8001e42 <main+0x2b2>
 8001e44:	2208      	movs	r2, #8
 8001e46:	48c0      	ldr	r0, [pc, #768]	; (8002148 <main+0x5b8>)
 8001e48:	a952      	add	r1, sp, #328	; 0x148
 8001e4a:	f002 f89d 	bl	8003f88 <HAL_TIM_PWM_ConfigChannel>
 8001e4e:	b108      	cbz	r0, 8001e54 <main+0x2c4>
 8001e50:	b672      	cpsid	i
 8001e52:	e7fe      	b.n	8001e52 <main+0x2c2>
 8001e54:	220c      	movs	r2, #12
 8001e56:	48bc      	ldr	r0, [pc, #752]	; (8002148 <main+0x5b8>)
 8001e58:	a952      	add	r1, sp, #328	; 0x148
 8001e5a:	f002 f895 	bl	8003f88 <HAL_TIM_PWM_ConfigChannel>
 8001e5e:	4605      	mov	r5, r0
 8001e60:	b108      	cbz	r0, 8001e66 <main+0x2d6>
 8001e62:	b672      	cpsid	i
 8001e64:	e7fe      	b.n	8001e64 <main+0x2d4>
 8001e66:	48b8      	ldr	r0, [pc, #736]	; (8002148 <main+0x5b8>)
 8001e68:	f000 fc96 	bl	8002798 <HAL_TIM_MspPostInit>
 8001e6c:	4cb7      	ldr	r4, [pc, #732]	; (800214c <main+0x5bc>)
 8001e6e:	4bb8      	ldr	r3, [pc, #736]	; (8002150 <main+0x5c0>)
 8001e70:	49b8      	ldr	r1, [pc, #736]	; (8002154 <main+0x5c4>)
 8001e72:	4620      	mov	r0, r4
 8001e74:	e9c4 1300 	strd	r1, r3, [r4]
 8001e78:	f44f 4380 	mov.w	r3, #16384	; 0x4000
 8001e7c:	e9c4 5502 	strd	r5, r5, [r4, #8]
 8001e80:	e9c4 3504 	strd	r3, r5, [r4, #16]
 8001e84:	e9c4 5506 	strd	r5, r5, [r4, #24]
 8001e88:	6225      	str	r5, [r4, #32]
 8001e8a:	f001 fa29 	bl	80032e0 <HAL_I2C_Init>
 8001e8e:	b108      	cbz	r0, 8001e94 <main+0x304>
 8001e90:	b672      	cpsid	i
 8001e92:	e7fe      	b.n	8001e92 <main+0x302>
 8001e94:	270c      	movs	r7, #12
 8001e96:	f44f 33e1 	mov.w	r3, #115200	; 0x1c200
 8001e9a:	4daf      	ldr	r5, [pc, #700]	; (8002158 <main+0x5c8>)
 8001e9c:	4aaf      	ldr	r2, [pc, #700]	; (800215c <main+0x5cc>)
 8001e9e:	e9c5 0002 	strd	r0, r0, [r5, #8]
 8001ea2:	e9c5 7005 	strd	r7, r0, [r5, #20]
 8001ea6:	6128      	str	r0, [r5, #16]
 8001ea8:	61e8      	str	r0, [r5, #28]
 8001eaa:	4628      	mov	r0, r5
 8001eac:	e9c5 2300 	strd	r2, r3, [r5]
 8001eb0:	f002 fa66 	bl	8004380 <HAL_UART_Init>
 8001eb4:	4606      	mov	r6, r0
 8001eb6:	b108      	cbz	r0, 8001ebc <main+0x32c>
 8001eb8:	b672      	cpsid	i
 8001eba:	e7fe      	b.n	8001eba <main+0x32a>
 8001ebc:	4601      	mov	r1, r0
 8001ebe:	48a8      	ldr	r0, [pc, #672]	; (8002160 <main+0x5d0>)
 8001ec0:	f002 f9b8 	bl	8004234 <HAL_TIM_PWM_Start>
 8001ec4:	2104      	movs	r1, #4
 8001ec6:	48a6      	ldr	r0, [pc, #664]	; (8002160 <main+0x5d0>)
 8001ec8:	f002 f9b4 	bl	8004234 <HAL_TIM_PWM_Start>
 8001ecc:	2108      	movs	r1, #8
 8001ece:	48a4      	ldr	r0, [pc, #656]	; (8002160 <main+0x5d0>)
 8001ed0:	f002 f9b0 	bl	8004234 <HAL_TIM_PWM_Start>
 8001ed4:	4639      	mov	r1, r7
 8001ed6:	48a2      	ldr	r0, [pc, #648]	; (8002160 <main+0x5d0>)
 8001ed8:	f002 f9ac 	bl	8004234 <HAL_TIM_PWM_Start>
 8001edc:	4631      	mov	r1, r6
 8001ede:	48a1      	ldr	r0, [pc, #644]	; (8002164 <main+0x5d4>)
 8001ee0:	f002 f9a8 	bl	8004234 <HAL_TIM_PWM_Start>
 8001ee4:	2104      	movs	r1, #4
 8001ee6:	489f      	ldr	r0, [pc, #636]	; (8002164 <main+0x5d4>)
 8001ee8:	f002 f9a4 	bl	8004234 <HAL_TIM_PWM_Start>
 8001eec:	2108      	movs	r1, #8
 8001eee:	489d      	ldr	r0, [pc, #628]	; (8002164 <main+0x5d4>)
 8001ef0:	f002 f9a0 	bl	8004234 <HAL_TIM_PWM_Start>
 8001ef4:	4639      	mov	r1, r7
 8001ef6:	489b      	ldr	r0, [pc, #620]	; (8002164 <main+0x5d4>)
 8001ef8:	f002 f99c 	bl	8004234 <HAL_TIM_PWM_Start>
 8001efc:	4631      	mov	r1, r6
 8001efe:	4892      	ldr	r0, [pc, #584]	; (8002148 <main+0x5b8>)
 8001f00:	f002 f998 	bl	8004234 <HAL_TIM_PWM_Start>
 8001f04:	2104      	movs	r1, #4
 8001f06:	4890      	ldr	r0, [pc, #576]	; (8002148 <main+0x5b8>)
 8001f08:	f002 f994 	bl	8004234 <HAL_TIM_PWM_Start>
 8001f0c:	2108      	movs	r1, #8
 8001f0e:	488e      	ldr	r0, [pc, #568]	; (8002148 <main+0x5b8>)
 8001f10:	f002 f990 	bl	8004234 <HAL_TIM_PWM_Start>
 8001f14:	4639      	mov	r1, r7
 8001f16:	488c      	ldr	r0, [pc, #560]	; (8002148 <main+0x5b8>)
 8001f18:	f002 f98c 	bl	8004234 <HAL_TIM_PWM_Start>
 8001f1c:	220f      	movs	r2, #15
 8001f1e:	4628      	mov	r0, r5
 8001f20:	4991      	ldr	r1, [pc, #580]	; (8002168 <main+0x5d8>)
 8001f22:	f002 fbd0 	bl	80046c6 <HAL_UART_Receive_IT>
 8001f26:	4620      	mov	r0, r4
 8001f28:	f7ff fbc2 	bl	80016b0 <MPU6050_Init>
 8001f2c:	2800      	cmp	r0, #0
 8001f2e:	f000 8333 	beq.w	8002598 <main+0xa08>
 8001f32:	f44f 70fa 	mov.w	r0, #500	; 0x1f4
 8001f36:	f000 fdcf 	bl	8002ad8 <HAL_Delay>
 8001f3a:	4620      	mov	r0, r4
 8001f3c:	f001 fa78 	bl	8003430 <HAL_I2C_DeInit>
 8001f40:	f44f 70fa 	mov.w	r0, #500	; 0x1f4
 8001f44:	f000 fdc8 	bl	8002ad8 <HAL_Delay>
 8001f48:	4620      	mov	r0, r4
 8001f4a:	f001 f9c9 	bl	80032e0 <HAL_I2C_Init>
 8001f4e:	e7ea      	b.n	8001f26 <main+0x396>
 8001f50:	f10d 0c28 	add.w	ip, sp, #40	; 0x28
 8001f54:	aa0c      	add	r2, sp, #48	; 0x30
 8001f56:	2300      	movs	r3, #0
 8001f58:	4660      	mov	r0, ip
 8001f5a:	4690      	mov	r8, r2
 8001f5c:	4982      	ldr	r1, [pc, #520]	; (8002168 <main+0x5d8>)
 8001f5e:	f811 eb01 	ldrb.w	lr, [r1], #1
 8001f62:	3301      	adds	r3, #1
 8001f64:	f80c eb01 	strb.w	lr, [ip], #1
 8001f68:	f891 e004 	ldrb.w	lr, [r1, #4]
 8001f6c:	2b05      	cmp	r3, #5
 8001f6e:	f802 eb01 	strb.w	lr, [r2], #1
 8001f72:	d1f4      	bne.n	8001f5e <main+0x3ce>
 8001f74:	f002 fbbf 	bl	80046f6 <atof>
 8001f78:	f7fe fda6 	bl	8000ac8 <__aeabi_d2f>
 8001f7c:	9003      	str	r0, [sp, #12]
 8001f7e:	4640      	mov	r0, r8
 8001f80:	f002 fbb9 	bl	80046f6 <atof>
 8001f84:	e9cd 0104 	strd	r0, r1, [sp, #16]
 8001f88:	4639      	mov	r1, r7
 8001f8a:	9803      	ldr	r0, [sp, #12]
 8001f8c:	f7fe fdf0 	bl	8000b70 <__aeabi_fsub>
 8001f90:	f7fe fa4a 	bl	8000428 <__aeabi_f2d>
 8001f94:	a35a      	add	r3, pc, #360	; (adr r3, 8002100 <main+0x570>)
 8001f96:	e9d3 2300 	ldrd	r2, r3, [r3]
 8001f9a:	f7fe fa9d 	bl	80004d8 <__aeabi_dmul>
 8001f9e:	4680      	mov	r8, r0
 8001fa0:	9803      	ldr	r0, [sp, #12]
 8001fa2:	4689      	mov	r9, r1
 8001fa4:	f7fe fa40 	bl	8000428 <__aeabi_f2d>
 8001fa8:	a357      	add	r3, pc, #348	; (adr r3, 8002108 <main+0x578>)
 8001faa:	e9d3 2300 	ldrd	r2, r3, [r3]
 8001fae:	f7fe fa93 	bl	80004d8 <__aeabi_dmul>
 8001fb2:	4602      	mov	r2, r0
 8001fb4:	460b      	mov	r3, r1
 8001fb6:	4640      	mov	r0, r8
 8001fb8:	4649      	mov	r1, r9
 8001fba:	f7fe f8d7 	bl	800016c <__adddf3>
 8001fbe:	4680      	mov	r8, r0
 8001fc0:	4628      	mov	r0, r5
 8001fc2:	4689      	mov	r9, r1
 8001fc4:	f7fe fa30 	bl	8000428 <__aeabi_f2d>
 8001fc8:	4602      	mov	r2, r0
 8001fca:	460b      	mov	r3, r1
 8001fcc:	4640      	mov	r0, r8
 8001fce:	4649      	mov	r1, r9
 8001fd0:	f7fe f8cc 	bl	800016c <__adddf3>
 8001fd4:	f7fe fd78 	bl	8000ac8 <__aeabi_d2f>
 8001fd8:	4605      	mov	r5, r0
 8001fda:	e9dd 0104 	ldrd	r0, r1, [sp, #16]
 8001fde:	f7fe fd73 	bl	8000ac8 <__aeabi_d2f>
 8001fe2:	f7fe fa21 	bl	8000428 <__aeabi_f2d>
 8001fe6:	a34a      	add	r3, pc, #296	; (adr r3, 8002110 <main+0x580>)
 8001fe8:	e9d3 2300 	ldrd	r2, r3, [r3]
 8001fec:	f7fe fa74 	bl	80004d8 <__aeabi_dmul>
 8001ff0:	4680      	mov	r8, r0
 8001ff2:	4620      	mov	r0, r4
 8001ff4:	4689      	mov	r9, r1
 8001ff6:	f7fe fa17 	bl	8000428 <__aeabi_f2d>
 8001ffa:	4602      	mov	r2, r0
 8001ffc:	460b      	mov	r3, r1
 8001ffe:	4640      	mov	r0, r8
 8002000:	4649      	mov	r1, r9
 8002002:	f7fe f8b3 	bl	800016c <__adddf3>
 8002006:	f7fe fd5f 	bl	8000ac8 <__aeabi_d2f>
 800200a:	4604      	mov	r4, r0
 800200c:	4628      	mov	r0, r5
 800200e:	f7fe fa0b 	bl	8000428 <__aeabi_f2d>
 8002012:	a341      	add	r3, pc, #260	; (adr r3, 8002118 <main+0x588>)
 8002014:	e9d3 2300 	ldrd	r2, r3, [r3]
 8002018:	4680      	mov	r8, r0
 800201a:	4689      	mov	r9, r1
 800201c:	f7fe fcec 	bl	80009f8 <__aeabi_dcmpgt>
 8002020:	b958      	cbnz	r0, 800203a <main+0x4aa>
 8002022:	a33f      	add	r3, pc, #252	; (adr r3, 8002120 <main+0x590>)
 8002024:	e9d3 2300 	ldrd	r2, r3, [r3]
 8002028:	4640      	mov	r0, r8
 800202a:	4649      	mov	r1, r9
 800202c:	f7fe fcc6 	bl	80009bc <__aeabi_dcmplt>
 8002030:	2800      	cmp	r0, #0
 8002032:	f000 81ce 	beq.w	80023d2 <main+0x842>
 8002036:	4d4d      	ldr	r5, [pc, #308]	; (800216c <main+0x5dc>)
 8002038:	e1cb      	b.n	80023d2 <main+0x842>
 800203a:	4d4d      	ldr	r5, [pc, #308]	; (8002170 <main+0x5e0>)
 800203c:	e1c9      	b.n	80023d2 <main+0x842>
 800203e:	4c4d      	ldr	r4, [pc, #308]	; (8002174 <main+0x5e4>)
 8002040:	e1dd      	b.n	80023fe <main+0x86e>
 8002042:	4e4c      	ldr	r6, [pc, #304]	; (8002174 <main+0x5e4>)
 8002044:	e1f1      	b.n	800242a <main+0x89a>
 8002046:	f20f 09e0 	addw	r9, pc, #224	; 0xe0
 800204a:	e9d9 8900 	ldrd	r8, r9, [r9]
 800204e:	4640      	mov	r0, r8
 8002050:	4649      	mov	r1, r9
 8002052:	f005 fbb9 	bl	80077c8 <round>
 8002056:	f7fe fd17 	bl	8000a88 <__aeabi_d2uiz>
 800205a:	f240 52dc 	movw	r2, #1500	; 0x5dc
 800205e:	4b46      	ldr	r3, [pc, #280]	; (8002178 <main+0x5e8>)
 8002060:	63d8      	str	r0, [r3, #60]	; 0x3c
 8002062:	641a      	str	r2, [r3, #64]	; 0x40
 8002064:	9841      	ldr	r0, [sp, #260]	; 0x104
 8002066:	f7fe f9df 	bl	8000428 <__aeabi_f2d>
 800206a:	a331      	add	r3, pc, #196	; (adr r3, 8002130 <main+0x5a0>)
 800206c:	e9d3 2300 	ldrd	r2, r3, [r3]
 8002070:	f7fe fa32 	bl	80004d8 <__aeabi_dmul>
 8002074:	a330      	add	r3, pc, #192	; (adr r3, 8002138 <main+0x5a8>)
 8002076:	e9d3 2300 	ldrd	r2, r3, [r3]
 800207a:	f7fe f877 	bl	800016c <__adddf3>
 800207e:	4652      	mov	r2, sl
 8002080:	465b      	mov	r3, fp
 8002082:	4680      	mov	r8, r0
 8002084:	4689      	mov	r9, r1
 8002086:	f7fe fc99 	bl	80009bc <__aeabi_dcmplt>
 800208a:	b158      	cbz	r0, 80020a4 <main+0x514>
 800208c:	2200      	movs	r2, #0
 800208e:	4640      	mov	r0, r8
 8002090:	4649      	mov	r1, r9
 8002092:	4b3a      	ldr	r3, [pc, #232]	; (800217c <main+0x5ec>)
 8002094:	f7fe fcb0 	bl	80009f8 <__aeabi_dcmpgt>
 8002098:	b930      	cbnz	r0, 80020a8 <main+0x518>
 800209a:	f04f 0800 	mov.w	r8, #0
 800209e:	f8df 90dc 	ldr.w	r9, [pc, #220]	; 800217c <main+0x5ec>
 80020a2:	e001      	b.n	80020a8 <main+0x518>
 80020a4:	46d0      	mov	r8, sl
 80020a6:	46d9      	mov	r9, fp
 80020a8:	4640      	mov	r0, r8
 80020aa:	4649      	mov	r1, r9
 80020ac:	f005 fb8c 	bl	80077c8 <round>
 80020b0:	f7fe fcea 	bl	8000a88 <__aeabi_d2uiz>
 80020b4:	4b30      	ldr	r3, [pc, #192]	; (8002178 <main+0x5e8>)
 80020b6:	6358      	str	r0, [r3, #52]	; 0x34
 80020b8:	9839      	ldr	r0, [sp, #228]	; 0xe4
 80020ba:	f7fe f9b5 	bl	8000428 <__aeabi_f2d>
 80020be:	a320      	add	r3, pc, #128	; (adr r3, 8002140 <main+0x5b0>)
 80020c0:	e9d3 2300 	ldrd	r2, r3, [r3]
 80020c4:	f7fe fa08 	bl	80004d8 <__aeabi_dmul>
 80020c8:	2200      	movs	r2, #0
 80020ca:	4b2d      	ldr	r3, [pc, #180]	; (8002180 <main+0x5f0>)
 80020cc:	f7fe f84e 	bl	800016c <__adddf3>
 80020d0:	a315      	add	r3, pc, #84	; (adr r3, 8002128 <main+0x598>)
 80020d2:	e9d3 2300 	ldrd	r2, r3, [r3]
 80020d6:	4680      	mov	r8, r0
 80020d8:	4689      	mov	r9, r1
 80020da:	f7fe fc6f 	bl	80009bc <__aeabi_dcmplt>
 80020de:	2800      	cmp	r0, #0
 80020e0:	d052      	beq.n	8002188 <main+0x5f8>
 80020e2:	2200      	movs	r2, #0
 80020e4:	4640      	mov	r0, r8
 80020e6:	4649      	mov	r1, r9
 80020e8:	4b26      	ldr	r3, [pc, #152]	; (8002184 <main+0x5f4>)
 80020ea:	f7fe fc85 	bl	80009f8 <__aeabi_dcmpgt>
 80020ee:	2800      	cmp	r0, #0
 80020f0:	d14e      	bne.n	8002190 <main+0x600>
 80020f2:	f04f 0800 	mov.w	r8, #0
 80020f6:	f8df 908c 	ldr.w	r9, [pc, #140]	; 8002184 <main+0x5f4>
 80020fa:	e049      	b.n	8002190 <main+0x600>
 80020fc:	f3af 8000 	nop.w
 8002100:	d2f1a9fc 	.word	0xd2f1a9fc
 8002104:	3f50624d 	.word	0x3f50624d
 8002108:	47ae147b 	.word	0x47ae147b
 800210c:	3fb47ae1 	.word	0x3fb47ae1
 8002110:	47ae147b 	.word	0x47ae147b
 8002114:	3fa47ae1 	.word	0x3fa47ae1
 8002118:	66666666 	.word	0x66666666
 800211c:	3fd66666 	.word	0x3fd66666
 8002120:	66666666 	.word	0x66666666
 8002124:	bfd66666 	.word	0xbfd66666
 8002128:	00000000 	.word	0x00000000
 800212c:	40a32400 	.word	0x40a32400
 8002130:	80b69eb8 	.word	0x80b69eb8
 8002134:	c082cf77 	.word	0xc082cf77
 8002138:	00affe35 	.word	0x00affe35
 800213c:	409621bf 	.word	0x409621bf
 8002140:	dd9a7a6a 	.word	0xdd9a7a6a
 8002144:	c083193c 	.word	0xc083193c
 8002148:	20000304 	.word	0x20000304
 800214c:	200002b0 	.word	0x200002b0
 8002150:	00061a80 	.word	0x00061a80
 8002154:	40005400 	.word	0x40005400
 8002158:	200003dc 	.word	0x200003dc
 800215c:	40004400 	.word	0x40004400
 8002160:	2000034c 	.word	0x2000034c
 8002164:	20000394 	.word	0x20000394
 8002168:	20000090 	.word	0x20000090
 800216c:	beb33333 	.word	0xbeb33333
 8002170:	3eb33333 	.word	0x3eb33333
 8002174:	3e99999a 	.word	0x3e99999a
 8002178:	40000400 	.word	0x40000400
 800217c:	408f4000 	.word	0x408f4000
 8002180:	408ef000 	.word	0x408ef000
 8002184:	40813000 	.word	0x40813000
 8002188:	f20f 1924 	addw	r9, pc, #292	; 0x124
 800218c:	e9d9 8900 	ldrd	r8, r9, [r9]
 8002190:	4640      	mov	r0, r8
 8002192:	4649      	mov	r1, r9
 8002194:	f005 fb18 	bl	80077c8 <round>
 8002198:	f7fe fc76 	bl	8000a88 <__aeabi_d2uiz>
 800219c:	f240 52dc 	movw	r2, #1500	; 0x5dc
 80021a0:	4b51      	ldr	r3, [pc, #324]	; (80022e8 <main+0x758>)
 80021a2:	6358      	str	r0, [r3, #52]	; 0x34
 80021a4:	641a      	str	r2, [r3, #64]	; 0x40
 80021a6:	9838      	ldr	r0, [sp, #224]	; 0xe0
 80021a8:	f7fe f93e 	bl	8000428 <__aeabi_f2d>
 80021ac:	a342      	add	r3, pc, #264	; (adr r3, 80022b8 <main+0x728>)
 80021ae:	e9d3 2300 	ldrd	r2, r3, [r3]
 80021b2:	f7fe f991 	bl	80004d8 <__aeabi_dmul>
 80021b6:	a342      	add	r3, pc, #264	; (adr r3, 80022c0 <main+0x730>)
 80021b8:	e9d3 2300 	ldrd	r2, r3, [r3]
 80021bc:	f7fd ffd6 	bl	800016c <__adddf3>
 80021c0:	4652      	mov	r2, sl
 80021c2:	465b      	mov	r3, fp
 80021c4:	4680      	mov	r8, r0
 80021c6:	4689      	mov	r9, r1
 80021c8:	f7fe fbf8 	bl	80009bc <__aeabi_dcmplt>
 80021cc:	b158      	cbz	r0, 80021e6 <main+0x656>
 80021ce:	2200      	movs	r2, #0
 80021d0:	4640      	mov	r0, r8
 80021d2:	4649      	mov	r1, r9
 80021d4:	4b45      	ldr	r3, [pc, #276]	; (80022ec <main+0x75c>)
 80021d6:	f7fe fc0f 	bl	80009f8 <__aeabi_dcmpgt>
 80021da:	b930      	cbnz	r0, 80021ea <main+0x65a>
 80021dc:	f04f 0800 	mov.w	r8, #0
 80021e0:	f8df 9108 	ldr.w	r9, [pc, #264]	; 80022ec <main+0x75c>
 80021e4:	e001      	b.n	80021ea <main+0x65a>
 80021e6:	46d0      	mov	r8, sl
 80021e8:	46d9      	mov	r9, fp
 80021ea:	4640      	mov	r0, r8
 80021ec:	4649      	mov	r1, r9
 80021ee:	f005 faeb 	bl	80077c8 <round>
 80021f2:	f7fe fc49 	bl	8000a88 <__aeabi_d2uiz>
 80021f6:	f240 522d 	movw	r2, #1325	; 0x52d
 80021fa:	4b3b      	ldr	r3, [pc, #236]	; (80022e8 <main+0x758>)
 80021fc:	6398      	str	r0, [r3, #56]	; 0x38
 80021fe:	63da      	str	r2, [r3, #60]	; 0x3c
 8002200:	f04f 4380 	mov.w	r3, #1073741824	; 0x40000000
 8002204:	f240 52dc 	movw	r2, #1500	; 0x5dc
 8002208:	9826      	ldr	r0, [sp, #152]	; 0x98
 800220a:	63da      	str	r2, [r3, #60]	; 0x3c
 800220c:	f7fe f90c 	bl	8000428 <__aeabi_f2d>
 8002210:	a32d      	add	r3, pc, #180	; (adr r3, 80022c8 <main+0x738>)
 8002212:	e9d3 2300 	ldrd	r2, r3, [r3]
 8002216:	f7fe f95f 	bl	80004d8 <__aeabi_dmul>
 800221a:	a32d      	add	r3, pc, #180	; (adr r3, 80022d0 <main+0x740>)
 800221c:	e9d3 2300 	ldrd	r2, r3, [r3]
 8002220:	f7fd ffa4 	bl	800016c <__adddf3>
 8002224:	4652      	mov	r2, sl
 8002226:	465b      	mov	r3, fp
 8002228:	4680      	mov	r8, r0
 800222a:	4689      	mov	r9, r1
 800222c:	f7fe fbc6 	bl	80009bc <__aeabi_dcmplt>
 8002230:	b158      	cbz	r0, 800224a <main+0x6ba>
 8002232:	2200      	movs	r2, #0
 8002234:	4640      	mov	r0, r8
 8002236:	4649      	mov	r1, r9
 8002238:	4b2c      	ldr	r3, [pc, #176]	; (80022ec <main+0x75c>)
 800223a:	f7fe fbdd 	bl	80009f8 <__aeabi_dcmpgt>
 800223e:	b930      	cbnz	r0, 800224e <main+0x6be>
 8002240:	f04f 0800 	mov.w	r8, #0
 8002244:	f8df 90a4 	ldr.w	r9, [pc, #164]	; 80022ec <main+0x75c>
 8002248:	e001      	b.n	800224e <main+0x6be>
 800224a:	46d0      	mov	r8, sl
 800224c:	46d9      	mov	r9, fp
 800224e:	4640      	mov	r0, r8
 8002250:	4649      	mov	r1, r9
 8002252:	f005 fab9 	bl	80077c8 <round>
 8002256:	f7fe fc17 	bl	8000a88 <__aeabi_d2uiz>
 800225a:	f04f 4380 	mov.w	r3, #1073741824	; 0x40000000
 800225e:	f44f 61a9 	mov.w	r1, #1352	; 0x548
 8002262:	4a23      	ldr	r2, [pc, #140]	; (80022f0 <main+0x760>)
 8002264:	6418      	str	r0, [r3, #64]	; 0x40
 8002266:	6391      	str	r1, [r2, #56]	; 0x38
 8002268:	f240 52dc 	movw	r2, #1500	; 0x5dc
 800226c:	982f      	ldr	r0, [sp, #188]	; 0xbc
 800226e:	639a      	str	r2, [r3, #56]	; 0x38
 8002270:	f7fe f8da 	bl	8000428 <__aeabi_f2d>
 8002274:	a318      	add	r3, pc, #96	; (adr r3, 80022d8 <main+0x748>)
 8002276:	e9d3 2300 	ldrd	r2, r3, [r3]
 800227a:	f7fe f92d 	bl	80004d8 <__aeabi_dmul>
 800227e:	a318      	add	r3, pc, #96	; (adr r3, 80022e0 <main+0x750>)
 8002280:	e9d3 2300 	ldrd	r2, r3, [r3]
 8002284:	f7fd ff72 	bl	800016c <__adddf3>
 8002288:	4652      	mov	r2, sl
 800228a:	465b      	mov	r3, fp
 800228c:	4680      	mov	r8, r0
 800228e:	4689      	mov	r9, r1
 8002290:	f7fe fb94 	bl	80009bc <__aeabi_dcmplt>
 8002294:	b370      	cbz	r0, 80022f4 <main+0x764>
 8002296:	2200      	movs	r2, #0
 8002298:	4640      	mov	r0, r8
 800229a:	4649      	mov	r1, r9
 800229c:	4b13      	ldr	r3, [pc, #76]	; (80022ec <main+0x75c>)
 800229e:	f7fe fbab 	bl	80009f8 <__aeabi_dcmpgt>
 80022a2:	bb48      	cbnz	r0, 80022f8 <main+0x768>
 80022a4:	f04f 0800 	mov.w	r8, #0
 80022a8:	f8df 9040 	ldr.w	r9, [pc, #64]	; 80022ec <main+0x75c>
 80022ac:	e024      	b.n	80022f8 <main+0x768>
 80022ae:	bf00      	nop
 80022b0:	00000000 	.word	0x00000000
 80022b4:	40a32400 	.word	0x40a32400
 80022b8:	17919717 	.word	0x17919717
 80022bc:	40827335 	.word	0x40827335
 80022c0:	9999999a 	.word	0x9999999a
 80022c4:	4096a199 	.word	0x4096a199
 80022c8:	680c58d4 	.word	0x680c58d4
 80022cc:	4082d993 	.word	0x4082d993
 80022d0:	00000000 	.word	0x00000000
 80022d4:	40973400 	.word	0x40973400
 80022d8:	ea231ee9 	.word	0xea231ee9
 80022dc:	c082ccd7 	.word	0xc082ccd7
 80022e0:	55551c11 	.word	0x55551c11
 80022e4:	40975555 	.word	0x40975555
 80022e8:	40012c00 	.word	0x40012c00
 80022ec:	408f4000 	.word	0x408f4000
 80022f0:	40000400 	.word	0x40000400
 80022f4:	46d0      	mov	r8, sl
 80022f6:	46d9      	mov	r9, fp
 80022f8:	4640      	mov	r0, r8
 80022fa:	4649      	mov	r1, r9
 80022fc:	f005 fa64 	bl	80077c8 <round>
 8002300:	f7fe fbc2 	bl	8000a88 <__aeabi_d2uiz>
 8002304:	f04f 4380 	mov.w	r3, #1073741824	; 0x40000000
 8002308:	9f03      	ldr	r7, [sp, #12]
 800230a:	6358      	str	r0, [r3, #52]	; 0x34
 800230c:	4b9a      	ldr	r3, [pc, #616]	; (8002578 <main+0x9e8>)
 800230e:	7b1a      	ldrb	r2, [r3, #12]
 8002310:	2a78      	cmp	r2, #120	; 0x78
 8002312:	f47f ae1d 	bne.w	8001f50 <main+0x3c0>
 8002316:	7b5a      	ldrb	r2, [r3, #13]
 8002318:	2a78      	cmp	r2, #120	; 0x78
 800231a:	f47f ae19 	bne.w	8001f50 <main+0x3c0>
 800231e:	7b9b      	ldrb	r3, [r3, #14]
 8002320:	2b78      	cmp	r3, #120	; 0x78
 8002322:	f47f ae15 	bne.w	8001f50 <main+0x3c0>
 8002326:	4895      	ldr	r0, [pc, #596]	; (800257c <main+0x9ec>)
 8002328:	a952      	add	r1, sp, #328	; 0x148
 800232a:	f7ff fae9 	bl	8001900 <MPU6050_Read_All>
 800232e:	a384      	add	r3, pc, #528	; (adr r3, 8002540 <main+0x9b0>)
 8002330:	e9d3 2300 	ldrd	r2, r3, [r3]
 8002334:	e9dd 0164 	ldrd	r0, r1, [sp, #400]	; 0x190
 8002338:	f7fe f8ce 	bl	80004d8 <__aeabi_dmul>
 800233c:	2200      	movs	r2, #0
 800233e:	4b90      	ldr	r3, [pc, #576]	; (8002580 <main+0x9f0>)
 8002340:	f7fe f9f4 	bl	800072c <__aeabi_ddiv>
 8002344:	4602      	mov	r2, r0
 8002346:	460b      	mov	r3, r1
 8002348:	2000      	movs	r0, #0
 800234a:	2100      	movs	r1, #0
 800234c:	f7fd ff0c 	bl	8000168 <__aeabi_dsub>
 8002350:	f7fe fbba 	bl	8000ac8 <__aeabi_d2f>
 8002354:	f7fe f868 	bl	8000428 <__aeabi_f2d>
 8002358:	a37b      	add	r3, pc, #492	; (adr r3, 8002548 <main+0x9b8>)
 800235a:	e9d3 2300 	ldrd	r2, r3, [r3]
 800235e:	f7fe f8bb 	bl	80004d8 <__aeabi_dmul>
 8002362:	4680      	mov	r8, r0
 8002364:	4620      	mov	r0, r4
 8002366:	4689      	mov	r9, r1
 8002368:	f7fe f85e 	bl	8000428 <__aeabi_f2d>
 800236c:	4602      	mov	r2, r0
 800236e:	460b      	mov	r3, r1
 8002370:	4640      	mov	r0, r8
 8002372:	4649      	mov	r1, r9
 8002374:	f7fd fefa 	bl	800016c <__adddf3>
 8002378:	f7fe fba6 	bl	8000ac8 <__aeabi_d2f>
 800237c:	a370      	add	r3, pc, #448	; (adr r3, 8002540 <main+0x9b0>)
 800237e:	e9d3 2300 	ldrd	r2, r3, [r3]
 8002382:	4604      	mov	r4, r0
 8002384:	e9dd 0166 	ldrd	r0, r1, [sp, #408]	; 0x198
 8002388:	f7fe f8a6 	bl	80004d8 <__aeabi_dmul>
 800238c:	2200      	movs	r2, #0
 800238e:	4b7c      	ldr	r3, [pc, #496]	; (8002580 <main+0x9f0>)
 8002390:	f7fe f9cc 	bl	800072c <__aeabi_ddiv>
 8002394:	4602      	mov	r2, r0
 8002396:	460b      	mov	r3, r1
 8002398:	2000      	movs	r0, #0
 800239a:	2100      	movs	r1, #0
 800239c:	f7fd fee4 	bl	8000168 <__aeabi_dsub>
 80023a0:	f7fe fb92 	bl	8000ac8 <__aeabi_d2f>
 80023a4:	f7fe f840 	bl	8000428 <__aeabi_f2d>
 80023a8:	a367      	add	r3, pc, #412	; (adr r3, 8002548 <main+0x9b8>)
 80023aa:	e9d3 2300 	ldrd	r2, r3, [r3]
 80023ae:	f7fe f893 	bl	80004d8 <__aeabi_dmul>
 80023b2:	4680      	mov	r8, r0
 80023b4:	4630      	mov	r0, r6
 80023b6:	4689      	mov	r9, r1
 80023b8:	f7fe f836 	bl	8000428 <__aeabi_f2d>
 80023bc:	4602      	mov	r2, r0
 80023be:	460b      	mov	r3, r1
 80023c0:	4640      	mov	r0, r8
 80023c2:	4649      	mov	r1, r9
 80023c4:	f7fd fed2 	bl	800016c <__adddf3>
 80023c8:	f7fe fb7e 	bl	8000ac8 <__aeabi_d2f>
 80023cc:	2500      	movs	r5, #0
 80023ce:	4606      	mov	r6, r0
 80023d0:	9703      	str	r7, [sp, #12]
 80023d2:	4620      	mov	r0, r4
 80023d4:	f7fe f828 	bl	8000428 <__aeabi_f2d>
 80023d8:	a35d      	add	r3, pc, #372	; (adr r3, 8002550 <main+0x9c0>)
 80023da:	e9d3 2300 	ldrd	r2, r3, [r3]
 80023de:	4680      	mov	r8, r0
 80023e0:	4689      	mov	r9, r1
 80023e2:	f7fe fb09 	bl	80009f8 <__aeabi_dcmpgt>
 80023e6:	2800      	cmp	r0, #0
 80023e8:	f47f ae29 	bne.w	800203e <main+0x4ae>
 80023ec:	a35a      	add	r3, pc, #360	; (adr r3, 8002558 <main+0x9c8>)
 80023ee:	e9d3 2300 	ldrd	r2, r3, [r3]
 80023f2:	4640      	mov	r0, r8
 80023f4:	4649      	mov	r1, r9
 80023f6:	f7fe fae1 	bl	80009bc <__aeabi_dcmplt>
 80023fa:	b100      	cbz	r0, 80023fe <main+0x86e>
 80023fc:	4c61      	ldr	r4, [pc, #388]	; (8002584 <main+0x9f4>)
 80023fe:	4630      	mov	r0, r6
 8002400:	f7fe f812 	bl	8000428 <__aeabi_f2d>
 8002404:	a352      	add	r3, pc, #328	; (adr r3, 8002550 <main+0x9c0>)
 8002406:	e9d3 2300 	ldrd	r2, r3, [r3]
 800240a:	4680      	mov	r8, r0
 800240c:	4689      	mov	r9, r1
 800240e:	f7fe faf3 	bl	80009f8 <__aeabi_dcmpgt>
 8002412:	2800      	cmp	r0, #0
 8002414:	f47f ae15 	bne.w	8002042 <main+0x4b2>
 8002418:	a34f      	add	r3, pc, #316	; (adr r3, 8002558 <main+0x9c8>)
 800241a:	e9d3 2300 	ldrd	r2, r3, [r3]
 800241e:	4640      	mov	r0, r8
 8002420:	4649      	mov	r1, r9
 8002422:	f7fe facb 	bl	80009bc <__aeabi_dcmplt>
 8002426:	b100      	cbz	r0, 800242a <main+0x89a>
 8002428:	4e56      	ldr	r6, [pc, #344]	; (8002584 <main+0x9f4>)
 800242a:	af29      	add	r7, sp, #164	; 0xa4
 800242c:	ab0e      	add	r3, sp, #56	; 0x38
 800242e:	4632      	mov	r2, r6
 8002430:	4629      	mov	r1, r5
 8002432:	4620      	mov	r0, r4
 8002434:	9701      	str	r7, [sp, #4]
 8002436:	9300      	str	r3, [sp, #0]
 8002438:	ab4b      	add	r3, sp, #300	; 0x12c
 800243a:	f7fe ffc9 	bl	80013d0 <roto_translation>
 800243e:	4639      	mov	r1, r7
 8002440:	2772      	movs	r7, #114	; 0x72
 8002442:	aa2c      	add	r2, sp, #176	; 0xb0
 8002444:	a811      	add	r0, sp, #68	; 0x44
 8002446:	f7ff f91f 	bl	8001688 <subtract>
 800244a:	ab26      	add	r3, sp, #152	; 0x98
 800244c:	4a4e      	ldr	r2, [pc, #312]	; (8002588 <main+0x9f8>)
 800244e:	494f      	ldr	r1, [pc, #316]	; (800258c <main+0x9fc>)
 8002450:	9301      	str	r3, [sp, #4]
 8002452:	9700      	str	r7, [sp, #0]
 8002454:	4b4e      	ldr	r3, [pc, #312]	; (8002590 <main+0xa00>)
 8002456:	a82c      	add	r0, sp, #176	; 0xb0
 8002458:	f7fe fec4 	bl	80011e4 <inverse_kinematics>
 800245c:	f10d 08c8 	add.w	r8, sp, #200	; 0xc8
 8002460:	ab14      	add	r3, sp, #80	; 0x50
 8002462:	4632      	mov	r2, r6
 8002464:	4629      	mov	r1, r5
 8002466:	4620      	mov	r0, r4
 8002468:	f8cd 8004 	str.w	r8, [sp, #4]
 800246c:	9300      	str	r3, [sp, #0]
 800246e:	ab4b      	add	r3, sp, #300	; 0x12c
 8002470:	f7fe ffae 	bl	80013d0 <roto_translation>
 8002474:	4641      	mov	r1, r8
 8002476:	aa35      	add	r2, sp, #212	; 0xd4
 8002478:	a817      	add	r0, sp, #92	; 0x5c
 800247a:	f7ff f905 	bl	8001688 <subtract>
 800247e:	ab2f      	add	r3, sp, #188	; 0xbc
 8002480:	e9cd 7300 	strd	r7, r3, [sp]
 8002484:	4a40      	ldr	r2, [pc, #256]	; (8002588 <main+0x9f8>)
 8002486:	4b42      	ldr	r3, [pc, #264]	; (8002590 <main+0xa00>)
 8002488:	4940      	ldr	r1, [pc, #256]	; (800258c <main+0x9fc>)
 800248a:	a835      	add	r0, sp, #212	; 0xd4
 800248c:	f7fe feaa 	bl	80011e4 <inverse_kinematics>
 8002490:	af3b      	add	r7, sp, #236	; 0xec
 8002492:	ab1a      	add	r3, sp, #104	; 0x68
 8002494:	4632      	mov	r2, r6
 8002496:	4629      	mov	r1, r5
 8002498:	4620      	mov	r0, r4
 800249a:	9701      	str	r7, [sp, #4]
 800249c:	9300      	str	r3, [sp, #0]
 800249e:	ab4b      	add	r3, sp, #300	; 0x12c
 80024a0:	f7fe ff96 	bl	80013d0 <roto_translation>
 80024a4:	4639      	mov	r1, r7
 80024a6:	276c      	movs	r7, #108	; 0x6c
 80024a8:	aa3e      	add	r2, sp, #248	; 0xf8
 80024aa:	a81d      	add	r0, sp, #116	; 0x74
 80024ac:	f7ff f8ec 	bl	8001688 <subtract>
 80024b0:	ab38      	add	r3, sp, #224	; 0xe0
 80024b2:	4a35      	ldr	r2, [pc, #212]	; (8002588 <main+0x9f8>)
 80024b4:	4935      	ldr	r1, [pc, #212]	; (800258c <main+0x9fc>)
 80024b6:	9301      	str	r3, [sp, #4]
 80024b8:	a83e      	add	r0, sp, #248	; 0xf8
 80024ba:	4b35      	ldr	r3, [pc, #212]	; (8002590 <main+0xa00>)
 80024bc:	9700      	str	r7, [sp, #0]
 80024be:	f7fe fe91 	bl	80011e4 <inverse_kinematics>
 80024c2:	f50d 7888 	add.w	r8, sp, #272	; 0x110
 80024c6:	ab20      	add	r3, sp, #128	; 0x80
 80024c8:	4632      	mov	r2, r6
 80024ca:	4629      	mov	r1, r5
 80024cc:	4620      	mov	r0, r4
 80024ce:	f8cd 8004 	str.w	r8, [sp, #4]
 80024d2:	9300      	str	r3, [sp, #0]
 80024d4:	ab4b      	add	r3, sp, #300	; 0x12c
 80024d6:	f7fe ff7b 	bl	80013d0 <roto_translation>
 80024da:	4641      	mov	r1, r8
 80024dc:	aa47      	add	r2, sp, #284	; 0x11c
 80024de:	a823      	add	r0, sp, #140	; 0x8c
 80024e0:	f7ff f8d2 	bl	8001688 <subtract>
 80024e4:	ab41      	add	r3, sp, #260	; 0x104
 80024e6:	4a28      	ldr	r2, [pc, #160]	; (8002588 <main+0x9f8>)
 80024e8:	e9cd 7300 	strd	r7, r3, [sp]
 80024ec:	4927      	ldr	r1, [pc, #156]	; (800258c <main+0x9fc>)
 80024ee:	4b28      	ldr	r3, [pc, #160]	; (8002590 <main+0xa00>)
 80024f0:	a847      	add	r0, sp, #284	; 0x11c
 80024f2:	f7fe fe77 	bl	80011e4 <inverse_kinematics>
 80024f6:	9842      	ldr	r0, [sp, #264]	; 0x108
 80024f8:	f7fd ff96 	bl	8000428 <__aeabi_f2d>
 80024fc:	a318      	add	r3, pc, #96	; (adr r3, 8002560 <main+0x9d0>)
 80024fe:	e9d3 2300 	ldrd	r2, r3, [r3]
 8002502:	f7fd ffe9 	bl	80004d8 <__aeabi_dmul>
 8002506:	a318      	add	r3, pc, #96	; (adr r3, 8002568 <main+0x9d8>)
 8002508:	e9d3 2300 	ldrd	r2, r3, [r3]
 800250c:	f7fd fe2e 	bl	800016c <__adddf3>
 8002510:	a317      	add	r3, pc, #92	; (adr r3, 8002570 <main+0x9e0>)
 8002512:	e9d3 2300 	ldrd	r2, r3, [r3]
 8002516:	4680      	mov	r8, r0
 8002518:	4689      	mov	r9, r1
 800251a:	f7fe fa4f 	bl	80009bc <__aeabi_dcmplt>
 800251e:	2800      	cmp	r0, #0
 8002520:	f43f ad91 	beq.w	8002046 <main+0x4b6>
 8002524:	2200      	movs	r2, #0
 8002526:	4640      	mov	r0, r8
 8002528:	4649      	mov	r1, r9
 800252a:	4b1a      	ldr	r3, [pc, #104]	; (8002594 <main+0xa04>)
 800252c:	f7fe fa64 	bl	80009f8 <__aeabi_dcmpgt>
 8002530:	2800      	cmp	r0, #0
 8002532:	f47f ad8c 	bne.w	800204e <main+0x4be>
 8002536:	f04f 0800 	mov.w	r8, #0
 800253a:	f8df 9058 	ldr.w	r9, [pc, #88]	; 8002594 <main+0xa04>
 800253e:	e586      	b.n	800204e <main+0x4be>
 8002540:	54442d18 	.word	0x54442d18
 8002544:	400921fb 	.word	0x400921fb
 8002548:	eb851eb8 	.word	0xeb851eb8
 800254c:	3f9eb851 	.word	0x3f9eb851
 8002550:	33333333 	.word	0x33333333
 8002554:	3fd33333 	.word	0x3fd33333
 8002558:	33333333 	.word	0x33333333
 800255c:	bfd33333 	.word	0xbfd33333
 8002560:	d53e0a7d 	.word	0xd53e0a7d
 8002564:	c0834c2a 	.word	0xc0834c2a
 8002568:	00000000 	.word	0x00000000
 800256c:	40913000 	.word	0x40913000
 8002570:	00000000 	.word	0x00000000
 8002574:	40a32400 	.word	0x40a32400
 8002578:	20000090 	.word	0x20000090
 800257c:	200002b0 	.word	0x200002b0
 8002580:	40668000 	.word	0x40668000
 8002584:	be99999a 	.word	0xbe99999a
 8002588:	429c0000 	.word	0x429c0000
 800258c:	42340000 	.word	0x42340000
 8002590:	429a0000 	.word	0x429a0000
 8002594:	4082c000 	.word	0x4082c000
 8002598:	4b20      	ldr	r3, [pc, #128]	; (800261c <main+0xa8c>)
 800259a:	4e21      	ldr	r6, [pc, #132]	; (8002620 <main+0xa90>)
 800259c:	ac0e      	add	r4, sp, #56	; 0x38
 800259e:	e893 0007 	ldmia.w	r3, {r0, r1, r2}
 80025a2:	ad14      	add	r5, sp, #80	; 0x50
 80025a4:	e884 0007 	stmia.w	r4, {r0, r1, r2}
 80025a8:	f103 020c 	add.w	r2, r3, #12
 80025ac:	4c1d      	ldr	r4, [pc, #116]	; (8002624 <main+0xa94>)
 80025ae:	ca07      	ldmia	r2, {r0, r1, r2}
 80025b0:	4f1d      	ldr	r7, [pc, #116]	; (8002628 <main+0xa98>)
 80025b2:	e885 0007 	stmia.w	r5, {r0, r1, r2}
 80025b6:	f8df c078 	ldr.w	ip, [pc, #120]	; 8002630 <main+0xaa0>
 80025ba:	f103 0218 	add.w	r2, r3, #24
 80025be:	9611      	str	r6, [sp, #68]	; 0x44
 80025c0:	ad1a      	add	r5, sp, #104	; 0x68
 80025c2:	961d      	str	r6, [sp, #116]	; 0x74
 80025c4:	4e19      	ldr	r6, [pc, #100]	; (800262c <main+0xa9c>)
 80025c6:	ca07      	ldmia	r2, {r0, r1, r2}
 80025c8:	e885 0007 	stmia.w	r5, {r0, r1, r2}
 80025cc:	f103 0224 	add.w	r2, r3, #36	; 0x24
 80025d0:	ad20      	add	r5, sp, #128	; 0x80
 80025d2:	9412      	str	r4, [sp, #72]	; 0x48
 80025d4:	9717      	str	r7, [sp, #92]	; 0x5c
 80025d6:	9418      	str	r4, [sp, #96]	; 0x60
 80025d8:	941e      	str	r4, [sp, #120]	; 0x78
 80025da:	961f      	str	r6, [sp, #124]	; 0x7c
 80025dc:	ca07      	ldmia	r2, {r0, r1, r2}
 80025de:	f8cd c04c 	str.w	ip, [sp, #76]	; 0x4c
 80025e2:	f8cd c064 	str.w	ip, [sp, #100]	; 0x64
 80025e6:	e885 0007 	stmia.w	r5, {r0, r1, r2}
 80025ea:	9723      	str	r7, [sp, #140]	; 0x8c
 80025ec:	2700      	movs	r7, #0
 80025ee:	f853 0f30 	ldr.w	r0, [r3, #48]!
 80025f2:	9424      	str	r4, [sp, #144]	; 0x90
 80025f4:	791b      	ldrb	r3, [r3, #4]
 80025f6:	9625      	str	r6, [sp, #148]	; 0x94
 80025f8:	463d      	mov	r5, r7
 80025fa:	463e      	mov	r6, r7
 80025fc:	463c      	mov	r4, r7
 80025fe:	f04f 0a00 	mov.w	sl, #0
 8002602:	f8df b030 	ldr.w	fp, [pc, #48]	; 8002634 <main+0xaa4>
 8002606:	974b      	str	r7, [sp, #300]	; 0x12c
 8002608:	974c      	str	r7, [sp, #304]	; 0x130
 800260a:	974d      	str	r7, [sp, #308]	; 0x134
 800260c:	900a      	str	r0, [sp, #40]	; 0x28
 800260e:	f88d 302c 	strb.w	r3, [sp, #44]	; 0x2c
 8002612:	900c      	str	r0, [sp, #48]	; 0x30
 8002614:	f88d 3034 	strb.w	r3, [sp, #52]	; 0x34
 8002618:	e678      	b.n	800230c <main+0x77c>
 800261a:	bf00      	nop
 800261c:	08008bc8 	.word	0x08008bc8
 8002620:	42960000 	.word	0x42960000
 8002624:	c2dc0000 	.word	0xc2dc0000
 8002628:	c2960000 	.word	0xc2960000
 800262c:	c2b40000 	.word	0xc2b40000
 8002630:	42b40000 	.word	0x42b40000
 8002634:	409f4000 	.word	0x409f4000

08002638 <HAL_UART_RxCpltCallback>:
 8002638:	220f      	movs	r2, #15
 800263a:	4902      	ldr	r1, [pc, #8]	; (8002644 <HAL_UART_RxCpltCallback+0xc>)
 800263c:	4802      	ldr	r0, [pc, #8]	; (8002648 <HAL_UART_RxCpltCallback+0x10>)
 800263e:	f002 b842 	b.w	80046c6 <HAL_UART_Receive_IT>
 8002642:	bf00      	nop
 8002644:	20000090 	.word	0x20000090
 8002648:	200003dc 	.word	0x200003dc

0800264c <HAL_UART_TxCpltCallback>:
 800264c:	bf00      	nop
 800264e:	4770      	bx	lr

08002650 <HAL_MspInit>:
 8002650:	4b0e      	ldr	r3, [pc, #56]	; (800268c <HAL_MspInit+0x3c>)
 8002652:	b082      	sub	sp, #8
 8002654:	699a      	ldr	r2, [r3, #24]
 8002656:	f042 0201 	orr.w	r2, r2, #1
 800265a:	619a      	str	r2, [r3, #24]
 800265c:	699a      	ldr	r2, [r3, #24]
 800265e:	f002 0201 	and.w	r2, r2, #1
 8002662:	9200      	str	r2, [sp, #0]
 8002664:	9a00      	ldr	r2, [sp, #0]
 8002666:	69da      	ldr	r2, [r3, #28]
 8002668:	f042 5280 	orr.w	r2, r2, #268435456	; 0x10000000
 800266c:	61da      	str	r2, [r3, #28]
 800266e:	69db      	ldr	r3, [r3, #28]
 8002670:	4a07      	ldr	r2, [pc, #28]	; (8002690 <HAL_MspInit+0x40>)
 8002672:	f003 5380 	and.w	r3, r3, #268435456	; 0x10000000
 8002676:	9301      	str	r3, [sp, #4]
 8002678:	9b01      	ldr	r3, [sp, #4]
 800267a:	6853      	ldr	r3, [r2, #4]
 800267c:	f023 63e0 	bic.w	r3, r3, #117440512	; 0x7000000
 8002680:	f043 7300 	orr.w	r3, r3, #33554432	; 0x2000000
 8002684:	6053      	str	r3, [r2, #4]
 8002686:	b002      	add	sp, #8
 8002688:	4770      	bx	lr
 800268a:	bf00      	nop
 800268c:	40021000 	.word	0x40021000
 8002690:	40010000 	.word	0x40010000

08002694 <HAL_I2C_MspInit>:
 8002694:	b510      	push	{r4, lr}
 8002696:	4604      	mov	r4, r0
 8002698:	b086      	sub	sp, #24
 800269a:	2210      	movs	r2, #16
 800269c:	2100      	movs	r1, #0
 800269e:	a802      	add	r0, sp, #8
 80026a0:	f002 f856 	bl	8004750 <memset>
 80026a4:	6822      	ldr	r2, [r4, #0]
 80026a6:	4b11      	ldr	r3, [pc, #68]	; (80026ec <HAL_I2C_MspInit+0x58>)
 80026a8:	429a      	cmp	r2, r3
 80026aa:	d11c      	bne.n	80026e6 <HAL_I2C_MspInit+0x52>
 80026ac:	4c10      	ldr	r4, [pc, #64]	; (80026f0 <HAL_I2C_MspInit+0x5c>)
 80026ae:	22c0      	movs	r2, #192	; 0xc0
 80026b0:	69a3      	ldr	r3, [r4, #24]
 80026b2:	4810      	ldr	r0, [pc, #64]	; (80026f4 <HAL_I2C_MspInit+0x60>)
 80026b4:	f043 0308 	orr.w	r3, r3, #8
 80026b8:	61a3      	str	r3, [r4, #24]
 80026ba:	69a3      	ldr	r3, [r4, #24]
 80026bc:	a902      	add	r1, sp, #8
 80026be:	f003 0308 	and.w	r3, r3, #8
 80026c2:	9300      	str	r3, [sp, #0]
 80026c4:	9b00      	ldr	r3, [sp, #0]
 80026c6:	2312      	movs	r3, #18
 80026c8:	e9cd 2302 	strd	r2, r3, [sp, #8]
 80026cc:	2303      	movs	r3, #3
 80026ce:	9305      	str	r3, [sp, #20]
 80026d0:	f000 fae0 	bl	8002c94 <HAL_GPIO_Init>
 80026d4:	69e3      	ldr	r3, [r4, #28]
 80026d6:	f443 1300 	orr.w	r3, r3, #2097152	; 0x200000
 80026da:	61e3      	str	r3, [r4, #28]
 80026dc:	69e3      	ldr	r3, [r4, #28]
 80026de:	f403 1300 	and.w	r3, r3, #2097152	; 0x200000
 80026e2:	9301      	str	r3, [sp, #4]
 80026e4:	9b01      	ldr	r3, [sp, #4]
 80026e6:	b006      	add	sp, #24
 80026e8:	bd10      	pop	{r4, pc}
 80026ea:	bf00      	nop
 80026ec:	40005400 	.word	0x40005400
 80026f0:	40021000 	.word	0x40021000
 80026f4:	40010c00 	.word	0x40010c00

080026f8 <HAL_I2C_MspDeInit>:
 80026f8:	b508      	push	{r3, lr}
 80026fa:	6802      	ldr	r2, [r0, #0]
 80026fc:	4b09      	ldr	r3, [pc, #36]	; (8002724 <HAL_I2C_MspDeInit+0x2c>)
 80026fe:	429a      	cmp	r2, r3
 8002700:	d10e      	bne.n	8002720 <HAL_I2C_MspDeInit+0x28>
 8002702:	4a09      	ldr	r2, [pc, #36]	; (8002728 <HAL_I2C_MspDeInit+0x30>)
 8002704:	2140      	movs	r1, #64	; 0x40
 8002706:	69d3      	ldr	r3, [r2, #28]
 8002708:	4808      	ldr	r0, [pc, #32]	; (800272c <HAL_I2C_MspDeInit+0x34>)
 800270a:	f423 1300 	bic.w	r3, r3, #2097152	; 0x200000
 800270e:	61d3      	str	r3, [r2, #28]
 8002710:	f000 fb9c 	bl	8002e4c <HAL_GPIO_DeInit>
 8002714:	e8bd 4008 	ldmia.w	sp!, {r3, lr}
 8002718:	2180      	movs	r1, #128	; 0x80
 800271a:	4804      	ldr	r0, [pc, #16]	; (800272c <HAL_I2C_MspDeInit+0x34>)
 800271c:	f000 bb96 	b.w	8002e4c <HAL_GPIO_DeInit>
 8002720:	bd08      	pop	{r3, pc}
 8002722:	bf00      	nop
 8002724:	40005400 	.word	0x40005400
 8002728:	40021000 	.word	0x40021000
 800272c:	40010c00 	.word	0x40010c00

08002730 <HAL_TIM_Base_MspInit>:
 8002730:	6803      	ldr	r3, [r0, #0]
 8002732:	4a16      	ldr	r2, [pc, #88]	; (800278c <HAL_TIM_Base_MspInit+0x5c>)
 8002734:	b084      	sub	sp, #16
 8002736:	4293      	cmp	r3, r2
 8002738:	d10b      	bne.n	8002752 <HAL_TIM_Base_MspInit+0x22>
 800273a:	4b15      	ldr	r3, [pc, #84]	; (8002790 <HAL_TIM_Base_MspInit+0x60>)
 800273c:	699a      	ldr	r2, [r3, #24]
 800273e:	f442 6200 	orr.w	r2, r2, #2048	; 0x800
 8002742:	619a      	str	r2, [r3, #24]
 8002744:	699b      	ldr	r3, [r3, #24]
 8002746:	f403 6300 	and.w	r3, r3, #2048	; 0x800
 800274a:	9301      	str	r3, [sp, #4]
 800274c:	9b01      	ldr	r3, [sp, #4]
 800274e:	b004      	add	sp, #16
 8002750:	4770      	bx	lr
 8002752:	f1b3 4f80 	cmp.w	r3, #1073741824	; 0x40000000
 8002756:	d10b      	bne.n	8002770 <HAL_TIM_Base_MspInit+0x40>
 8002758:	f503 3304 	add.w	r3, r3, #135168	; 0x21000
 800275c:	69da      	ldr	r2, [r3, #28]
 800275e:	f042 0201 	orr.w	r2, r2, #1
 8002762:	61da      	str	r2, [r3, #28]
 8002764:	69db      	ldr	r3, [r3, #28]
 8002766:	f003 0301 	and.w	r3, r3, #1
 800276a:	9302      	str	r3, [sp, #8]
 800276c:	9b02      	ldr	r3, [sp, #8]
 800276e:	e7ee      	b.n	800274e <HAL_TIM_Base_MspInit+0x1e>
 8002770:	4a08      	ldr	r2, [pc, #32]	; (8002794 <HAL_TIM_Base_MspInit+0x64>)
 8002772:	4293      	cmp	r3, r2
 8002774:	d1eb      	bne.n	800274e <HAL_TIM_Base_MspInit+0x1e>
 8002776:	4b06      	ldr	r3, [pc, #24]	; (8002790 <HAL_TIM_Base_MspInit+0x60>)
 8002778:	69da      	ldr	r2, [r3, #28]
 800277a:	f042 0202 	orr.w	r2, r2, #2
 800277e:	61da      	str	r2, [r3, #28]
 8002780:	69db      	ldr	r3, [r3, #28]
 8002782:	f003 0302 	and.w	r3, r3, #2
 8002786:	9303      	str	r3, [sp, #12]
 8002788:	9b03      	ldr	r3, [sp, #12]
 800278a:	e7e0      	b.n	800274e <HAL_TIM_Base_MspInit+0x1e>
 800278c:	40012c00 	.word	0x40012c00
 8002790:	40021000 	.word	0x40021000
 8002794:	40000400 	.word	0x40000400

08002798 <HAL_TIM_MspPostInit>:
 8002798:	b510      	push	{r4, lr}
 800279a:	4604      	mov	r4, r0
 800279c:	b08a      	sub	sp, #40	; 0x28
 800279e:	2210      	movs	r2, #16
 80027a0:	2100      	movs	r1, #0
 80027a2:	a806      	add	r0, sp, #24
 80027a4:	f001 ffd4 	bl	8004750 <memset>
 80027a8:	6823      	ldr	r3, [r4, #0]
 80027aa:	4a39      	ldr	r2, [pc, #228]	; (8002890 <HAL_TIM_MspPostInit+0xf8>)
 80027ac:	4293      	cmp	r3, r2
 80027ae:	d114      	bne.n	80027da <HAL_TIM_MspPostInit+0x42>
 80027b0:	4b38      	ldr	r3, [pc, #224]	; (8002894 <HAL_TIM_MspPostInit+0xfc>)
 80027b2:	4839      	ldr	r0, [pc, #228]	; (8002898 <HAL_TIM_MspPostInit+0x100>)
 80027b4:	699a      	ldr	r2, [r3, #24]
 80027b6:	a906      	add	r1, sp, #24
 80027b8:	f042 0204 	orr.w	r2, r2, #4
 80027bc:	619a      	str	r2, [r3, #24]
 80027be:	699b      	ldr	r3, [r3, #24]
 80027c0:	f44f 6270 	mov.w	r2, #3840	; 0xf00
 80027c4:	f003 0304 	and.w	r3, r3, #4
 80027c8:	9301      	str	r3, [sp, #4]
 80027ca:	9b01      	ldr	r3, [sp, #4]
 80027cc:	2302      	movs	r3, #2
 80027ce:	e9cd 2306 	strd	r2, r3, [sp, #24]
 80027d2:	9309      	str	r3, [sp, #36]	; 0x24
 80027d4:	f000 fa5e 	bl	8002c94 <HAL_GPIO_Init>
 80027d8:	e031      	b.n	800283e <HAL_TIM_MspPostInit+0xa6>
 80027da:	f1b3 4f80 	cmp.w	r3, #1073741824	; 0x40000000
 80027de:	d130      	bne.n	8002842 <HAL_TIM_MspPostInit+0xaa>
 80027e0:	f503 3304 	add.w	r3, r3, #135168	; 0x21000
 80027e4:	699a      	ldr	r2, [r3, #24]
 80027e6:	2402      	movs	r4, #2
 80027e8:	f042 0204 	orr.w	r2, r2, #4
 80027ec:	619a      	str	r2, [r3, #24]
 80027ee:	699a      	ldr	r2, [r3, #24]
 80027f0:	4829      	ldr	r0, [pc, #164]	; (8002898 <HAL_TIM_MspPostInit+0x100>)
 80027f2:	f002 0204 	and.w	r2, r2, #4
 80027f6:	9202      	str	r2, [sp, #8]
 80027f8:	9a02      	ldr	r2, [sp, #8]
 80027fa:	699a      	ldr	r2, [r3, #24]
 80027fc:	a906      	add	r1, sp, #24
 80027fe:	f042 0208 	orr.w	r2, r2, #8
 8002802:	619a      	str	r2, [r3, #24]
 8002804:	699b      	ldr	r3, [r3, #24]
 8002806:	9409      	str	r4, [sp, #36]	; 0x24
 8002808:	f003 0308 	and.w	r3, r3, #8
 800280c:	9303      	str	r3, [sp, #12]
 800280e:	9b03      	ldr	r3, [sp, #12]
 8002810:	2303      	movs	r3, #3
 8002812:	e9cd 3406 	strd	r3, r4, [sp, #24]
 8002816:	f000 fa3d 	bl	8002c94 <HAL_GPIO_Init>
 800281a:	f44f 6340 	mov.w	r3, #3072	; 0xc00
 800281e:	481f      	ldr	r0, [pc, #124]	; (800289c <HAL_TIM_MspPostInit+0x104>)
 8002820:	a906      	add	r1, sp, #24
 8002822:	e9cd 3406 	strd	r3, r4, [sp, #24]
 8002826:	9409      	str	r4, [sp, #36]	; 0x24
 8002828:	f000 fa34 	bl	8002c94 <HAL_GPIO_Init>
 800282c:	4a1c      	ldr	r2, [pc, #112]	; (80028a0 <HAL_TIM_MspPostInit+0x108>)
 800282e:	6853      	ldr	r3, [r2, #4]
 8002830:	f423 7340 	bic.w	r3, r3, #768	; 0x300
 8002834:	f043 63e0 	orr.w	r3, r3, #117440512	; 0x7000000
 8002838:	f443 7300 	orr.w	r3, r3, #512	; 0x200
 800283c:	6053      	str	r3, [r2, #4]
 800283e:	b00a      	add	sp, #40	; 0x28
 8002840:	bd10      	pop	{r4, pc}
 8002842:	4a18      	ldr	r2, [pc, #96]	; (80028a4 <HAL_TIM_MspPostInit+0x10c>)
 8002844:	4293      	cmp	r3, r2
 8002846:	d1fa      	bne.n	800283e <HAL_TIM_MspPostInit+0xa6>
 8002848:	4b12      	ldr	r3, [pc, #72]	; (8002894 <HAL_TIM_MspPostInit+0xfc>)
 800284a:	2402      	movs	r4, #2
 800284c:	699a      	ldr	r2, [r3, #24]
 800284e:	4812      	ldr	r0, [pc, #72]	; (8002898 <HAL_TIM_MspPostInit+0x100>)
 8002850:	f042 0204 	orr.w	r2, r2, #4
 8002854:	619a      	str	r2, [r3, #24]
 8002856:	699a      	ldr	r2, [r3, #24]
 8002858:	a906      	add	r1, sp, #24
 800285a:	f002 0204 	and.w	r2, r2, #4
 800285e:	9204      	str	r2, [sp, #16]
 8002860:	9a04      	ldr	r2, [sp, #16]
 8002862:	699a      	ldr	r2, [r3, #24]
 8002864:	f042 0208 	orr.w	r2, r2, #8
 8002868:	619a      	str	r2, [r3, #24]
 800286a:	699b      	ldr	r3, [r3, #24]
 800286c:	9409      	str	r4, [sp, #36]	; 0x24
 800286e:	f003 0308 	and.w	r3, r3, #8
 8002872:	9305      	str	r3, [sp, #20]
 8002874:	9b05      	ldr	r3, [sp, #20]
 8002876:	23c0      	movs	r3, #192	; 0xc0
 8002878:	e9cd 3406 	strd	r3, r4, [sp, #24]
 800287c:	f000 fa0a 	bl	8002c94 <HAL_GPIO_Init>
 8002880:	2303      	movs	r3, #3
 8002882:	4806      	ldr	r0, [pc, #24]	; (800289c <HAL_TIM_MspPostInit+0x104>)
 8002884:	e9cd 3406 	strd	r3, r4, [sp, #24]
 8002888:	9409      	str	r4, [sp, #36]	; 0x24
 800288a:	a906      	add	r1, sp, #24
 800288c:	e7a2      	b.n	80027d4 <HAL_TIM_MspPostInit+0x3c>
 800288e:	bf00      	nop
 8002890:	40012c00 	.word	0x40012c00
 8002894:	40021000 	.word	0x40021000
 8002898:	40010800 	.word	0x40010800
 800289c:	40010c00 	.word	0x40010c00
 80028a0:	40010000 	.word	0x40010000
 80028a4:	40000400 	.word	0x40000400

080028a8 <HAL_UART_MspInit>:
 80028a8:	b510      	push	{r4, lr}
 80028aa:	4604      	mov	r4, r0
 80028ac:	b086      	sub	sp, #24
 80028ae:	2210      	movs	r2, #16
 80028b0:	2100      	movs	r1, #0
 80028b2:	a802      	add	r0, sp, #8
 80028b4:	f001 ff4c 	bl	8004750 <memset>
 80028b8:	6822      	ldr	r2, [r4, #0]
 80028ba:	4b1a      	ldr	r3, [pc, #104]	; (8002924 <HAL_UART_MspInit+0x7c>)
 80028bc:	429a      	cmp	r2, r3
 80028be:	d12f      	bne.n	8002920 <HAL_UART_MspInit+0x78>
 80028c0:	f503 33e6 	add.w	r3, r3, #117760	; 0x1cc00
 80028c4:	69da      	ldr	r2, [r3, #28]
 80028c6:	4818      	ldr	r0, [pc, #96]	; (8002928 <HAL_UART_MspInit+0x80>)
 80028c8:	f442 3200 	orr.w	r2, r2, #131072	; 0x20000
 80028cc:	61da      	str	r2, [r3, #28]
 80028ce:	69da      	ldr	r2, [r3, #28]
 80028d0:	a902      	add	r1, sp, #8
 80028d2:	f402 3200 	and.w	r2, r2, #131072	; 0x20000
 80028d6:	9200      	str	r2, [sp, #0]
 80028d8:	9a00      	ldr	r2, [sp, #0]
 80028da:	699a      	ldr	r2, [r3, #24]
 80028dc:	2400      	movs	r4, #0
 80028de:	f042 0204 	orr.w	r2, r2, #4
 80028e2:	619a      	str	r2, [r3, #24]
 80028e4:	699b      	ldr	r3, [r3, #24]
 80028e6:	2204      	movs	r2, #4
 80028e8:	f003 0304 	and.w	r3, r3, #4
 80028ec:	9301      	str	r3, [sp, #4]
 80028ee:	9b01      	ldr	r3, [sp, #4]
 80028f0:	2302      	movs	r3, #2
 80028f2:	e9cd 2302 	strd	r2, r3, [sp, #8]
 80028f6:	2303      	movs	r3, #3
 80028f8:	9305      	str	r3, [sp, #20]
 80028fa:	f000 f9cb 	bl	8002c94 <HAL_GPIO_Init>
 80028fe:	2308      	movs	r3, #8
 8002900:	4809      	ldr	r0, [pc, #36]	; (8002928 <HAL_UART_MspInit+0x80>)
 8002902:	eb0d 0103 	add.w	r1, sp, r3
 8002906:	e9cd 3402 	strd	r3, r4, [sp, #8]
 800290a:	9404      	str	r4, [sp, #16]
 800290c:	f000 f9c2 	bl	8002c94 <HAL_GPIO_Init>
 8002910:	2026      	movs	r0, #38	; 0x26
 8002912:	4622      	mov	r2, r4
 8002914:	4621      	mov	r1, r4
 8002916:	f000 f903 	bl	8002b20 <HAL_NVIC_SetPriority>
 800291a:	2026      	movs	r0, #38	; 0x26
 800291c:	f000 f932 	bl	8002b84 <HAL_NVIC_EnableIRQ>
 8002920:	b006      	add	sp, #24
 8002922:	bd10      	pop	{r4, pc}
 8002924:	40004400 	.word	0x40004400
 8002928:	40010800 	.word	0x40010800

0800292c <NMI_Handler>:
 800292c:	e7fe      	b.n	800292c <NMI_Handler>

0800292e <HardFault_Handler>:
 800292e:	e7fe      	b.n	800292e <HardFault_Handler>

08002930 <MemManage_Handler>:
 8002930:	e7fe      	b.n	8002930 <MemManage_Handler>

08002932 <BusFault_Handler>:
 8002932:	e7fe      	b.n	8002932 <BusFault_Handler>

08002934 <UsageFault_Handler>:
 8002934:	e7fe      	b.n	8002934 <UsageFault_Handler>

08002936 <SVC_Handler>:
 8002936:	4770      	bx	lr

08002938 <DebugMon_Handler>:
 8002938:	4770      	bx	lr

0800293a <PendSV_Handler>:
 800293a:	4770      	bx	lr

0800293c <SysTick_Handler>:
 800293c:	f000 b8ba 	b.w	8002ab4 <HAL_IncTick>

08002940 <USART2_IRQHandler>:
 8002940:	4801      	ldr	r0, [pc, #4]	; (8002948 <USART2_IRQHandler+0x8>)
 8002942:	f001 bda7 	b.w	8004494 <HAL_UART_IRQHandler>
 8002946:	bf00      	nop
 8002948:	200003dc 	.word	0x200003dc

0800294c <_getpid>:
 800294c:	2001      	movs	r0, #1
 800294e:	4770      	bx	lr

08002950 <_kill>:
 8002950:	b508      	push	{r3, lr}
 8002952:	f001 fed3 	bl	80046fc <__errno>
 8002956:	2316      	movs	r3, #22
 8002958:	6003      	str	r3, [r0, #0]
 800295a:	f04f 30ff 	mov.w	r0, #4294967295	; 0xffffffff
 800295e:	bd08      	pop	{r3, pc}

08002960 <_exit>:
 8002960:	b508      	push	{r3, lr}
 8002962:	f001 fecb 	bl	80046fc <__errno>
 8002966:	2316      	movs	r3, #22
 8002968:	6003      	str	r3, [r0, #0]
 800296a:	e7fe      	b.n	800296a <_exit+0xa>

0800296c <_read>:
 800296c:	b570      	push	{r4, r5, r6, lr}
 800296e:	460e      	mov	r6, r1
 8002970:	4614      	mov	r4, r2
 8002972:	2500      	movs	r5, #0
 8002974:	42a5      	cmp	r5, r4
 8002976:	db01      	blt.n	800297c <_read+0x10>
 8002978:	4620      	mov	r0, r4
 800297a:	bd70      	pop	{r4, r5, r6, pc}
 800297c:	f3af 8000 	nop.w
 8002980:	5570      	strb	r0, [r6, r5]
 8002982:	3501      	adds	r5, #1
 8002984:	e7f6      	b.n	8002974 <_read+0x8>

08002986 <_write>:
 8002986:	b570      	push	{r4, r5, r6, lr}
 8002988:	460e      	mov	r6, r1
 800298a:	4614      	mov	r4, r2
 800298c:	2500      	movs	r5, #0
 800298e:	42a5      	cmp	r5, r4
 8002990:	db01      	blt.n	8002996 <_write+0x10>
 8002992:	4620      	mov	r0, r4
 8002994:	bd70      	pop	{r4, r5, r6, pc}
 8002996:	5d70      	ldrb	r0, [r6, r5]
 8002998:	f3af 8000 	nop.w
 800299c:	3501      	adds	r5, #1
 800299e:	e7f6      	b.n	800298e <_write+0x8>

080029a0 <_close>:
 80029a0:	f04f 30ff 	mov.w	r0, #4294967295	; 0xffffffff
 80029a4:	4770      	bx	lr

080029a6 <_fstat>:
 80029a6:	f44f 5300 	mov.w	r3, #8192	; 0x2000
 80029aa:	2000      	movs	r0, #0
 80029ac:	604b      	str	r3, [r1, #4]
 80029ae:	4770      	bx	lr

080029b0 <_isatty>:
 80029b0:	2001      	movs	r0, #1
 80029b2:	4770      	bx	lr

080029b4 <_lseek>:
 80029b4:	2000      	movs	r0, #0
 80029b6:	4770      	bx	lr

080029b8 <_sbrk>:
 80029b8:	4b0b      	ldr	r3, [pc, #44]	; (80029e8 <_sbrk+0x30>)
 80029ba:	4602      	mov	r2, r0
 80029bc:	6819      	ldr	r1, [r3, #0]
 80029be:	b510      	push	{r4, lr}
 80029c0:	b909      	cbnz	r1, 80029c6 <_sbrk+0xe>
 80029c2:	490a      	ldr	r1, [pc, #40]	; (80029ec <_sbrk+0x34>)
 80029c4:	6019      	str	r1, [r3, #0]
 80029c6:	6818      	ldr	r0, [r3, #0]
 80029c8:	4909      	ldr	r1, [pc, #36]	; (80029f0 <_sbrk+0x38>)
 80029ca:	4c0a      	ldr	r4, [pc, #40]	; (80029f4 <_sbrk+0x3c>)
 80029cc:	4402      	add	r2, r0
 80029ce:	1b09      	subs	r1, r1, r4
 80029d0:	428a      	cmp	r2, r1
 80029d2:	d906      	bls.n	80029e2 <_sbrk+0x2a>
 80029d4:	f001 fe92 	bl	80046fc <__errno>
 80029d8:	230c      	movs	r3, #12
 80029da:	6003      	str	r3, [r0, #0]
 80029dc:	f04f 30ff 	mov.w	r0, #4294967295	; 0xffffffff
 80029e0:	bd10      	pop	{r4, pc}
 80029e2:	601a      	str	r2, [r3, #0]
 80029e4:	e7fc      	b.n	80029e0 <_sbrk+0x28>
 80029e6:	bf00      	nop
 80029e8:	200002a0 	.word	0x200002a0
 80029ec:	20000438 	.word	0x20000438
 80029f0:	20005000 	.word	0x20005000
 80029f4:	00000400 	.word	0x00000400

080029f8 <SystemInit>:
 80029f8:	4770      	bx	lr
	...

080029fc <Reset_Handler>:
 80029fc:	480c      	ldr	r0, [pc, #48]	; (8002a30 <LoopFillZerobss+0x12>)
 80029fe:	490d      	ldr	r1, [pc, #52]	; (8002a34 <LoopFillZerobss+0x16>)
 8002a00:	4a0d      	ldr	r2, [pc, #52]	; (8002a38 <LoopFillZerobss+0x1a>)
 8002a02:	2300      	movs	r3, #0
 8002a04:	e002      	b.n	8002a0c <LoopCopyDataInit>

08002a06 <CopyDataInit>:
 8002a06:	58d4      	ldr	r4, [r2, r3]
 8002a08:	50c4      	str	r4, [r0, r3]
 8002a0a:	3304      	adds	r3, #4

08002a0c <LoopCopyDataInit>:
 8002a0c:	18c4      	adds	r4, r0, r3
 8002a0e:	428c      	cmp	r4, r1
 8002a10:	d3f9      	bcc.n	8002a06 <CopyDataInit>
 8002a12:	4a0a      	ldr	r2, [pc, #40]	; (8002a3c <LoopFillZerobss+0x1e>)
 8002a14:	4c0a      	ldr	r4, [pc, #40]	; (8002a40 <LoopFillZerobss+0x22>)
 8002a16:	2300      	movs	r3, #0
 8002a18:	e001      	b.n	8002a1e <LoopFillZerobss>

08002a1a <FillZerobss>:
 8002a1a:	6013      	str	r3, [r2, #0]
 8002a1c:	3204      	adds	r2, #4

08002a1e <LoopFillZerobss>:
 8002a1e:	42a2      	cmp	r2, r4
 8002a20:	d3fb      	bcc.n	8002a1a <FillZerobss>
 8002a22:	f7ff ffe9 	bl	80029f8 <SystemInit>
 8002a26:	f001 fe6f 	bl	8004708 <__libc_init_array>
 8002a2a:	f7ff f8b1 	bl	8001b90 <main>
 8002a2e:	4770      	bx	lr
 8002a30:	20000000 	.word	0x20000000
 8002a34:	20000284 	.word	0x20000284
 8002a38:	080092b0 	.word	0x080092b0
 8002a3c:	20000284 	.word	0x20000284
 8002a40:	20000434 	.word	0x20000434

08002a44 <ADC1_2_IRQHandler>:
 8002a44:	e7fe      	b.n	8002a44 <ADC1_2_IRQHandler>
	...

08002a48 <HAL_InitTick>:
 8002a48:	b538      	push	{r3, r4, r5, lr}
 8002a4a:	4b0e      	ldr	r3, [pc, #56]	; (8002a84 <HAL_InitTick+0x3c>)
 8002a4c:	4605      	mov	r5, r0
 8002a4e:	7818      	ldrb	r0, [r3, #0]
 8002a50:	f44f 737a 	mov.w	r3, #1000	; 0x3e8
 8002a54:	fbb3 f3f0 	udiv	r3, r3, r0
 8002a58:	4a0b      	ldr	r2, [pc, #44]	; (8002a88 <HAL_InitTick+0x40>)
 8002a5a:	6810      	ldr	r0, [r2, #0]
 8002a5c:	fbb0 f0f3 	udiv	r0, r0, r3
 8002a60:	f000 f89e 	bl	8002ba0 <HAL_SYSTICK_Config>
 8002a64:	4604      	mov	r4, r0
 8002a66:	b958      	cbnz	r0, 8002a80 <HAL_InitTick+0x38>
 8002a68:	2d0f      	cmp	r5, #15
 8002a6a:	d809      	bhi.n	8002a80 <HAL_InitTick+0x38>
 8002a6c:	4602      	mov	r2, r0
 8002a6e:	4629      	mov	r1, r5
 8002a70:	f04f 30ff 	mov.w	r0, #4294967295	; 0xffffffff
 8002a74:	f000 f854 	bl	8002b20 <HAL_NVIC_SetPriority>
 8002a78:	4620      	mov	r0, r4
 8002a7a:	4b04      	ldr	r3, [pc, #16]	; (8002a8c <HAL_InitTick+0x44>)
 8002a7c:	601d      	str	r5, [r3, #0]
 8002a7e:	bd38      	pop	{r3, r4, r5, pc}
 8002a80:	2001      	movs	r0, #1
 8002a82:	e7fc      	b.n	8002a7e <HAL_InitTick+0x36>
 8002a84:	200000a4 	.word	0x200000a4
 8002a88:	200000a0 	.word	0x200000a0
 8002a8c:	200000a8 	.word	0x200000a8

08002a90 <HAL_Init>:
 8002a90:	4a07      	ldr	r2, [pc, #28]	; (8002ab0 <HAL_Init+0x20>)
 8002a92:	b508      	push	{r3, lr}
 8002a94:	6813      	ldr	r3, [r2, #0]
 8002a96:	2003      	movs	r0, #3
 8002a98:	f043 0310 	orr.w	r3, r3, #16
 8002a9c:	6013      	str	r3, [r2, #0]
 8002a9e:	f000 f82d 	bl	8002afc <HAL_NVIC_SetPriorityGrouping>
 8002aa2:	200f      	movs	r0, #15
 8002aa4:	f7ff ffd0 	bl	8002a48 <HAL_InitTick>
 8002aa8:	f7ff fdd2 	bl	8002650 <HAL_MspInit>
 8002aac:	2000      	movs	r0, #0
 8002aae:	bd08      	pop	{r3, pc}
 8002ab0:	40022000 	.word	0x40022000

08002ab4 <HAL_IncTick>:
 8002ab4:	4a03      	ldr	r2, [pc, #12]	; (8002ac4 <HAL_IncTick+0x10>)
 8002ab6:	4b04      	ldr	r3, [pc, #16]	; (8002ac8 <HAL_IncTick+0x14>)
 8002ab8:	6811      	ldr	r1, [r2, #0]
 8002aba:	781b      	ldrb	r3, [r3, #0]
 8002abc:	440b      	add	r3, r1
 8002abe:	6013      	str	r3, [r2, #0]
 8002ac0:	4770      	bx	lr
 8002ac2:	bf00      	nop
 8002ac4:	20000420 	.word	0x20000420
 8002ac8:	200000a4 	.word	0x200000a4

08002acc <HAL_GetTick>:
 8002acc:	4b01      	ldr	r3, [pc, #4]	; (8002ad4 <HAL_GetTick+0x8>)
 8002ace:	6818      	ldr	r0, [r3, #0]
 8002ad0:	4770      	bx	lr
 8002ad2:	bf00      	nop
 8002ad4:	20000420 	.word	0x20000420

08002ad8 <HAL_Delay>:
 8002ad8:	b538      	push	{r3, r4, r5, lr}
 8002ada:	4604      	mov	r4, r0
 8002adc:	f7ff fff6 	bl	8002acc <HAL_GetTick>
 8002ae0:	4605      	mov	r5, r0
 8002ae2:	1c63      	adds	r3, r4, #1
 8002ae4:	bf1e      	ittt	ne
 8002ae6:	4b04      	ldrne	r3, [pc, #16]	; (8002af8 <HAL_Delay+0x20>)
 8002ae8:	781b      	ldrbne	r3, [r3, #0]
 8002aea:	18e4      	addne	r4, r4, r3
 8002aec:	f7ff ffee 	bl	8002acc <HAL_GetTick>
 8002af0:	1b43      	subs	r3, r0, r5
 8002af2:	42a3      	cmp	r3, r4
 8002af4:	d3fa      	bcc.n	8002aec <HAL_Delay+0x14>
 8002af6:	bd38      	pop	{r3, r4, r5, pc}
 8002af8:	200000a4 	.word	0x200000a4

08002afc <HAL_NVIC_SetPriorityGrouping>:
 8002afc:	4907      	ldr	r1, [pc, #28]	; (8002b1c <HAL_NVIC_SetPriorityGrouping+0x20>)
 8002afe:	0203      	lsls	r3, r0, #8
 8002b00:	68ca      	ldr	r2, [r1, #12]
 8002b02:	f403 63e0 	and.w	r3, r3, #1792	; 0x700
 8002b06:	f422 62e0 	bic.w	r2, r2, #1792	; 0x700
 8002b0a:	0412      	lsls	r2, r2, #16
 8002b0c:	0c12      	lsrs	r2, r2, #16
 8002b0e:	4313      	orrs	r3, r2
 8002b10:	f043 63bf 	orr.w	r3, r3, #100139008	; 0x5f80000
 8002b14:	f443 3300 	orr.w	r3, r3, #131072	; 0x20000
 8002b18:	60cb      	str	r3, [r1, #12]
 8002b1a:	4770      	bx	lr
 8002b1c:	e000ed00 	.word	0xe000ed00

08002b20 <HAL_NVIC_SetPriority>:
 8002b20:	4b16      	ldr	r3, [pc, #88]	; (8002b7c <HAL_NVIC_SetPriority+0x5c>)
 8002b22:	b530      	push	{r4, r5, lr}
 8002b24:	68dc      	ldr	r4, [r3, #12]
 8002b26:	f3c4 2402 	ubfx	r4, r4, #8, #3
 8002b2a:	f1c4 0307 	rsb	r3, r4, #7
 8002b2e:	1d25      	adds	r5, r4, #4
 8002b30:	2b04      	cmp	r3, #4
 8002b32:	bf28      	it	cs
 8002b34:	2304      	movcs	r3, #4
 8002b36:	2d06      	cmp	r5, #6
 8002b38:	f04f 35ff 	mov.w	r5, #4294967295	; 0xffffffff
 8002b3c:	bf98      	it	ls
 8002b3e:	2400      	movls	r4, #0
 8002b40:	fa05 f303 	lsl.w	r3, r5, r3
 8002b44:	bf88      	it	hi
 8002b46:	3c03      	subhi	r4, #3
 8002b48:	ea21 0303 	bic.w	r3, r1, r3
 8002b4c:	40a3      	lsls	r3, r4
 8002b4e:	fa05 f404 	lsl.w	r4, r5, r4
 8002b52:	ea22 0204 	bic.w	r2, r2, r4
 8002b56:	2800      	cmp	r0, #0
 8002b58:	ea43 0302 	orr.w	r3, r3, r2
 8002b5c:	bfac      	ite	ge
 8002b5e:	f100 4060 	addge.w	r0, r0, #3758096384	; 0xe0000000
 8002b62:	4a07      	ldrlt	r2, [pc, #28]	; (8002b80 <HAL_NVIC_SetPriority+0x60>)
 8002b64:	ea4f 1303 	mov.w	r3, r3, lsl #4
 8002b68:	b2db      	uxtb	r3, r3
 8002b6a:	bfab      	itete	ge
 8002b6c:	f500 4061 	addge.w	r0, r0, #57600	; 0xe100
 8002b70:	f000 000f 	andlt.w	r0, r0, #15
 8002b74:	f880 3300 	strbge.w	r3, [r0, #768]	; 0x300
 8002b78:	5413      	strblt	r3, [r2, r0]
 8002b7a:	bd30      	pop	{r4, r5, pc}
 8002b7c:	e000ed00 	.word	0xe000ed00
 8002b80:	e000ed14 	.word	0xe000ed14

08002b84 <HAL_NVIC_EnableIRQ>:
 8002b84:	2800      	cmp	r0, #0
 8002b86:	db08      	blt.n	8002b9a <HAL_NVIC_EnableIRQ+0x16>
 8002b88:	2301      	movs	r3, #1
 8002b8a:	0942      	lsrs	r2, r0, #5
 8002b8c:	f000 001f 	and.w	r0, r0, #31
 8002b90:	fa03 f000 	lsl.w	r0, r3, r0
 8002b94:	4b01      	ldr	r3, [pc, #4]	; (8002b9c <HAL_NVIC_EnableIRQ+0x18>)
 8002b96:	f843 0022 	str.w	r0, [r3, r2, lsl #2]
 8002b9a:	4770      	bx	lr
 8002b9c:	e000e100 	.word	0xe000e100

08002ba0 <HAL_SYSTICK_Config>:
 8002ba0:	3801      	subs	r0, #1
 8002ba2:	f1b0 7f80 	cmp.w	r0, #16777216	; 0x1000000
 8002ba6:	d20a      	bcs.n	8002bbe <HAL_SYSTICK_Config+0x1e>
 8002ba8:	21f0      	movs	r1, #240	; 0xf0
 8002baa:	4b06      	ldr	r3, [pc, #24]	; (8002bc4 <HAL_SYSTICK_Config+0x24>)
 8002bac:	4a06      	ldr	r2, [pc, #24]	; (8002bc8 <HAL_SYSTICK_Config+0x28>)
 8002bae:	6058      	str	r0, [r3, #4]
 8002bb0:	f882 1023 	strb.w	r1, [r2, #35]	; 0x23
 8002bb4:	2000      	movs	r0, #0
 8002bb6:	2207      	movs	r2, #7
 8002bb8:	6098      	str	r0, [r3, #8]
 8002bba:	601a      	str	r2, [r3, #0]
 8002bbc:	4770      	bx	lr
 8002bbe:	2001      	movs	r0, #1
 8002bc0:	4770      	bx	lr
 8002bc2:	bf00      	nop
 8002bc4:	e000e010 	.word	0xe000e010
 8002bc8:	e000ed00 	.word	0xe000ed00

08002bcc <HAL_DMA_Abort>:
 8002bcc:	f890 3021 	ldrb.w	r3, [r0, #33]	; 0x21
 8002bd0:	2b02      	cmp	r3, #2
 8002bd2:	d006      	beq.n	8002be2 <HAL_DMA_Abort+0x16>
 8002bd4:	2304      	movs	r3, #4
 8002bd6:	6383      	str	r3, [r0, #56]	; 0x38
 8002bd8:	2300      	movs	r3, #0
 8002bda:	f880 3020 	strb.w	r3, [r0, #32]
 8002bde:	2001      	movs	r0, #1
 8002be0:	4770      	bx	lr
 8002be2:	6803      	ldr	r3, [r0, #0]
 8002be4:	681a      	ldr	r2, [r3, #0]
 8002be6:	f022 020e 	bic.w	r2, r2, #14
 8002bea:	601a      	str	r2, [r3, #0]
 8002bec:	681a      	ldr	r2, [r3, #0]
 8002bee:	f022 0201 	bic.w	r2, r2, #1
 8002bf2:	601a      	str	r2, [r3, #0]
 8002bf4:	2301      	movs	r3, #1
 8002bf6:	e9d0 210f 	ldrd	r2, r1, [r0, #60]	; 0x3c
 8002bfa:	408b      	lsls	r3, r1
 8002bfc:	6053      	str	r3, [r2, #4]
 8002bfe:	f44f 7380 	mov.w	r3, #256	; 0x100
 8002c02:	8403      	strh	r3, [r0, #32]
 8002c04:	2000      	movs	r0, #0
 8002c06:	4770      	bx	lr

08002c08 <HAL_DMA_Abort_IT>:
 8002c08:	b508      	push	{r3, lr}
 8002c0a:	f890 3021 	ldrb.w	r3, [r0, #33]	; 0x21
 8002c0e:	2b02      	cmp	r3, #2
 8002c10:	d003      	beq.n	8002c1a <HAL_DMA_Abort_IT+0x12>
 8002c12:	2304      	movs	r3, #4
 8002c14:	6383      	str	r3, [r0, #56]	; 0x38
 8002c16:	2001      	movs	r0, #1
 8002c18:	bd08      	pop	{r3, pc}
 8002c1a:	6803      	ldr	r3, [r0, #0]
 8002c1c:	681a      	ldr	r2, [r3, #0]
 8002c1e:	f022 020e 	bic.w	r2, r2, #14
 8002c22:	601a      	str	r2, [r3, #0]
 8002c24:	681a      	ldr	r2, [r3, #0]
 8002c26:	f022 0201 	bic.w	r2, r2, #1
 8002c2a:	601a      	str	r2, [r3, #0]
 8002c2c:	4a17      	ldr	r2, [pc, #92]	; (8002c8c <HAL_DMA_Abort_IT+0x84>)
 8002c2e:	4293      	cmp	r3, r2
 8002c30:	d01c      	beq.n	8002c6c <HAL_DMA_Abort_IT+0x64>
 8002c32:	3214      	adds	r2, #20
 8002c34:	4293      	cmp	r3, r2
 8002c36:	d01b      	beq.n	8002c70 <HAL_DMA_Abort_IT+0x68>
 8002c38:	3214      	adds	r2, #20
 8002c3a:	4293      	cmp	r3, r2
 8002c3c:	d01a      	beq.n	8002c74 <HAL_DMA_Abort_IT+0x6c>
 8002c3e:	3214      	adds	r2, #20
 8002c40:	4293      	cmp	r3, r2
 8002c42:	d01a      	beq.n	8002c7a <HAL_DMA_Abort_IT+0x72>
 8002c44:	3214      	adds	r2, #20
 8002c46:	4293      	cmp	r3, r2
 8002c48:	d01a      	beq.n	8002c80 <HAL_DMA_Abort_IT+0x78>
 8002c4a:	3214      	adds	r2, #20
 8002c4c:	4293      	cmp	r3, r2
 8002c4e:	bf0c      	ite	eq
 8002c50:	f44f 1380 	moveq.w	r3, #1048576	; 0x100000
 8002c54:	f04f 7380 	movne.w	r3, #16777216	; 0x1000000
 8002c58:	4a0d      	ldr	r2, [pc, #52]	; (8002c90 <HAL_DMA_Abort_IT+0x88>)
 8002c5a:	6053      	str	r3, [r2, #4]
 8002c5c:	f44f 7380 	mov.w	r3, #256	; 0x100
 8002c60:	8403      	strh	r3, [r0, #32]
 8002c62:	6b43      	ldr	r3, [r0, #52]	; 0x34
 8002c64:	b17b      	cbz	r3, 8002c86 <HAL_DMA_Abort_IT+0x7e>
 8002c66:	4798      	blx	r3
 8002c68:	2000      	movs	r0, #0
 8002c6a:	e7d5      	b.n	8002c18 <HAL_DMA_Abort_IT+0x10>
 8002c6c:	2301      	movs	r3, #1
 8002c6e:	e7f3      	b.n	8002c58 <HAL_DMA_Abort_IT+0x50>
 8002c70:	2310      	movs	r3, #16
 8002c72:	e7f1      	b.n	8002c58 <HAL_DMA_Abort_IT+0x50>
 8002c74:	f44f 7380 	mov.w	r3, #256	; 0x100
 8002c78:	e7ee      	b.n	8002c58 <HAL_DMA_Abort_IT+0x50>
 8002c7a:	f44f 5380 	mov.w	r3, #4096	; 0x1000
 8002c7e:	e7eb      	b.n	8002c58 <HAL_DMA_Abort_IT+0x50>
 8002c80:	f44f 3380 	mov.w	r3, #65536	; 0x10000
 8002c84:	e7e8      	b.n	8002c58 <HAL_DMA_Abort_IT+0x50>
 8002c86:	4618      	mov	r0, r3
 8002c88:	e7c6      	b.n	8002c18 <HAL_DMA_Abort_IT+0x10>
 8002c8a:	bf00      	nop
 8002c8c:	40020008 	.word	0x40020008
 8002c90:	40020000 	.word	0x40020000

08002c94 <HAL_GPIO_Init>:
 8002c94:	e92d 4ff7 	stmdb	sp!, {r0, r1, r2, r4, r5, r6, r7, r8, r9, sl, fp, lr}
 8002c98:	2200      	movs	r2, #0
 8002c9a:	4616      	mov	r6, r2
 8002c9c:	4b64      	ldr	r3, [pc, #400]	; (8002e30 <HAL_GPIO_Init+0x19c>)
 8002c9e:	f8df c1a0 	ldr.w	ip, [pc, #416]	; 8002e40 <HAL_GPIO_Init+0x1ac>
 8002ca2:	f8df e1a0 	ldr.w	lr, [pc, #416]	; 8002e44 <HAL_GPIO_Init+0x1b0>
 8002ca6:	680d      	ldr	r5, [r1, #0]
 8002ca8:	fa35 f406 	lsrs.w	r4, r5, r6
 8002cac:	d102      	bne.n	8002cb4 <HAL_GPIO_Init+0x20>
 8002cae:	b003      	add	sp, #12
 8002cb0:	e8bd 8ff0 	ldmia.w	sp!, {r4, r5, r6, r7, r8, r9, sl, fp, pc}
 8002cb4:	f04f 0801 	mov.w	r8, #1
 8002cb8:	fa08 f806 	lsl.w	r8, r8, r6
 8002cbc:	ea05 0408 	and.w	r4, r5, r8
 8002cc0:	ea38 0505 	bics.w	r5, r8, r5
 8002cc4:	d17c      	bne.n	8002dc0 <HAL_GPIO_Init+0x12c>
 8002cc6:	684d      	ldr	r5, [r1, #4]
 8002cc8:	2d03      	cmp	r5, #3
 8002cca:	d807      	bhi.n	8002cdc <HAL_GPIO_Init+0x48>
 8002ccc:	3d01      	subs	r5, #1
 8002cce:	2d02      	cmp	r5, #2
 8002cd0:	f200 8088 	bhi.w	8002de4 <HAL_GPIO_Init+0x150>
 8002cd4:	e8df f005 	tbb	[pc, r5]
 8002cd8:	9b96      	.short	0x9b96
 8002cda:	a1          	.byte	0xa1
 8002cdb:	00          	.byte	0x00
 8002cdc:	2d12      	cmp	r5, #18
 8002cde:	f000 8099 	beq.w	8002e14 <HAL_GPIO_Init+0x180>
 8002ce2:	d86f      	bhi.n	8002dc4 <HAL_GPIO_Init+0x130>
 8002ce4:	2d11      	cmp	r5, #17
 8002ce6:	f000 808f 	beq.w	8002e08 <HAL_GPIO_Init+0x174>
 8002cea:	2cff      	cmp	r4, #255	; 0xff
 8002cec:	bf98      	it	ls
 8002cee:	4682      	movls	sl, r0
 8002cf0:	f04f 090f 	mov.w	r9, #15
 8002cf4:	bf88      	it	hi
 8002cf6:	f100 0a04 	addhi.w	sl, r0, #4
 8002cfa:	ea4f 0586 	mov.w	r5, r6, lsl #2
 8002cfe:	f8da 8000 	ldr.w	r8, [sl]
 8002d02:	bf88      	it	hi
 8002d04:	3d20      	subhi	r5, #32
 8002d06:	fa09 fb05 	lsl.w	fp, r9, r5
 8002d0a:	ea28 080b 	bic.w	r8, r8, fp
 8002d0e:	fa02 f505 	lsl.w	r5, r2, r5
 8002d12:	ea48 0505 	orr.w	r5, r8, r5
 8002d16:	f8ca 5000 	str.w	r5, [sl]
 8002d1a:	f8d1 a004 	ldr.w	sl, [r1, #4]
 8002d1e:	f01a 5f80 	tst.w	sl, #268435456	; 0x10000000
 8002d22:	d04d      	beq.n	8002dc0 <HAL_GPIO_Init+0x12c>
 8002d24:	4f43      	ldr	r7, [pc, #268]	; (8002e34 <HAL_GPIO_Init+0x1a0>)
 8002d26:	f026 0803 	bic.w	r8, r6, #3
 8002d2a:	69bd      	ldr	r5, [r7, #24]
 8002d2c:	f108 4880 	add.w	r8, r8, #1073741824	; 0x40000000
 8002d30:	f045 0501 	orr.w	r5, r5, #1
 8002d34:	61bd      	str	r5, [r7, #24]
 8002d36:	69bd      	ldr	r5, [r7, #24]
 8002d38:	f508 3880 	add.w	r8, r8, #65536	; 0x10000
 8002d3c:	f005 0501 	and.w	r5, r5, #1
 8002d40:	9501      	str	r5, [sp, #4]
 8002d42:	f006 0b03 	and.w	fp, r6, #3
 8002d46:	9d01      	ldr	r5, [sp, #4]
 8002d48:	ea4f 0b8b 	mov.w	fp, fp, lsl #2
 8002d4c:	f8d8 5008 	ldr.w	r5, [r8, #8]
 8002d50:	fa09 f90b 	lsl.w	r9, r9, fp
 8002d54:	ea25 0909 	bic.w	r9, r5, r9
 8002d58:	4d37      	ldr	r5, [pc, #220]	; (8002e38 <HAL_GPIO_Init+0x1a4>)
 8002d5a:	42a8      	cmp	r0, r5
 8002d5c:	d061      	beq.n	8002e22 <HAL_GPIO_Init+0x18e>
 8002d5e:	f505 6580 	add.w	r5, r5, #1024	; 0x400
 8002d62:	42a8      	cmp	r0, r5
 8002d64:	d05f      	beq.n	8002e26 <HAL_GPIO_Init+0x192>
 8002d66:	f505 6580 	add.w	r5, r5, #1024	; 0x400
 8002d6a:	42a8      	cmp	r0, r5
 8002d6c:	d05d      	beq.n	8002e2a <HAL_GPIO_Init+0x196>
 8002d6e:	f505 6580 	add.w	r5, r5, #1024	; 0x400
 8002d72:	42a8      	cmp	r0, r5
 8002d74:	bf0c      	ite	eq
 8002d76:	2503      	moveq	r5, #3
 8002d78:	2504      	movne	r5, #4
 8002d7a:	fa05 f50b 	lsl.w	r5, r5, fp
 8002d7e:	ea45 0509 	orr.w	r5, r5, r9
 8002d82:	f8c8 5008 	str.w	r5, [r8, #8]
 8002d86:	681d      	ldr	r5, [r3, #0]
 8002d88:	f41a 3f80 	tst.w	sl, #65536	; 0x10000
 8002d8c:	bf14      	ite	ne
 8002d8e:	4325      	orrne	r5, r4
 8002d90:	43a5      	biceq	r5, r4
 8002d92:	601d      	str	r5, [r3, #0]
 8002d94:	685d      	ldr	r5, [r3, #4]
 8002d96:	f41a 3f00 	tst.w	sl, #131072	; 0x20000
 8002d9a:	bf14      	ite	ne
 8002d9c:	4325      	orrne	r5, r4
 8002d9e:	43a5      	biceq	r5, r4
 8002da0:	605d      	str	r5, [r3, #4]
 8002da2:	689d      	ldr	r5, [r3, #8]
 8002da4:	f41a 1f80 	tst.w	sl, #1048576	; 0x100000
 8002da8:	bf14      	ite	ne
 8002daa:	4325      	orrne	r5, r4
 8002dac:	43a5      	biceq	r5, r4
 8002dae:	609d      	str	r5, [r3, #8]
 8002db0:	68dd      	ldr	r5, [r3, #12]
 8002db2:	f41a 1f00 	tst.w	sl, #2097152	; 0x200000
 8002db6:	bf14      	ite	ne
 8002db8:	432c      	orrne	r4, r5
 8002dba:	ea25 0404 	biceq.w	r4, r5, r4
 8002dbe:	60dc      	str	r4, [r3, #12]
 8002dc0:	3601      	adds	r6, #1
 8002dc2:	e770      	b.n	8002ca6 <HAL_GPIO_Init+0x12>
 8002dc4:	4f1d      	ldr	r7, [pc, #116]	; (8002e3c <HAL_GPIO_Init+0x1a8>)
 8002dc6:	42bd      	cmp	r5, r7
 8002dc8:	d00c      	beq.n	8002de4 <HAL_GPIO_Init+0x150>
 8002dca:	d817      	bhi.n	8002dfc <HAL_GPIO_Init+0x168>
 8002dcc:	f8df 9078 	ldr.w	r9, [pc, #120]	; 8002e48 <HAL_GPIO_Init+0x1b4>
 8002dd0:	454d      	cmp	r5, r9
 8002dd2:	d007      	beq.n	8002de4 <HAL_GPIO_Init+0x150>
 8002dd4:	f509 2970 	add.w	r9, r9, #983040	; 0xf0000
 8002dd8:	454d      	cmp	r5, r9
 8002dda:	d003      	beq.n	8002de4 <HAL_GPIO_Init+0x150>
 8002ddc:	f5a9 1980 	sub.w	r9, r9, #1048576	; 0x100000
 8002de0:	454d      	cmp	r5, r9
 8002de2:	d182      	bne.n	8002cea <HAL_GPIO_Init+0x56>
 8002de4:	688a      	ldr	r2, [r1, #8]
 8002de6:	b1d2      	cbz	r2, 8002e1e <HAL_GPIO_Init+0x18a>
 8002de8:	2a01      	cmp	r2, #1
 8002dea:	bf08      	it	eq
 8002dec:	f8c0 8010 	streq.w	r8, [r0, #16]
 8002df0:	f04f 0208 	mov.w	r2, #8
 8002df4:	bf18      	it	ne
 8002df6:	f8c0 8014 	strne.w	r8, [r0, #20]
 8002dfa:	e776      	b.n	8002cea <HAL_GPIO_Init+0x56>
 8002dfc:	4565      	cmp	r5, ip
 8002dfe:	d0f1      	beq.n	8002de4 <HAL_GPIO_Init+0x150>
 8002e00:	4575      	cmp	r5, lr
 8002e02:	e7ee      	b.n	8002de2 <HAL_GPIO_Init+0x14e>
 8002e04:	68ca      	ldr	r2, [r1, #12]
 8002e06:	e770      	b.n	8002cea <HAL_GPIO_Init+0x56>
 8002e08:	68ca      	ldr	r2, [r1, #12]
 8002e0a:	3204      	adds	r2, #4
 8002e0c:	e76d      	b.n	8002cea <HAL_GPIO_Init+0x56>
 8002e0e:	68ca      	ldr	r2, [r1, #12]
 8002e10:	3208      	adds	r2, #8
 8002e12:	e76a      	b.n	8002cea <HAL_GPIO_Init+0x56>
 8002e14:	68ca      	ldr	r2, [r1, #12]
 8002e16:	320c      	adds	r2, #12
 8002e18:	e767      	b.n	8002cea <HAL_GPIO_Init+0x56>
 8002e1a:	2200      	movs	r2, #0
 8002e1c:	e765      	b.n	8002cea <HAL_GPIO_Init+0x56>
 8002e1e:	2204      	movs	r2, #4
 8002e20:	e763      	b.n	8002cea <HAL_GPIO_Init+0x56>
 8002e22:	2500      	movs	r5, #0
 8002e24:	e7a9      	b.n	8002d7a <HAL_GPIO_Init+0xe6>
 8002e26:	2501      	movs	r5, #1
 8002e28:	e7a7      	b.n	8002d7a <HAL_GPIO_Init+0xe6>
 8002e2a:	2502      	movs	r5, #2
 8002e2c:	e7a5      	b.n	8002d7a <HAL_GPIO_Init+0xe6>
 8002e2e:	bf00      	nop
 8002e30:	40010400 	.word	0x40010400
 8002e34:	40021000 	.word	0x40021000
 8002e38:	40010800 	.word	0x40010800
 8002e3c:	10220000 	.word	0x10220000
 8002e40:	10310000 	.word	0x10310000
 8002e44:	10320000 	.word	0x10320000
 8002e48:	10120000 	.word	0x10120000

08002e4c <HAL_GPIO_DeInit>:
 8002e4c:	e92d 4ff7 	stmdb	sp!, {r0, r1, r2, r4, r5, r6, r7, r8, r9, sl, fp, lr}
 8002e50:	f04f 0b04 	mov.w	fp, #4
 8002e54:	2200      	movs	r2, #0
 8002e56:	f04f 0a01 	mov.w	sl, #1
 8002e5a:	f04f 080f 	mov.w	r8, #15
 8002e5e:	eb00 030b 	add.w	r3, r0, fp
 8002e62:	9301      	str	r3, [sp, #4]
 8002e64:	4b2e      	ldr	r3, [pc, #184]	; (8002f20 <HAL_GPIO_DeInit+0xd4>)
 8002e66:	fa31 f402 	lsrs.w	r4, r1, r2
 8002e6a:	d102      	bne.n	8002e72 <HAL_GPIO_DeInit+0x26>
 8002e6c:	b003      	add	sp, #12
 8002e6e:	e8bd 8ff0 	ldmia.w	sp!, {r4, r5, r6, r7, r8, r9, sl, fp, pc}
 8002e72:	fa0a f702 	lsl.w	r7, sl, r2
 8002e76:	400f      	ands	r7, r1
 8002e78:	d049      	beq.n	8002f0e <HAL_GPIO_DeInit+0xc2>
 8002e7a:	f022 0403 	bic.w	r4, r2, #3
 8002e7e:	f104 4480 	add.w	r4, r4, #1073741824	; 0x40000000
 8002e82:	4d28      	ldr	r5, [pc, #160]	; (8002f24 <HAL_GPIO_DeInit+0xd8>)
 8002e84:	f504 3480 	add.w	r4, r4, #65536	; 0x10000
 8002e88:	f002 0c03 	and.w	ip, r2, #3
 8002e8c:	68a6      	ldr	r6, [r4, #8]
 8002e8e:	ea4f 0c8c 	mov.w	ip, ip, lsl #2
 8002e92:	fa08 f90c 	lsl.w	r9, r8, ip
 8002e96:	42a8      	cmp	r0, r5
 8002e98:	ea09 0e06 	and.w	lr, r9, r6
 8002e9c:	d039      	beq.n	8002f12 <HAL_GPIO_DeInit+0xc6>
 8002e9e:	f505 6580 	add.w	r5, r5, #1024	; 0x400
 8002ea2:	42a8      	cmp	r0, r5
 8002ea4:	d037      	beq.n	8002f16 <HAL_GPIO_DeInit+0xca>
 8002ea6:	f505 6580 	add.w	r5, r5, #1024	; 0x400
 8002eaa:	42a8      	cmp	r0, r5
 8002eac:	d035      	beq.n	8002f1a <HAL_GPIO_DeInit+0xce>
 8002eae:	f505 6580 	add.w	r5, r5, #1024	; 0x400
 8002eb2:	42a8      	cmp	r0, r5
 8002eb4:	bf0c      	ite	eq
 8002eb6:	2503      	moveq	r5, #3
 8002eb8:	2504      	movne	r5, #4
 8002eba:	fa05 f50c 	lsl.w	r5, r5, ip
 8002ebe:	4575      	cmp	r5, lr
 8002ec0:	ea6f 0607 	mvn.w	r6, r7
 8002ec4:	d10f      	bne.n	8002ee6 <HAL_GPIO_DeInit+0x9a>
 8002ec6:	68a5      	ldr	r5, [r4, #8]
 8002ec8:	ea25 0509 	bic.w	r5, r5, r9
 8002ecc:	60a5      	str	r5, [r4, #8]
 8002ece:	681c      	ldr	r4, [r3, #0]
 8002ed0:	4034      	ands	r4, r6
 8002ed2:	601c      	str	r4, [r3, #0]
 8002ed4:	685c      	ldr	r4, [r3, #4]
 8002ed6:	4034      	ands	r4, r6
 8002ed8:	605c      	str	r4, [r3, #4]
 8002eda:	689c      	ldr	r4, [r3, #8]
 8002edc:	4034      	ands	r4, r6
 8002ede:	609c      	str	r4, [r3, #8]
 8002ee0:	68dc      	ldr	r4, [r3, #12]
 8002ee2:	4034      	ands	r4, r6
 8002ee4:	60dc      	str	r4, [r3, #12]
 8002ee6:	2fff      	cmp	r7, #255	; 0xff
 8002ee8:	bf94      	ite	ls
 8002eea:	4607      	movls	r7, r0
 8002eec:	9f01      	ldrhi	r7, [sp, #4]
 8002eee:	ea4f 0482 	mov.w	r4, r2, lsl #2
 8002ef2:	683d      	ldr	r5, [r7, #0]
 8002ef4:	bf88      	it	hi
 8002ef6:	3c20      	subhi	r4, #32
 8002ef8:	fa08 fc04 	lsl.w	ip, r8, r4
 8002efc:	ea25 050c 	bic.w	r5, r5, ip
 8002f00:	fa0b f404 	lsl.w	r4, fp, r4
 8002f04:	4325      	orrs	r5, r4
 8002f06:	603d      	str	r5, [r7, #0]
 8002f08:	68c4      	ldr	r4, [r0, #12]
 8002f0a:	4026      	ands	r6, r4
 8002f0c:	60c6      	str	r6, [r0, #12]
 8002f0e:	3201      	adds	r2, #1
 8002f10:	e7a9      	b.n	8002e66 <HAL_GPIO_DeInit+0x1a>
 8002f12:	2500      	movs	r5, #0
 8002f14:	e7d1      	b.n	8002eba <HAL_GPIO_DeInit+0x6e>
 8002f16:	2501      	movs	r5, #1
 8002f18:	e7cf      	b.n	8002eba <HAL_GPIO_DeInit+0x6e>
 8002f1a:	2502      	movs	r5, #2
 8002f1c:	e7cd      	b.n	8002eba <HAL_GPIO_DeInit+0x6e>
 8002f1e:	bf00      	nop
 8002f20:	40010400 	.word	0x40010400
 8002f24:	40010800 	.word	0x40010800

08002f28 <I2C_IsAcknowledgeFailed>:
 8002f28:	6801      	ldr	r1, [r0, #0]
 8002f2a:	2200      	movs	r2, #0
 8002f2c:	694b      	ldr	r3, [r1, #20]
 8002f2e:	f413 6380 	ands.w	r3, r3, #1024	; 0x400
 8002f32:	d010      	beq.n	8002f56 <I2C_IsAcknowledgeFailed+0x2e>
 8002f34:	f46f 6380 	mvn.w	r3, #1024	; 0x400
 8002f38:	614b      	str	r3, [r1, #20]
 8002f3a:	2320      	movs	r3, #32
 8002f3c:	6302      	str	r2, [r0, #48]	; 0x30
 8002f3e:	f880 303d 	strb.w	r3, [r0, #61]	; 0x3d
 8002f42:	f880 203e 	strb.w	r2, [r0, #62]	; 0x3e
 8002f46:	6c03      	ldr	r3, [r0, #64]	; 0x40
 8002f48:	f880 203c 	strb.w	r2, [r0, #60]	; 0x3c
 8002f4c:	f043 0304 	orr.w	r3, r3, #4
 8002f50:	6403      	str	r3, [r0, #64]	; 0x40
 8002f52:	2001      	movs	r0, #1
 8002f54:	4770      	bx	lr
 8002f56:	4618      	mov	r0, r3
 8002f58:	4770      	bx	lr

08002f5a <I2C_WaitOnMasterAddressFlagUntilTimeout>:
 8002f5a:	e92d 41f0 	stmdb	sp!, {r4, r5, r6, r7, r8, lr}
 8002f5e:	4604      	mov	r4, r0
 8002f60:	460f      	mov	r7, r1
 8002f62:	4616      	mov	r6, r2
 8002f64:	4698      	mov	r8, r3
 8002f66:	6825      	ldr	r5, [r4, #0]
 8002f68:	6968      	ldr	r0, [r5, #20]
 8002f6a:	ea27 0000 	bic.w	r0, r7, r0
 8002f6e:	b280      	uxth	r0, r0
 8002f70:	b1b8      	cbz	r0, 8002fa2 <I2C_WaitOnMasterAddressFlagUntilTimeout+0x48>
 8002f72:	696b      	ldr	r3, [r5, #20]
 8002f74:	055a      	lsls	r2, r3, #21
 8002f76:	d516      	bpl.n	8002fa6 <I2C_WaitOnMasterAddressFlagUntilTimeout+0x4c>
 8002f78:	682b      	ldr	r3, [r5, #0]
 8002f7a:	2220      	movs	r2, #32
 8002f7c:	f443 7300 	orr.w	r3, r3, #512	; 0x200
 8002f80:	602b      	str	r3, [r5, #0]
 8002f82:	f46f 6380 	mvn.w	r3, #1024	; 0x400
 8002f86:	616b      	str	r3, [r5, #20]
 8002f88:	2300      	movs	r3, #0
 8002f8a:	6323      	str	r3, [r4, #48]	; 0x30
 8002f8c:	f884 203d 	strb.w	r2, [r4, #61]	; 0x3d
 8002f90:	f884 303e 	strb.w	r3, [r4, #62]	; 0x3e
 8002f94:	6c22      	ldr	r2, [r4, #64]	; 0x40
 8002f96:	f042 0204 	orr.w	r2, r2, #4
 8002f9a:	2001      	movs	r0, #1
 8002f9c:	6422      	str	r2, [r4, #64]	; 0x40
 8002f9e:	f884 303c 	strb.w	r3, [r4, #60]	; 0x3c
 8002fa2:	e8bd 81f0 	ldmia.w	sp!, {r4, r5, r6, r7, r8, pc}
 8002fa6:	1c73      	adds	r3, r6, #1
 8002fa8:	d0de      	beq.n	8002f68 <I2C_WaitOnMasterAddressFlagUntilTimeout+0xe>
 8002faa:	f7ff fd8f 	bl	8002acc <HAL_GetTick>
 8002fae:	eba0 0008 	sub.w	r0, r0, r8
 8002fb2:	42b0      	cmp	r0, r6
 8002fb4:	d801      	bhi.n	8002fba <I2C_WaitOnMasterAddressFlagUntilTimeout+0x60>
 8002fb6:	2e00      	cmp	r6, #0
 8002fb8:	d1d5      	bne.n	8002f66 <I2C_WaitOnMasterAddressFlagUntilTimeout+0xc>
 8002fba:	2300      	movs	r3, #0
 8002fbc:	2220      	movs	r2, #32
 8002fbe:	6323      	str	r3, [r4, #48]	; 0x30
 8002fc0:	f884 203d 	strb.w	r2, [r4, #61]	; 0x3d
 8002fc4:	f884 303e 	strb.w	r3, [r4, #62]	; 0x3e
 8002fc8:	6c22      	ldr	r2, [r4, #64]	; 0x40
 8002fca:	f042 0220 	orr.w	r2, r2, #32
 8002fce:	e7e4      	b.n	8002f9a <I2C_WaitOnMasterAddressFlagUntilTimeout+0x40>

08002fd0 <I2C_WaitOnBTFFlagUntilTimeout>:
 8002fd0:	b570      	push	{r4, r5, r6, lr}
 8002fd2:	4604      	mov	r4, r0
 8002fd4:	460d      	mov	r5, r1
 8002fd6:	4616      	mov	r6, r2
 8002fd8:	6823      	ldr	r3, [r4, #0]
 8002fda:	695b      	ldr	r3, [r3, #20]
 8002fdc:	075b      	lsls	r3, r3, #29
 8002fde:	d501      	bpl.n	8002fe4 <I2C_WaitOnBTFFlagUntilTimeout+0x14>
 8002fe0:	2000      	movs	r0, #0
 8002fe2:	bd70      	pop	{r4, r5, r6, pc}
 8002fe4:	4620      	mov	r0, r4
 8002fe6:	f7ff ff9f 	bl	8002f28 <I2C_IsAcknowledgeFailed>
 8002fea:	b9a8      	cbnz	r0, 8003018 <I2C_WaitOnBTFFlagUntilTimeout+0x48>
 8002fec:	1c6a      	adds	r2, r5, #1
 8002fee:	d0f3      	beq.n	8002fd8 <I2C_WaitOnBTFFlagUntilTimeout+0x8>
 8002ff0:	f7ff fd6c 	bl	8002acc <HAL_GetTick>
 8002ff4:	1b80      	subs	r0, r0, r6
 8002ff6:	42a8      	cmp	r0, r5
 8002ff8:	d801      	bhi.n	8002ffe <I2C_WaitOnBTFFlagUntilTimeout+0x2e>
 8002ffa:	2d00      	cmp	r5, #0
 8002ffc:	d1ec      	bne.n	8002fd8 <I2C_WaitOnBTFFlagUntilTimeout+0x8>
 8002ffe:	2300      	movs	r3, #0
 8003000:	2220      	movs	r2, #32
 8003002:	6323      	str	r3, [r4, #48]	; 0x30
 8003004:	f884 203d 	strb.w	r2, [r4, #61]	; 0x3d
 8003008:	f884 303e 	strb.w	r3, [r4, #62]	; 0x3e
 800300c:	6c22      	ldr	r2, [r4, #64]	; 0x40
 800300e:	f884 303c 	strb.w	r3, [r4, #60]	; 0x3c
 8003012:	f042 0220 	orr.w	r2, r2, #32
 8003016:	6422      	str	r2, [r4, #64]	; 0x40
 8003018:	2001      	movs	r0, #1
 800301a:	e7e2      	b.n	8002fe2 <I2C_WaitOnBTFFlagUntilTimeout+0x12>

0800301c <I2C_WaitOnRXNEFlagUntilTimeout>:
 800301c:	b570      	push	{r4, r5, r6, lr}
 800301e:	4604      	mov	r4, r0
 8003020:	460d      	mov	r5, r1
 8003022:	4616      	mov	r6, r2
 8003024:	6821      	ldr	r1, [r4, #0]
 8003026:	694b      	ldr	r3, [r1, #20]
 8003028:	f013 0340 	ands.w	r3, r3, #64	; 0x40
 800302c:	d001      	beq.n	8003032 <I2C_WaitOnRXNEFlagUntilTimeout+0x16>
 800302e:	2000      	movs	r0, #0
 8003030:	e010      	b.n	8003054 <I2C_WaitOnRXNEFlagUntilTimeout+0x38>
 8003032:	694a      	ldr	r2, [r1, #20]
 8003034:	06d2      	lsls	r2, r2, #27
 8003036:	d50e      	bpl.n	8003056 <I2C_WaitOnRXNEFlagUntilTimeout+0x3a>
 8003038:	f06f 0210 	mvn.w	r2, #16
 800303c:	614a      	str	r2, [r1, #20]
 800303e:	2220      	movs	r2, #32
 8003040:	6323      	str	r3, [r4, #48]	; 0x30
 8003042:	f884 203d 	strb.w	r2, [r4, #61]	; 0x3d
 8003046:	f884 303e 	strb.w	r3, [r4, #62]	; 0x3e
 800304a:	6c22      	ldr	r2, [r4, #64]	; 0x40
 800304c:	2001      	movs	r0, #1
 800304e:	6422      	str	r2, [r4, #64]	; 0x40
 8003050:	f884 303c 	strb.w	r3, [r4, #60]	; 0x3c
 8003054:	bd70      	pop	{r4, r5, r6, pc}
 8003056:	f7ff fd39 	bl	8002acc <HAL_GetTick>
 800305a:	1b80      	subs	r0, r0, r6
 800305c:	42a8      	cmp	r0, r5
 800305e:	d801      	bhi.n	8003064 <I2C_WaitOnRXNEFlagUntilTimeout+0x48>
 8003060:	2d00      	cmp	r5, #0
 8003062:	d1df      	bne.n	8003024 <I2C_WaitOnRXNEFlagUntilTimeout+0x8>
 8003064:	2300      	movs	r3, #0
 8003066:	2220      	movs	r2, #32
 8003068:	6323      	str	r3, [r4, #48]	; 0x30
 800306a:	f884 203d 	strb.w	r2, [r4, #61]	; 0x3d
 800306e:	f884 303e 	strb.w	r3, [r4, #62]	; 0x3e
 8003072:	6c22      	ldr	r2, [r4, #64]	; 0x40
 8003074:	f042 0220 	orr.w	r2, r2, #32
 8003078:	e7e8      	b.n	800304c <I2C_WaitOnRXNEFlagUntilTimeout+0x30>

0800307a <I2C_WaitOnFlagUntilTimeout>:
 800307a:	e92d 46f8 	stmdb	sp!, {r3, r4, r5, r6, r7, r9, sl, lr}
 800307e:	4606      	mov	r6, r0
 8003080:	460f      	mov	r7, r1
 8003082:	4691      	mov	r9, r2
 8003084:	461d      	mov	r5, r3
 8003086:	ea4f 4a11 	mov.w	sl, r1, lsr #16
 800308a:	6833      	ldr	r3, [r6, #0]
 800308c:	f1ba 0f01 	cmp.w	sl, #1
 8003090:	bf0c      	ite	eq
 8003092:	695c      	ldreq	r4, [r3, #20]
 8003094:	699c      	ldrne	r4, [r3, #24]
 8003096:	ea27 0404 	bic.w	r4, r7, r4
 800309a:	b2a4      	uxth	r4, r4
 800309c:	fab4 f484 	clz	r4, r4
 80030a0:	0964      	lsrs	r4, r4, #5
 80030a2:	45a1      	cmp	r9, r4
 80030a4:	d001      	beq.n	80030aa <I2C_WaitOnFlagUntilTimeout+0x30>
 80030a6:	2000      	movs	r0, #0
 80030a8:	e017      	b.n	80030da <I2C_WaitOnFlagUntilTimeout+0x60>
 80030aa:	1c6a      	adds	r2, r5, #1
 80030ac:	d0ee      	beq.n	800308c <I2C_WaitOnFlagUntilTimeout+0x12>
 80030ae:	f7ff fd0d 	bl	8002acc <HAL_GetTick>
 80030b2:	9b08      	ldr	r3, [sp, #32]
 80030b4:	1ac0      	subs	r0, r0, r3
 80030b6:	42a8      	cmp	r0, r5
 80030b8:	d801      	bhi.n	80030be <I2C_WaitOnFlagUntilTimeout+0x44>
 80030ba:	2d00      	cmp	r5, #0
 80030bc:	d1e5      	bne.n	800308a <I2C_WaitOnFlagUntilTimeout+0x10>
 80030be:	2300      	movs	r3, #0
 80030c0:	2220      	movs	r2, #32
 80030c2:	2001      	movs	r0, #1
 80030c4:	6333      	str	r3, [r6, #48]	; 0x30
 80030c6:	f886 203d 	strb.w	r2, [r6, #61]	; 0x3d
 80030ca:	f886 303e 	strb.w	r3, [r6, #62]	; 0x3e
 80030ce:	6c32      	ldr	r2, [r6, #64]	; 0x40
 80030d0:	f886 303c 	strb.w	r3, [r6, #60]	; 0x3c
 80030d4:	f042 0220 	orr.w	r2, r2, #32
 80030d8:	6432      	str	r2, [r6, #64]	; 0x40
 80030da:	e8bd 86f8 	ldmia.w	sp!, {r3, r4, r5, r6, r7, r9, sl, pc}

080030de <I2C_WaitOnTXEFlagUntilTimeout>:
 80030de:	b570      	push	{r4, r5, r6, lr}
 80030e0:	4604      	mov	r4, r0
 80030e2:	460d      	mov	r5, r1
 80030e4:	4616      	mov	r6, r2
 80030e6:	6823      	ldr	r3, [r4, #0]
 80030e8:	695b      	ldr	r3, [r3, #20]
 80030ea:	061b      	lsls	r3, r3, #24
 80030ec:	d501      	bpl.n	80030f2 <I2C_WaitOnTXEFlagUntilTimeout+0x14>
 80030ee:	2000      	movs	r0, #0
 80030f0:	bd70      	pop	{r4, r5, r6, pc}
 80030f2:	4620      	mov	r0, r4
 80030f4:	f7ff ff18 	bl	8002f28 <I2C_IsAcknowledgeFailed>
 80030f8:	b9a8      	cbnz	r0, 8003126 <I2C_WaitOnTXEFlagUntilTimeout+0x48>
 80030fa:	1c6a      	adds	r2, r5, #1
 80030fc:	d0f3      	beq.n	80030e6 <I2C_WaitOnTXEFlagUntilTimeout+0x8>
 80030fe:	f7ff fce5 	bl	8002acc <HAL_GetTick>
 8003102:	1b80      	subs	r0, r0, r6
 8003104:	42a8      	cmp	r0, r5
 8003106:	d801      	bhi.n	800310c <I2C_WaitOnTXEFlagUntilTimeout+0x2e>
 8003108:	2d00      	cmp	r5, #0
 800310a:	d1ec      	bne.n	80030e6 <I2C_WaitOnTXEFlagUntilTimeout+0x8>
 800310c:	2300      	movs	r3, #0
 800310e:	2220      	movs	r2, #32
 8003110:	6323      	str	r3, [r4, #48]	; 0x30
 8003112:	f884 203d 	strb.w	r2, [r4, #61]	; 0x3d
 8003116:	f884 303e 	strb.w	r3, [r4, #62]	; 0x3e
 800311a:	6c22      	ldr	r2, [r4, #64]	; 0x40
 800311c:	f884 303c 	strb.w	r3, [r4, #60]	; 0x3c
 8003120:	f042 0220 	orr.w	r2, r2, #32
 8003124:	6422      	str	r2, [r4, #64]	; 0x40
 8003126:	2001      	movs	r0, #1
 8003128:	e7e2      	b.n	80030f0 <I2C_WaitOnTXEFlagUntilTimeout+0x12>
	...

0800312c <I2C_RequestMemoryWrite>:
 800312c:	e92d 43f0 	stmdb	sp!, {r4, r5, r6, r7, r8, r9, lr}
 8003130:	4615      	mov	r5, r2
 8003132:	6802      	ldr	r2, [r0, #0]
 8003134:	4699      	mov	r9, r3
 8003136:	6813      	ldr	r3, [r2, #0]
 8003138:	b085      	sub	sp, #20
 800313a:	f443 7380 	orr.w	r3, r3, #256	; 0x100
 800313e:	6013      	str	r3, [r2, #0]
 8003140:	e9dd 780c 	ldrd	r7, r8, [sp, #48]	; 0x30
 8003144:	460e      	mov	r6, r1
 8003146:	463b      	mov	r3, r7
 8003148:	2200      	movs	r2, #0
 800314a:	f04f 1101 	mov.w	r1, #65537	; 0x10001
 800314e:	f8cd 8000 	str.w	r8, [sp]
 8003152:	4604      	mov	r4, r0
 8003154:	f7ff ff91 	bl	800307a <I2C_WaitOnFlagUntilTimeout>
 8003158:	6823      	ldr	r3, [r4, #0]
 800315a:	b138      	cbz	r0, 800316c <I2C_RequestMemoryWrite+0x40>
 800315c:	681b      	ldr	r3, [r3, #0]
 800315e:	05db      	lsls	r3, r3, #23
 8003160:	d502      	bpl.n	8003168 <I2C_RequestMemoryWrite+0x3c>
 8003162:	f44f 7300 	mov.w	r3, #512	; 0x200
 8003166:	6423      	str	r3, [r4, #64]	; 0x40
 8003168:	2003      	movs	r0, #3
 800316a:	e00a      	b.n	8003182 <I2C_RequestMemoryWrite+0x56>
 800316c:	f006 06fe 	and.w	r6, r6, #254	; 0xfe
 8003170:	611e      	str	r6, [r3, #16]
 8003172:	463a      	mov	r2, r7
 8003174:	4643      	mov	r3, r8
 8003176:	4620      	mov	r0, r4
 8003178:	4917      	ldr	r1, [pc, #92]	; (80031d8 <I2C_RequestMemoryWrite+0xac>)
 800317a:	f7ff feee 	bl	8002f5a <I2C_WaitOnMasterAddressFlagUntilTimeout>
 800317e:	b118      	cbz	r0, 8003188 <I2C_RequestMemoryWrite+0x5c>
 8003180:	2001      	movs	r0, #1
 8003182:	b005      	add	sp, #20
 8003184:	e8bd 83f0 	ldmia.w	sp!, {r4, r5, r6, r7, r8, r9, pc}
 8003188:	6823      	ldr	r3, [r4, #0]
 800318a:	9003      	str	r0, [sp, #12]
 800318c:	695a      	ldr	r2, [r3, #20]
 800318e:	4639      	mov	r1, r7
 8003190:	9203      	str	r2, [sp, #12]
 8003192:	699b      	ldr	r3, [r3, #24]
 8003194:	4642      	mov	r2, r8
 8003196:	9303      	str	r3, [sp, #12]
 8003198:	4620      	mov	r0, r4
 800319a:	9b03      	ldr	r3, [sp, #12]
 800319c:	f7ff ff9f 	bl	80030de <I2C_WaitOnTXEFlagUntilTimeout>
 80031a0:	b140      	cbz	r0, 80031b4 <I2C_RequestMemoryWrite+0x88>
 80031a2:	6c23      	ldr	r3, [r4, #64]	; 0x40
 80031a4:	2b04      	cmp	r3, #4
 80031a6:	bf01      	itttt	eq
 80031a8:	6822      	ldreq	r2, [r4, #0]
 80031aa:	6813      	ldreq	r3, [r2, #0]
 80031ac:	f443 7300 	orreq.w	r3, r3, #512	; 0x200
 80031b0:	6013      	streq	r3, [r2, #0]
 80031b2:	e7e5      	b.n	8003180 <I2C_RequestMemoryWrite+0x54>
 80031b4:	f1b9 0f01 	cmp.w	r9, #1
 80031b8:	6823      	ldr	r3, [r4, #0]
 80031ba:	d102      	bne.n	80031c2 <I2C_RequestMemoryWrite+0x96>
 80031bc:	b2ed      	uxtb	r5, r5
 80031be:	611d      	str	r5, [r3, #16]
 80031c0:	e7df      	b.n	8003182 <I2C_RequestMemoryWrite+0x56>
 80031c2:	0a2a      	lsrs	r2, r5, #8
 80031c4:	611a      	str	r2, [r3, #16]
 80031c6:	4639      	mov	r1, r7
 80031c8:	4642      	mov	r2, r8
 80031ca:	4620      	mov	r0, r4
 80031cc:	f7ff ff87 	bl	80030de <I2C_WaitOnTXEFlagUntilTimeout>
 80031d0:	2800      	cmp	r0, #0
 80031d2:	d1e6      	bne.n	80031a2 <I2C_RequestMemoryWrite+0x76>
 80031d4:	6823      	ldr	r3, [r4, #0]
 80031d6:	e7f1      	b.n	80031bc <I2C_RequestMemoryWrite+0x90>
 80031d8:	00010002 	.word	0x00010002

080031dc <I2C_RequestMemoryRead>:
 80031dc:	e92d 47ff 	stmdb	sp!, {r0, r1, r2, r3, r4, r5, r6, r7, r8, r9, sl, lr}
 80031e0:	469a      	mov	sl, r3
 80031e2:	e9dd 780c 	ldrd	r7, r8, [sp, #48]	; 0x30
 80031e6:	6803      	ldr	r3, [r0, #0]
 80031e8:	4615      	mov	r5, r2
 80031ea:	681a      	ldr	r2, [r3, #0]
 80031ec:	460e      	mov	r6, r1
 80031ee:	f442 6280 	orr.w	r2, r2, #1024	; 0x400
 80031f2:	601a      	str	r2, [r3, #0]
 80031f4:	681a      	ldr	r2, [r3, #0]
 80031f6:	f04f 1101 	mov.w	r1, #65537	; 0x10001
 80031fa:	f442 7280 	orr.w	r2, r2, #256	; 0x100
 80031fe:	601a      	str	r2, [r3, #0]
 8003200:	463b      	mov	r3, r7
 8003202:	2200      	movs	r2, #0
 8003204:	f8cd 8000 	str.w	r8, [sp]
 8003208:	4604      	mov	r4, r0
 800320a:	f7ff ff36 	bl	800307a <I2C_WaitOnFlagUntilTimeout>
 800320e:	6823      	ldr	r3, [r4, #0]
 8003210:	b148      	cbz	r0, 8003226 <I2C_RequestMemoryRead+0x4a>
 8003212:	681b      	ldr	r3, [r3, #0]
 8003214:	05db      	lsls	r3, r3, #23
 8003216:	d502      	bpl.n	800321e <I2C_RequestMemoryRead+0x42>
 8003218:	f44f 7300 	mov.w	r3, #512	; 0x200
 800321c:	6423      	str	r3, [r4, #64]	; 0x40
 800321e:	2003      	movs	r0, #3
 8003220:	b004      	add	sp, #16
 8003222:	e8bd 87f0 	ldmia.w	sp!, {r4, r5, r6, r7, r8, r9, sl, pc}
 8003226:	fa5f f986 	uxtb.w	r9, r6
 800322a:	f006 06fe 	and.w	r6, r6, #254	; 0xfe
 800322e:	611e      	str	r6, [r3, #16]
 8003230:	463a      	mov	r2, r7
 8003232:	4643      	mov	r3, r8
 8003234:	4620      	mov	r0, r4
 8003236:	4929      	ldr	r1, [pc, #164]	; (80032dc <I2C_RequestMemoryRead+0x100>)
 8003238:	f7ff fe8f 	bl	8002f5a <I2C_WaitOnMasterAddressFlagUntilTimeout>
 800323c:	b108      	cbz	r0, 8003242 <I2C_RequestMemoryRead+0x66>
 800323e:	2001      	movs	r0, #1
 8003240:	e7ee      	b.n	8003220 <I2C_RequestMemoryRead+0x44>
 8003242:	6823      	ldr	r3, [r4, #0]
 8003244:	9003      	str	r0, [sp, #12]
 8003246:	695a      	ldr	r2, [r3, #20]
 8003248:	4639      	mov	r1, r7
 800324a:	9203      	str	r2, [sp, #12]
 800324c:	699b      	ldr	r3, [r3, #24]
 800324e:	4642      	mov	r2, r8
 8003250:	9303      	str	r3, [sp, #12]
 8003252:	4620      	mov	r0, r4
 8003254:	9b03      	ldr	r3, [sp, #12]
 8003256:	f7ff ff42 	bl	80030de <I2C_WaitOnTXEFlagUntilTimeout>
 800325a:	b140      	cbz	r0, 800326e <I2C_RequestMemoryRead+0x92>
 800325c:	6c23      	ldr	r3, [r4, #64]	; 0x40
 800325e:	2b04      	cmp	r3, #4
 8003260:	bf01      	itttt	eq
 8003262:	6822      	ldreq	r2, [r4, #0]
 8003264:	6813      	ldreq	r3, [r2, #0]
 8003266:	f443 7300 	orreq.w	r3, r3, #512	; 0x200
 800326a:	6013      	streq	r3, [r2, #0]
 800326c:	e7e7      	b.n	800323e <I2C_RequestMemoryRead+0x62>
 800326e:	f1ba 0f01 	cmp.w	sl, #1
 8003272:	6823      	ldr	r3, [r4, #0]
 8003274:	d11a      	bne.n	80032ac <I2C_RequestMemoryRead+0xd0>
 8003276:	b2ed      	uxtb	r5, r5
 8003278:	4642      	mov	r2, r8
 800327a:	4639      	mov	r1, r7
 800327c:	4620      	mov	r0, r4
 800327e:	611d      	str	r5, [r3, #16]
 8003280:	f7ff ff2d 	bl	80030de <I2C_WaitOnTXEFlagUntilTimeout>
 8003284:	4602      	mov	r2, r0
 8003286:	2800      	cmp	r0, #0
 8003288:	d1e8      	bne.n	800325c <I2C_RequestMemoryRead+0x80>
 800328a:	6821      	ldr	r1, [r4, #0]
 800328c:	4620      	mov	r0, r4
 800328e:	680b      	ldr	r3, [r1, #0]
 8003290:	f443 7380 	orr.w	r3, r3, #256	; 0x100
 8003294:	600b      	str	r3, [r1, #0]
 8003296:	463b      	mov	r3, r7
 8003298:	f04f 1101 	mov.w	r1, #65537	; 0x10001
 800329c:	f8cd 8000 	str.w	r8, [sp]
 80032a0:	f7ff feeb 	bl	800307a <I2C_WaitOnFlagUntilTimeout>
 80032a4:	6822      	ldr	r2, [r4, #0]
 80032a6:	b160      	cbz	r0, 80032c2 <I2C_RequestMemoryRead+0xe6>
 80032a8:	6813      	ldr	r3, [r2, #0]
 80032aa:	e7b3      	b.n	8003214 <I2C_RequestMemoryRead+0x38>
 80032ac:	0a2a      	lsrs	r2, r5, #8
 80032ae:	611a      	str	r2, [r3, #16]
 80032b0:	4639      	mov	r1, r7
 80032b2:	4642      	mov	r2, r8
 80032b4:	4620      	mov	r0, r4
 80032b6:	f7ff ff12 	bl	80030de <I2C_WaitOnTXEFlagUntilTimeout>
 80032ba:	2800      	cmp	r0, #0
 80032bc:	d1ce      	bne.n	800325c <I2C_RequestMemoryRead+0x80>
 80032be:	6823      	ldr	r3, [r4, #0]
 80032c0:	e7d9      	b.n	8003276 <I2C_RequestMemoryRead+0x9a>
 80032c2:	f049 0301 	orr.w	r3, r9, #1
 80032c6:	6113      	str	r3, [r2, #16]
 80032c8:	4620      	mov	r0, r4
 80032ca:	4643      	mov	r3, r8
 80032cc:	463a      	mov	r2, r7
 80032ce:	4903      	ldr	r1, [pc, #12]	; (80032dc <I2C_RequestMemoryRead+0x100>)
 80032d0:	f7ff fe43 	bl	8002f5a <I2C_WaitOnMasterAddressFlagUntilTimeout>
 80032d4:	3800      	subs	r0, #0
 80032d6:	bf18      	it	ne
 80032d8:	2001      	movne	r0, #1
 80032da:	e7a1      	b.n	8003220 <I2C_RequestMemoryRead+0x44>
 80032dc:	00010002 	.word	0x00010002

080032e0 <HAL_I2C_Init>:
 80032e0:	b570      	push	{r4, r5, r6, lr}
 80032e2:	4604      	mov	r4, r0
 80032e4:	b908      	cbnz	r0, 80032ea <HAL_I2C_Init+0xa>
 80032e6:	2001      	movs	r0, #1
 80032e8:	bd70      	pop	{r4, r5, r6, pc}
 80032ea:	f890 303d 	ldrb.w	r3, [r0, #61]	; 0x3d
 80032ee:	f003 02ff 	and.w	r2, r3, #255	; 0xff
 80032f2:	b91b      	cbnz	r3, 80032fc <HAL_I2C_Init+0x1c>
 80032f4:	f880 203c 	strb.w	r2, [r0, #60]	; 0x3c
 80032f8:	f7ff f9cc 	bl	8002694 <HAL_I2C_MspInit>
 80032fc:	2324      	movs	r3, #36	; 0x24
 80032fe:	f884 303d 	strb.w	r3, [r4, #61]	; 0x3d
 8003302:	6823      	ldr	r3, [r4, #0]
 8003304:	681a      	ldr	r2, [r3, #0]
 8003306:	f022 0201 	bic.w	r2, r2, #1
 800330a:	601a      	str	r2, [r3, #0]
 800330c:	681a      	ldr	r2, [r3, #0]
 800330e:	f442 4200 	orr.w	r2, r2, #32768	; 0x8000
 8003312:	601a      	str	r2, [r3, #0]
 8003314:	681a      	ldr	r2, [r3, #0]
 8003316:	f422 4200 	bic.w	r2, r2, #32768	; 0x8000
 800331a:	601a      	str	r2, [r3, #0]
 800331c:	f000 fce2 	bl	8003ce4 <HAL_RCC_GetPCLK1Freq>
 8003320:	4a3f      	ldr	r2, [pc, #252]	; (8003420 <HAL_I2C_Init+0x140>)
 8003322:	6863      	ldr	r3, [r4, #4]
 8003324:	4293      	cmp	r3, r2
 8003326:	bf94      	ite	ls
 8003328:	4a3e      	ldrls	r2, [pc, #248]	; (8003424 <HAL_I2C_Init+0x144>)
 800332a:	4a3f      	ldrhi	r2, [pc, #252]	; (8003428 <HAL_I2C_Init+0x148>)
 800332c:	4290      	cmp	r0, r2
 800332e:	bf8c      	ite	hi
 8003330:	2200      	movhi	r2, #0
 8003332:	2201      	movls	r2, #1
 8003334:	2a00      	cmp	r2, #0
 8003336:	d1d6      	bne.n	80032e6 <HAL_I2C_Init+0x6>
 8003338:	4e3c      	ldr	r6, [pc, #240]	; (800342c <HAL_I2C_Init+0x14c>)
 800333a:	6822      	ldr	r2, [r4, #0]
 800333c:	fbb0 f6f6 	udiv	r6, r0, r6
 8003340:	6851      	ldr	r1, [r2, #4]
 8003342:	3801      	subs	r0, #1
 8003344:	f021 013f 	bic.w	r1, r1, #63	; 0x3f
 8003348:	4331      	orrs	r1, r6
 800334a:	6051      	str	r1, [r2, #4]
 800334c:	4934      	ldr	r1, [pc, #208]	; (8003420 <HAL_I2C_Init+0x140>)
 800334e:	6a15      	ldr	r5, [r2, #32]
 8003350:	428b      	cmp	r3, r1
 8003352:	bf81      	itttt	hi
 8003354:	f44f 7196 	movhi.w	r1, #300	; 0x12c
 8003358:	4371      	mulhi	r1, r6
 800335a:	f44f 767a 	movhi.w	r6, #1000	; 0x3e8
 800335e:	fbb1 f1f6 	udivhi	r1, r1, r6
 8003362:	f025 053f 	bic.w	r5, r5, #63	; 0x3f
 8003366:	bf94      	ite	ls
 8003368:	1c71      	addls	r1, r6, #1
 800336a:	3101      	addhi	r1, #1
 800336c:	4329      	orrs	r1, r5
 800336e:	6211      	str	r1, [r2, #32]
 8003370:	69d1      	ldr	r1, [r2, #28]
 8003372:	4d2b      	ldr	r5, [pc, #172]	; (8003420 <HAL_I2C_Init+0x140>)
 8003374:	f421 414f 	bic.w	r1, r1, #52992	; 0xcf00
 8003378:	42ab      	cmp	r3, r5
 800337a:	f021 01ff 	bic.w	r1, r1, #255	; 0xff
 800337e:	d832      	bhi.n	80033e6 <HAL_I2C_Init+0x106>
 8003380:	005b      	lsls	r3, r3, #1
 8003382:	fbb0 f0f3 	udiv	r0, r0, r3
 8003386:	1c43      	adds	r3, r0, #1
 8003388:	f640 70fc 	movw	r0, #4092	; 0xffc
 800338c:	4203      	tst	r3, r0
 800338e:	d042      	beq.n	8003416 <HAL_I2C_Init+0x136>
 8003390:	f3c3 030b 	ubfx	r3, r3, #0, #12
 8003394:	430b      	orrs	r3, r1
 8003396:	61d3      	str	r3, [r2, #28]
 8003398:	6811      	ldr	r1, [r2, #0]
 800339a:	e9d4 3007 	ldrd	r3, r0, [r4, #28]
 800339e:	f021 01c0 	bic.w	r1, r1, #192	; 0xc0
 80033a2:	4303      	orrs	r3, r0
 80033a4:	430b      	orrs	r3, r1
 80033a6:	6013      	str	r3, [r2, #0]
 80033a8:	6891      	ldr	r1, [r2, #8]
 80033aa:	e9d4 0303 	ldrd	r0, r3, [r4, #12]
 80033ae:	f421 4103 	bic.w	r1, r1, #33536	; 0x8300
 80033b2:	4303      	orrs	r3, r0
 80033b4:	f021 01ff 	bic.w	r1, r1, #255	; 0xff
 80033b8:	430b      	orrs	r3, r1
 80033ba:	6093      	str	r3, [r2, #8]
 80033bc:	68d1      	ldr	r1, [r2, #12]
 80033be:	e9d4 3005 	ldrd	r3, r0, [r4, #20]
 80033c2:	f021 01ff 	bic.w	r1, r1, #255	; 0xff
 80033c6:	4303      	orrs	r3, r0
 80033c8:	430b      	orrs	r3, r1
 80033ca:	60d3      	str	r3, [r2, #12]
 80033cc:	6813      	ldr	r3, [r2, #0]
 80033ce:	2000      	movs	r0, #0
 80033d0:	f043 0301 	orr.w	r3, r3, #1
 80033d4:	6013      	str	r3, [r2, #0]
 80033d6:	2320      	movs	r3, #32
 80033d8:	6420      	str	r0, [r4, #64]	; 0x40
 80033da:	f884 303d 	strb.w	r3, [r4, #61]	; 0x3d
 80033de:	6320      	str	r0, [r4, #48]	; 0x30
 80033e0:	f884 003e 	strb.w	r0, [r4, #62]	; 0x3e
 80033e4:	e780      	b.n	80032e8 <HAL_I2C_Init+0x8>
 80033e6:	68a5      	ldr	r5, [r4, #8]
 80033e8:	b955      	cbnz	r5, 8003400 <HAL_I2C_Init+0x120>
 80033ea:	eb03 0343 	add.w	r3, r3, r3, lsl #1
 80033ee:	fbb0 f3f3 	udiv	r3, r0, r3
 80033f2:	3301      	adds	r3, #1
 80033f4:	f3c3 030b 	ubfx	r3, r3, #0, #12
 80033f8:	b17b      	cbz	r3, 800341a <HAL_I2C_Init+0x13a>
 80033fa:	f443 4300 	orr.w	r3, r3, #32768	; 0x8000
 80033fe:	e7c9      	b.n	8003394 <HAL_I2C_Init+0xb4>
 8003400:	2519      	movs	r5, #25
 8003402:	436b      	muls	r3, r5
 8003404:	fbb0 f3f3 	udiv	r3, r0, r3
 8003408:	3301      	adds	r3, #1
 800340a:	f3c3 030b 	ubfx	r3, r3, #0, #12
 800340e:	b123      	cbz	r3, 800341a <HAL_I2C_Init+0x13a>
 8003410:	f443 4340 	orr.w	r3, r3, #49152	; 0xc000
 8003414:	e7be      	b.n	8003394 <HAL_I2C_Init+0xb4>
 8003416:	2304      	movs	r3, #4
 8003418:	e7bc      	b.n	8003394 <HAL_I2C_Init+0xb4>
 800341a:	2301      	movs	r3, #1
 800341c:	e7ba      	b.n	8003394 <HAL_I2C_Init+0xb4>
 800341e:	bf00      	nop
 8003420:	000186a0 	.word	0x000186a0
 8003424:	001e847f 	.word	0x001e847f
 8003428:	003d08ff 	.word	0x003d08ff
 800342c:	000f4240 	.word	0x000f4240

08003430 <HAL_I2C_DeInit>:
 8003430:	b510      	push	{r4, lr}
 8003432:	4604      	mov	r4, r0
 8003434:	b198      	cbz	r0, 800345e <HAL_I2C_DeInit+0x2e>
 8003436:	2324      	movs	r3, #36	; 0x24
 8003438:	6802      	ldr	r2, [r0, #0]
 800343a:	f880 303d 	strb.w	r3, [r0, #61]	; 0x3d
 800343e:	6813      	ldr	r3, [r2, #0]
 8003440:	f023 0301 	bic.w	r3, r3, #1
 8003444:	6013      	str	r3, [r2, #0]
 8003446:	f7ff f957 	bl	80026f8 <HAL_I2C_MspDeInit>
 800344a:	2000      	movs	r0, #0
 800344c:	6420      	str	r0, [r4, #64]	; 0x40
 800344e:	f884 003c 	strb.w	r0, [r4, #60]	; 0x3c
 8003452:	f884 003d 	strb.w	r0, [r4, #61]	; 0x3d
 8003456:	6320      	str	r0, [r4, #48]	; 0x30
 8003458:	f884 003e 	strb.w	r0, [r4, #62]	; 0x3e
 800345c:	bd10      	pop	{r4, pc}
 800345e:	2001      	movs	r0, #1
 8003460:	e7fc      	b.n	800345c <HAL_I2C_DeInit+0x2c>
	...

08003464 <HAL_I2C_Mem_Write>:
 8003464:	e92d 43f7 	stmdb	sp!, {r0, r1, r2, r4, r5, r6, r7, r8, r9, lr}
 8003468:	4604      	mov	r4, r0
 800346a:	4699      	mov	r9, r3
 800346c:	460f      	mov	r7, r1
 800346e:	4690      	mov	r8, r2
 8003470:	9e0c      	ldr	r6, [sp, #48]	; 0x30
 8003472:	f7ff fb2b 	bl	8002acc <HAL_GetTick>
 8003476:	f894 303d 	ldrb.w	r3, [r4, #61]	; 0x3d
 800347a:	4605      	mov	r5, r0
 800347c:	2b20      	cmp	r3, #32
 800347e:	d003      	beq.n	8003488 <HAL_I2C_Mem_Write+0x24>
 8003480:	2002      	movs	r0, #2
 8003482:	b003      	add	sp, #12
 8003484:	e8bd 83f0 	ldmia.w	sp!, {r4, r5, r6, r7, r8, r9, pc}
 8003488:	9000      	str	r0, [sp, #0]
 800348a:	2319      	movs	r3, #25
 800348c:	2201      	movs	r2, #1
 800348e:	4620      	mov	r0, r4
 8003490:	493a      	ldr	r1, [pc, #232]	; (800357c <HAL_I2C_Mem_Write+0x118>)
 8003492:	f7ff fdf2 	bl	800307a <I2C_WaitOnFlagUntilTimeout>
 8003496:	2800      	cmp	r0, #0
 8003498:	d1f2      	bne.n	8003480 <HAL_I2C_Mem_Write+0x1c>
 800349a:	f894 303c 	ldrb.w	r3, [r4, #60]	; 0x3c
 800349e:	2b01      	cmp	r3, #1
 80034a0:	d0ee      	beq.n	8003480 <HAL_I2C_Mem_Write+0x1c>
 80034a2:	2301      	movs	r3, #1
 80034a4:	6820      	ldr	r0, [r4, #0]
 80034a6:	f884 303c 	strb.w	r3, [r4, #60]	; 0x3c
 80034aa:	6803      	ldr	r3, [r0, #0]
 80034ac:	4642      	mov	r2, r8
 80034ae:	07d9      	lsls	r1, r3, #31
 80034b0:	bf58      	it	pl
 80034b2:	6803      	ldrpl	r3, [r0, #0]
 80034b4:	4639      	mov	r1, r7
 80034b6:	bf5c      	itt	pl
 80034b8:	f043 0301 	orrpl.w	r3, r3, #1
 80034bc:	6003      	strpl	r3, [r0, #0]
 80034be:	6803      	ldr	r3, [r0, #0]
 80034c0:	f423 6300 	bic.w	r3, r3, #2048	; 0x800
 80034c4:	6003      	str	r3, [r0, #0]
 80034c6:	2321      	movs	r3, #33	; 0x21
 80034c8:	f884 303d 	strb.w	r3, [r4, #61]	; 0x3d
 80034cc:	2340      	movs	r3, #64	; 0x40
 80034ce:	f884 303e 	strb.w	r3, [r4, #62]	; 0x3e
 80034d2:	2300      	movs	r3, #0
 80034d4:	6423      	str	r3, [r4, #64]	; 0x40
 80034d6:	9b0a      	ldr	r3, [sp, #40]	; 0x28
 80034d8:	4620      	mov	r0, r4
 80034da:	6263      	str	r3, [r4, #36]	; 0x24
 80034dc:	f8bd 302c 	ldrh.w	r3, [sp, #44]	; 0x2c
 80034e0:	e9cd 6500 	strd	r6, r5, [sp]
 80034e4:	8563      	strh	r3, [r4, #42]	; 0x2a
 80034e6:	8d63      	ldrh	r3, [r4, #42]	; 0x2a
 80034e8:	8523      	strh	r3, [r4, #40]	; 0x28
 80034ea:	4b25      	ldr	r3, [pc, #148]	; (8003580 <HAL_I2C_Mem_Write+0x11c>)
 80034ec:	62e3      	str	r3, [r4, #44]	; 0x2c
 80034ee:	464b      	mov	r3, r9
 80034f0:	f7ff fe1c 	bl	800312c <I2C_RequestMemoryWrite>
 80034f4:	2800      	cmp	r0, #0
 80034f6:	d02a      	beq.n	800354e <HAL_I2C_Mem_Write+0xea>
 80034f8:	2001      	movs	r0, #1
 80034fa:	e7c2      	b.n	8003482 <HAL_I2C_Mem_Write+0x1e>
 80034fc:	f7ff fdef 	bl	80030de <I2C_WaitOnTXEFlagUntilTimeout>
 8003500:	b140      	cbz	r0, 8003514 <HAL_I2C_Mem_Write+0xb0>
 8003502:	6c23      	ldr	r3, [r4, #64]	; 0x40
 8003504:	2b04      	cmp	r3, #4
 8003506:	bf01      	itttt	eq
 8003508:	6822      	ldreq	r2, [r4, #0]
 800350a:	6813      	ldreq	r3, [r2, #0]
 800350c:	f443 7300 	orreq.w	r3, r3, #512	; 0x200
 8003510:	6013      	streq	r3, [r2, #0]
 8003512:	e7f1      	b.n	80034f8 <HAL_I2C_Mem_Write+0x94>
 8003514:	6a63      	ldr	r3, [r4, #36]	; 0x24
 8003516:	6827      	ldr	r7, [r4, #0]
 8003518:	461a      	mov	r2, r3
 800351a:	f812 1b01 	ldrb.w	r1, [r2], #1
 800351e:	6139      	str	r1, [r7, #16]
 8003520:	6262      	str	r2, [r4, #36]	; 0x24
 8003522:	8d62      	ldrh	r2, [r4, #42]	; 0x2a
 8003524:	8d21      	ldrh	r1, [r4, #40]	; 0x28
 8003526:	3a01      	subs	r2, #1
 8003528:	b292      	uxth	r2, r2
 800352a:	8562      	strh	r2, [r4, #42]	; 0x2a
 800352c:	697a      	ldr	r2, [r7, #20]
 800352e:	1e48      	subs	r0, r1, #1
 8003530:	b280      	uxth	r0, r0
 8003532:	0752      	lsls	r2, r2, #29
 8003534:	8520      	strh	r0, [r4, #40]	; 0x28
 8003536:	d50a      	bpl.n	800354e <HAL_I2C_Mem_Write+0xea>
 8003538:	b148      	cbz	r0, 800354e <HAL_I2C_Mem_Write+0xea>
 800353a:	785a      	ldrb	r2, [r3, #1]
 800353c:	3302      	adds	r3, #2
 800353e:	613a      	str	r2, [r7, #16]
 8003540:	6263      	str	r3, [r4, #36]	; 0x24
 8003542:	8d63      	ldrh	r3, [r4, #42]	; 0x2a
 8003544:	3902      	subs	r1, #2
 8003546:	3b01      	subs	r3, #1
 8003548:	b29b      	uxth	r3, r3
 800354a:	8521      	strh	r1, [r4, #40]	; 0x28
 800354c:	8563      	strh	r3, [r4, #42]	; 0x2a
 800354e:	8d23      	ldrh	r3, [r4, #40]	; 0x28
 8003550:	462a      	mov	r2, r5
 8003552:	4631      	mov	r1, r6
 8003554:	4620      	mov	r0, r4
 8003556:	2b00      	cmp	r3, #0
 8003558:	d1d0      	bne.n	80034fc <HAL_I2C_Mem_Write+0x98>
 800355a:	f7ff fd39 	bl	8002fd0 <I2C_WaitOnBTFFlagUntilTimeout>
 800355e:	2800      	cmp	r0, #0
 8003560:	d1cf      	bne.n	8003502 <HAL_I2C_Mem_Write+0x9e>
 8003562:	6822      	ldr	r2, [r4, #0]
 8003564:	6813      	ldr	r3, [r2, #0]
 8003566:	f443 7300 	orr.w	r3, r3, #512	; 0x200
 800356a:	6013      	str	r3, [r2, #0]
 800356c:	2320      	movs	r3, #32
 800356e:	f884 003c 	strb.w	r0, [r4, #60]	; 0x3c
 8003572:	f884 303d 	strb.w	r3, [r4, #61]	; 0x3d
 8003576:	f884 003e 	strb.w	r0, [r4, #62]	; 0x3e
 800357a:	e782      	b.n	8003482 <HAL_I2C_Mem_Write+0x1e>
 800357c:	00100002 	.word	0x00100002
 8003580:	ffff0000 	.word	0xffff0000

08003584 <HAL_I2C_Mem_Read>:
 8003584:	e92d 43f0 	stmdb	sp!, {r4, r5, r6, r7, r8, r9, lr}
 8003588:	4699      	mov	r9, r3
 800358a:	2300      	movs	r3, #0
 800358c:	4604      	mov	r4, r0
 800358e:	b089      	sub	sp, #36	; 0x24
 8003590:	9303      	str	r3, [sp, #12]
 8003592:	460d      	mov	r5, r1
 8003594:	4690      	mov	r8, r2
 8003596:	9f12      	ldr	r7, [sp, #72]	; 0x48
 8003598:	f7ff fa98 	bl	8002acc <HAL_GetTick>
 800359c:	f894 303d 	ldrb.w	r3, [r4, #61]	; 0x3d
 80035a0:	4606      	mov	r6, r0
 80035a2:	2b20      	cmp	r3, #32
 80035a4:	d004      	beq.n	80035b0 <HAL_I2C_Mem_Read+0x2c>
 80035a6:	2502      	movs	r5, #2
 80035a8:	4628      	mov	r0, r5
 80035aa:	b009      	add	sp, #36	; 0x24
 80035ac:	e8bd 83f0 	ldmia.w	sp!, {r4, r5, r6, r7, r8, r9, pc}
 80035b0:	9000      	str	r0, [sp, #0]
 80035b2:	2319      	movs	r3, #25
 80035b4:	2201      	movs	r2, #1
 80035b6:	4620      	mov	r0, r4
 80035b8:	498d      	ldr	r1, [pc, #564]	; (80037f0 <HAL_I2C_Mem_Read+0x26c>)
 80035ba:	f7ff fd5e 	bl	800307a <I2C_WaitOnFlagUntilTimeout>
 80035be:	2800      	cmp	r0, #0
 80035c0:	d1f1      	bne.n	80035a6 <HAL_I2C_Mem_Read+0x22>
 80035c2:	f894 303c 	ldrb.w	r3, [r4, #60]	; 0x3c
 80035c6:	2b01      	cmp	r3, #1
 80035c8:	d0ed      	beq.n	80035a6 <HAL_I2C_Mem_Read+0x22>
 80035ca:	2301      	movs	r3, #1
 80035cc:	6820      	ldr	r0, [r4, #0]
 80035ce:	f884 303c 	strb.w	r3, [r4, #60]	; 0x3c
 80035d2:	6803      	ldr	r3, [r0, #0]
 80035d4:	4629      	mov	r1, r5
 80035d6:	07db      	lsls	r3, r3, #31
 80035d8:	bf58      	it	pl
 80035da:	6803      	ldrpl	r3, [r0, #0]
 80035dc:	4642      	mov	r2, r8
 80035de:	bf5c      	itt	pl
 80035e0:	f043 0301 	orrpl.w	r3, r3, #1
 80035e4:	6003      	strpl	r3, [r0, #0]
 80035e6:	6803      	ldr	r3, [r0, #0]
 80035e8:	f423 6300 	bic.w	r3, r3, #2048	; 0x800
 80035ec:	6003      	str	r3, [r0, #0]
 80035ee:	2322      	movs	r3, #34	; 0x22
 80035f0:	f884 303d 	strb.w	r3, [r4, #61]	; 0x3d
 80035f4:	2340      	movs	r3, #64	; 0x40
 80035f6:	f884 303e 	strb.w	r3, [r4, #62]	; 0x3e
 80035fa:	2300      	movs	r3, #0
 80035fc:	6423      	str	r3, [r4, #64]	; 0x40
 80035fe:	9b10      	ldr	r3, [sp, #64]	; 0x40
 8003600:	4620      	mov	r0, r4
 8003602:	6263      	str	r3, [r4, #36]	; 0x24
 8003604:	f8bd 3044 	ldrh.w	r3, [sp, #68]	; 0x44
 8003608:	e9cd 7600 	strd	r7, r6, [sp]
 800360c:	8563      	strh	r3, [r4, #42]	; 0x2a
 800360e:	8d63      	ldrh	r3, [r4, #42]	; 0x2a
 8003610:	8523      	strh	r3, [r4, #40]	; 0x28
 8003612:	4b78      	ldr	r3, [pc, #480]	; (80037f4 <HAL_I2C_Mem_Read+0x270>)
 8003614:	62e3      	str	r3, [r4, #44]	; 0x2c
 8003616:	464b      	mov	r3, r9
 8003618:	f7ff fde0 	bl	80031dc <I2C_RequestMemoryRead>
 800361c:	4605      	mov	r5, r0
 800361e:	b108      	cbz	r0, 8003624 <HAL_I2C_Mem_Read+0xa0>
 8003620:	2501      	movs	r5, #1
 8003622:	e7c1      	b.n	80035a8 <HAL_I2C_Mem_Read+0x24>
 8003624:	8d22      	ldrh	r2, [r4, #40]	; 0x28
 8003626:	6823      	ldr	r3, [r4, #0]
 8003628:	b9c2      	cbnz	r2, 800365c <HAL_I2C_Mem_Read+0xd8>
 800362a:	9004      	str	r0, [sp, #16]
 800362c:	695a      	ldr	r2, [r3, #20]
 800362e:	9204      	str	r2, [sp, #16]
 8003630:	699a      	ldr	r2, [r3, #24]
 8003632:	9204      	str	r2, [sp, #16]
 8003634:	9a04      	ldr	r2, [sp, #16]
 8003636:	681a      	ldr	r2, [r3, #0]
 8003638:	f442 7200 	orr.w	r2, r2, #512	; 0x200
 800363c:	601a      	str	r2, [r3, #0]
 800363e:	f8df 81b8 	ldr.w	r8, [pc, #440]	; 80037f8 <HAL_I2C_Mem_Read+0x274>
 8003642:	f8df 91b8 	ldr.w	r9, [pc, #440]	; 80037fc <HAL_I2C_Mem_Read+0x278>
 8003646:	8d23      	ldrh	r3, [r4, #40]	; 0x28
 8003648:	2b00      	cmp	r3, #0
 800364a:	d137      	bne.n	80036bc <HAL_I2C_Mem_Read+0x138>
 800364c:	2220      	movs	r2, #32
 800364e:	f884 303c 	strb.w	r3, [r4, #60]	; 0x3c
 8003652:	f884 203d 	strb.w	r2, [r4, #61]	; 0x3d
 8003656:	f884 303e 	strb.w	r3, [r4, #62]	; 0x3e
 800365a:	e7a5      	b.n	80035a8 <HAL_I2C_Mem_Read+0x24>
 800365c:	2a01      	cmp	r2, #1
 800365e:	d111      	bne.n	8003684 <HAL_I2C_Mem_Read+0x100>
 8003660:	681a      	ldr	r2, [r3, #0]
 8003662:	f422 6280 	bic.w	r2, r2, #1024	; 0x400
 8003666:	601a      	str	r2, [r3, #0]
 8003668:	b672      	cpsid	i
 800366a:	6823      	ldr	r3, [r4, #0]
 800366c:	9005      	str	r0, [sp, #20]
 800366e:	695a      	ldr	r2, [r3, #20]
 8003670:	9205      	str	r2, [sp, #20]
 8003672:	699a      	ldr	r2, [r3, #24]
 8003674:	9205      	str	r2, [sp, #20]
 8003676:	9a05      	ldr	r2, [sp, #20]
 8003678:	681a      	ldr	r2, [r3, #0]
 800367a:	f442 7200 	orr.w	r2, r2, #512	; 0x200
 800367e:	601a      	str	r2, [r3, #0]
 8003680:	b662      	cpsie	i
 8003682:	e7dc      	b.n	800363e <HAL_I2C_Mem_Read+0xba>
 8003684:	2a02      	cmp	r2, #2
 8003686:	681a      	ldr	r2, [r3, #0]
 8003688:	d10e      	bne.n	80036a8 <HAL_I2C_Mem_Read+0x124>
 800368a:	f442 6200 	orr.w	r2, r2, #2048	; 0x800
 800368e:	601a      	str	r2, [r3, #0]
 8003690:	b672      	cpsid	i
 8003692:	6823      	ldr	r3, [r4, #0]
 8003694:	9006      	str	r0, [sp, #24]
 8003696:	695a      	ldr	r2, [r3, #20]
 8003698:	9206      	str	r2, [sp, #24]
 800369a:	699a      	ldr	r2, [r3, #24]
 800369c:	9206      	str	r2, [sp, #24]
 800369e:	9a06      	ldr	r2, [sp, #24]
 80036a0:	681a      	ldr	r2, [r3, #0]
 80036a2:	f422 6280 	bic.w	r2, r2, #1024	; 0x400
 80036a6:	e7ea      	b.n	800367e <HAL_I2C_Mem_Read+0xfa>
 80036a8:	f442 6280 	orr.w	r2, r2, #1024	; 0x400
 80036ac:	601a      	str	r2, [r3, #0]
 80036ae:	9007      	str	r0, [sp, #28]
 80036b0:	695a      	ldr	r2, [r3, #20]
 80036b2:	9207      	str	r2, [sp, #28]
 80036b4:	699b      	ldr	r3, [r3, #24]
 80036b6:	9307      	str	r3, [sp, #28]
 80036b8:	9b07      	ldr	r3, [sp, #28]
 80036ba:	e7c0      	b.n	800363e <HAL_I2C_Mem_Read+0xba>
 80036bc:	2b03      	cmp	r3, #3
 80036be:	d878      	bhi.n	80037b2 <HAL_I2C_Mem_Read+0x22e>
 80036c0:	2b01      	cmp	r3, #1
 80036c2:	d115      	bne.n	80036f0 <HAL_I2C_Mem_Read+0x16c>
 80036c4:	4632      	mov	r2, r6
 80036c6:	4639      	mov	r1, r7
 80036c8:	4620      	mov	r0, r4
 80036ca:	f7ff fca7 	bl	800301c <I2C_WaitOnRXNEFlagUntilTimeout>
 80036ce:	2800      	cmp	r0, #0
 80036d0:	d1a6      	bne.n	8003620 <HAL_I2C_Mem_Read+0x9c>
 80036d2:	6823      	ldr	r3, [r4, #0]
 80036d4:	691a      	ldr	r2, [r3, #16]
 80036d6:	6a63      	ldr	r3, [r4, #36]	; 0x24
 80036d8:	701a      	strb	r2, [r3, #0]
 80036da:	6a63      	ldr	r3, [r4, #36]	; 0x24
 80036dc:	3301      	adds	r3, #1
 80036de:	6263      	str	r3, [r4, #36]	; 0x24
 80036e0:	8d23      	ldrh	r3, [r4, #40]	; 0x28
 80036e2:	3b01      	subs	r3, #1
 80036e4:	8523      	strh	r3, [r4, #40]	; 0x28
 80036e6:	8d63      	ldrh	r3, [r4, #42]	; 0x2a
 80036e8:	3b01      	subs	r3, #1
 80036ea:	b29b      	uxth	r3, r3
 80036ec:	8563      	strh	r3, [r4, #42]	; 0x2a
 80036ee:	e7aa      	b.n	8003646 <HAL_I2C_Mem_Read+0xc2>
 80036f0:	2b02      	cmp	r3, #2
 80036f2:	f04f 0200 	mov.w	r2, #0
 80036f6:	463b      	mov	r3, r7
 80036f8:	4641      	mov	r1, r8
 80036fa:	4620      	mov	r0, r4
 80036fc:	9600      	str	r6, [sp, #0]
 80036fe:	d118      	bne.n	8003732 <HAL_I2C_Mem_Read+0x1ae>
 8003700:	f7ff fcbb 	bl	800307a <I2C_WaitOnFlagUntilTimeout>
 8003704:	2800      	cmp	r0, #0
 8003706:	d18b      	bne.n	8003620 <HAL_I2C_Mem_Read+0x9c>
 8003708:	b672      	cpsid	i
 800370a:	6823      	ldr	r3, [r4, #0]
 800370c:	681a      	ldr	r2, [r3, #0]
 800370e:	f442 7200 	orr.w	r2, r2, #512	; 0x200
 8003712:	601a      	str	r2, [r3, #0]
 8003714:	691a      	ldr	r2, [r3, #16]
 8003716:	6a63      	ldr	r3, [r4, #36]	; 0x24
 8003718:	701a      	strb	r2, [r3, #0]
 800371a:	6a63      	ldr	r3, [r4, #36]	; 0x24
 800371c:	3301      	adds	r3, #1
 800371e:	6263      	str	r3, [r4, #36]	; 0x24
 8003720:	8d23      	ldrh	r3, [r4, #40]	; 0x28
 8003722:	3b01      	subs	r3, #1
 8003724:	8523      	strh	r3, [r4, #40]	; 0x28
 8003726:	8d63      	ldrh	r3, [r4, #42]	; 0x2a
 8003728:	3b01      	subs	r3, #1
 800372a:	b29b      	uxth	r3, r3
 800372c:	8563      	strh	r3, [r4, #42]	; 0x2a
 800372e:	b662      	cpsie	i
 8003730:	e7cf      	b.n	80036d2 <HAL_I2C_Mem_Read+0x14e>
 8003732:	f7ff fca2 	bl	800307a <I2C_WaitOnFlagUntilTimeout>
 8003736:	2800      	cmp	r0, #0
 8003738:	f47f af72 	bne.w	8003620 <HAL_I2C_Mem_Read+0x9c>
 800373c:	6822      	ldr	r2, [r4, #0]
 800373e:	6813      	ldr	r3, [r2, #0]
 8003740:	f423 6380 	bic.w	r3, r3, #1024	; 0x400
 8003744:	6013      	str	r3, [r2, #0]
 8003746:	b672      	cpsid	i
 8003748:	6823      	ldr	r3, [r4, #0]
 800374a:	691a      	ldr	r2, [r3, #16]
 800374c:	6a63      	ldr	r3, [r4, #36]	; 0x24
 800374e:	701a      	strb	r2, [r3, #0]
 8003750:	f246 12a8 	movw	r2, #25000	; 0x61a8
 8003754:	6a61      	ldr	r1, [r4, #36]	; 0x24
 8003756:	1c4b      	adds	r3, r1, #1
 8003758:	6263      	str	r3, [r4, #36]	; 0x24
 800375a:	8d23      	ldrh	r3, [r4, #40]	; 0x28
 800375c:	3b01      	subs	r3, #1
 800375e:	8523      	strh	r3, [r4, #40]	; 0x28
 8003760:	8d63      	ldrh	r3, [r4, #42]	; 0x2a
 8003762:	3b01      	subs	r3, #1
 8003764:	b29b      	uxth	r3, r3
 8003766:	8563      	strh	r3, [r4, #42]	; 0x2a
 8003768:	f8d9 3000 	ldr.w	r3, [r9]
 800376c:	fbb3 f2f2 	udiv	r2, r3, r2
 8003770:	2323      	movs	r3, #35	; 0x23
 8003772:	4353      	muls	r3, r2
 8003774:	9303      	str	r3, [sp, #12]
 8003776:	9b03      	ldr	r3, [sp, #12]
 8003778:	3b01      	subs	r3, #1
 800377a:	9303      	str	r3, [sp, #12]
 800377c:	9b03      	ldr	r3, [sp, #12]
 800377e:	b96b      	cbnz	r3, 800379c <HAL_I2C_Mem_Read+0x218>
 8003780:	2220      	movs	r2, #32
 8003782:	6323      	str	r3, [r4, #48]	; 0x30
 8003784:	f884 203d 	strb.w	r2, [r4, #61]	; 0x3d
 8003788:	f884 303e 	strb.w	r3, [r4, #62]	; 0x3e
 800378c:	6c22      	ldr	r2, [r4, #64]	; 0x40
 800378e:	f042 0220 	orr.w	r2, r2, #32
 8003792:	6422      	str	r2, [r4, #64]	; 0x40
 8003794:	b662      	cpsie	i
 8003796:	f884 303c 	strb.w	r3, [r4, #60]	; 0x3c
 800379a:	e741      	b.n	8003620 <HAL_I2C_Mem_Read+0x9c>
 800379c:	6823      	ldr	r3, [r4, #0]
 800379e:	695a      	ldr	r2, [r3, #20]
 80037a0:	0750      	lsls	r0, r2, #29
 80037a2:	d5e8      	bpl.n	8003776 <HAL_I2C_Mem_Read+0x1f2>
 80037a4:	681a      	ldr	r2, [r3, #0]
 80037a6:	f442 7200 	orr.w	r2, r2, #512	; 0x200
 80037aa:	601a      	str	r2, [r3, #0]
 80037ac:	691b      	ldr	r3, [r3, #16]
 80037ae:	704b      	strb	r3, [r1, #1]
 80037b0:	e7b3      	b.n	800371a <HAL_I2C_Mem_Read+0x196>
 80037b2:	4632      	mov	r2, r6
 80037b4:	4639      	mov	r1, r7
 80037b6:	4620      	mov	r0, r4
 80037b8:	f7ff fc30 	bl	800301c <I2C_WaitOnRXNEFlagUntilTimeout>
 80037bc:	2800      	cmp	r0, #0
 80037be:	f47f af2f 	bne.w	8003620 <HAL_I2C_Mem_Read+0x9c>
 80037c2:	6823      	ldr	r3, [r4, #0]
 80037c4:	691a      	ldr	r2, [r3, #16]
 80037c6:	6a63      	ldr	r3, [r4, #36]	; 0x24
 80037c8:	701a      	strb	r2, [r3, #0]
 80037ca:	6a62      	ldr	r2, [r4, #36]	; 0x24
 80037cc:	1c53      	adds	r3, r2, #1
 80037ce:	6263      	str	r3, [r4, #36]	; 0x24
 80037d0:	8d23      	ldrh	r3, [r4, #40]	; 0x28
 80037d2:	3b01      	subs	r3, #1
 80037d4:	8523      	strh	r3, [r4, #40]	; 0x28
 80037d6:	8d63      	ldrh	r3, [r4, #42]	; 0x2a
 80037d8:	3b01      	subs	r3, #1
 80037da:	b29b      	uxth	r3, r3
 80037dc:	8563      	strh	r3, [r4, #42]	; 0x2a
 80037de:	6823      	ldr	r3, [r4, #0]
 80037e0:	6959      	ldr	r1, [r3, #20]
 80037e2:	0749      	lsls	r1, r1, #29
 80037e4:	f57f af2f 	bpl.w	8003646 <HAL_I2C_Mem_Read+0xc2>
 80037e8:	691b      	ldr	r3, [r3, #16]
 80037ea:	7053      	strb	r3, [r2, #1]
 80037ec:	e775      	b.n	80036da <HAL_I2C_Mem_Read+0x156>
 80037ee:	bf00      	nop
 80037f0:	00100002 	.word	0x00100002
 80037f4:	ffff0000 	.word	0xffff0000
 80037f8:	00010004 	.word	0x00010004
 80037fc:	200000a0 	.word	0x200000a0

08003800 <HAL_RCC_OscConfig>:
 8003800:	e92d 41f3 	stmdb	sp!, {r0, r1, r4, r5, r6, r7, r8, lr}
 8003804:	4605      	mov	r5, r0
 8003806:	b338      	cbz	r0, 8003858 <HAL_RCC_OscConfig+0x58>
 8003808:	6803      	ldr	r3, [r0, #0]
 800380a:	07db      	lsls	r3, r3, #31
 800380c:	d410      	bmi.n	8003830 <HAL_RCC_OscConfig+0x30>
 800380e:	682b      	ldr	r3, [r5, #0]
 8003810:	079f      	lsls	r7, r3, #30
 8003812:	d45e      	bmi.n	80038d2 <HAL_RCC_OscConfig+0xd2>
 8003814:	682b      	ldr	r3, [r5, #0]
 8003816:	0719      	lsls	r1, r3, #28
 8003818:	f100 8095 	bmi.w	8003946 <HAL_RCC_OscConfig+0x146>
 800381c:	682b      	ldr	r3, [r5, #0]
 800381e:	075a      	lsls	r2, r3, #29
 8003820:	f100 80bf 	bmi.w	80039a2 <HAL_RCC_OscConfig+0x1a2>
 8003824:	69e8      	ldr	r0, [r5, #28]
 8003826:	2800      	cmp	r0, #0
 8003828:	f040 812c 	bne.w	8003a84 <HAL_RCC_OscConfig+0x284>
 800382c:	2000      	movs	r0, #0
 800382e:	e029      	b.n	8003884 <HAL_RCC_OscConfig+0x84>
 8003830:	4c8f      	ldr	r4, [pc, #572]	; (8003a70 <HAL_RCC_OscConfig+0x270>)
 8003832:	6863      	ldr	r3, [r4, #4]
 8003834:	f003 030c 	and.w	r3, r3, #12
 8003838:	2b04      	cmp	r3, #4
 800383a:	d007      	beq.n	800384c <HAL_RCC_OscConfig+0x4c>
 800383c:	6863      	ldr	r3, [r4, #4]
 800383e:	f003 030c 	and.w	r3, r3, #12
 8003842:	2b08      	cmp	r3, #8
 8003844:	d10a      	bne.n	800385c <HAL_RCC_OscConfig+0x5c>
 8003846:	6863      	ldr	r3, [r4, #4]
 8003848:	03de      	lsls	r6, r3, #15
 800384a:	d507      	bpl.n	800385c <HAL_RCC_OscConfig+0x5c>
 800384c:	6823      	ldr	r3, [r4, #0]
 800384e:	039c      	lsls	r4, r3, #14
 8003850:	d5dd      	bpl.n	800380e <HAL_RCC_OscConfig+0xe>
 8003852:	686b      	ldr	r3, [r5, #4]
 8003854:	2b00      	cmp	r3, #0
 8003856:	d1da      	bne.n	800380e <HAL_RCC_OscConfig+0xe>
 8003858:	2001      	movs	r0, #1
 800385a:	e013      	b.n	8003884 <HAL_RCC_OscConfig+0x84>
 800385c:	686b      	ldr	r3, [r5, #4]
 800385e:	f5b3 3f80 	cmp.w	r3, #65536	; 0x10000
 8003862:	d112      	bne.n	800388a <HAL_RCC_OscConfig+0x8a>
 8003864:	6823      	ldr	r3, [r4, #0]
 8003866:	f443 3380 	orr.w	r3, r3, #65536	; 0x10000
 800386a:	6023      	str	r3, [r4, #0]
 800386c:	f7ff f92e 	bl	8002acc <HAL_GetTick>
 8003870:	4606      	mov	r6, r0
 8003872:	6823      	ldr	r3, [r4, #0]
 8003874:	0398      	lsls	r0, r3, #14
 8003876:	d4ca      	bmi.n	800380e <HAL_RCC_OscConfig+0xe>
 8003878:	f7ff f928 	bl	8002acc <HAL_GetTick>
 800387c:	1b80      	subs	r0, r0, r6
 800387e:	2864      	cmp	r0, #100	; 0x64
 8003880:	d9f7      	bls.n	8003872 <HAL_RCC_OscConfig+0x72>
 8003882:	2003      	movs	r0, #3
 8003884:	b002      	add	sp, #8
 8003886:	e8bd 81f0 	ldmia.w	sp!, {r4, r5, r6, r7, r8, pc}
 800388a:	b99b      	cbnz	r3, 80038b4 <HAL_RCC_OscConfig+0xb4>
 800388c:	6823      	ldr	r3, [r4, #0]
 800388e:	f423 3380 	bic.w	r3, r3, #65536	; 0x10000
 8003892:	6023      	str	r3, [r4, #0]
 8003894:	6823      	ldr	r3, [r4, #0]
 8003896:	f423 2380 	bic.w	r3, r3, #262144	; 0x40000
 800389a:	6023      	str	r3, [r4, #0]
 800389c:	f7ff f916 	bl	8002acc <HAL_GetTick>
 80038a0:	4606      	mov	r6, r0
 80038a2:	6823      	ldr	r3, [r4, #0]
 80038a4:	0399      	lsls	r1, r3, #14
 80038a6:	d5b2      	bpl.n	800380e <HAL_RCC_OscConfig+0xe>
 80038a8:	f7ff f910 	bl	8002acc <HAL_GetTick>
 80038ac:	1b80      	subs	r0, r0, r6
 80038ae:	2864      	cmp	r0, #100	; 0x64
 80038b0:	d9f7      	bls.n	80038a2 <HAL_RCC_OscConfig+0xa2>
 80038b2:	e7e6      	b.n	8003882 <HAL_RCC_OscConfig+0x82>
 80038b4:	f5b3 2fa0 	cmp.w	r3, #327680	; 0x50000
 80038b8:	6823      	ldr	r3, [r4, #0]
 80038ba:	d103      	bne.n	80038c4 <HAL_RCC_OscConfig+0xc4>
 80038bc:	f443 2380 	orr.w	r3, r3, #262144	; 0x40000
 80038c0:	6023      	str	r3, [r4, #0]
 80038c2:	e7cf      	b.n	8003864 <HAL_RCC_OscConfig+0x64>
 80038c4:	f423 3380 	bic.w	r3, r3, #65536	; 0x10000
 80038c8:	6023      	str	r3, [r4, #0]
 80038ca:	6823      	ldr	r3, [r4, #0]
 80038cc:	f423 2380 	bic.w	r3, r3, #262144	; 0x40000
 80038d0:	e7cb      	b.n	800386a <HAL_RCC_OscConfig+0x6a>
 80038d2:	4c67      	ldr	r4, [pc, #412]	; (8003a70 <HAL_RCC_OscConfig+0x270>)
 80038d4:	6863      	ldr	r3, [r4, #4]
 80038d6:	f013 0f0c 	tst.w	r3, #12
 80038da:	d007      	beq.n	80038ec <HAL_RCC_OscConfig+0xec>
 80038dc:	6863      	ldr	r3, [r4, #4]
 80038de:	f003 030c 	and.w	r3, r3, #12
 80038e2:	2b08      	cmp	r3, #8
 80038e4:	d110      	bne.n	8003908 <HAL_RCC_OscConfig+0x108>
 80038e6:	6863      	ldr	r3, [r4, #4]
 80038e8:	03da      	lsls	r2, r3, #15
 80038ea:	d40d      	bmi.n	8003908 <HAL_RCC_OscConfig+0x108>
 80038ec:	6823      	ldr	r3, [r4, #0]
 80038ee:	079b      	lsls	r3, r3, #30
 80038f0:	d502      	bpl.n	80038f8 <HAL_RCC_OscConfig+0xf8>
 80038f2:	692b      	ldr	r3, [r5, #16]
 80038f4:	2b01      	cmp	r3, #1
 80038f6:	d1af      	bne.n	8003858 <HAL_RCC_OscConfig+0x58>
 80038f8:	6823      	ldr	r3, [r4, #0]
 80038fa:	696a      	ldr	r2, [r5, #20]
 80038fc:	f023 03f8 	bic.w	r3, r3, #248	; 0xf8
 8003900:	ea43 03c2 	orr.w	r3, r3, r2, lsl #3
 8003904:	6023      	str	r3, [r4, #0]
 8003906:	e785      	b.n	8003814 <HAL_RCC_OscConfig+0x14>
 8003908:	692a      	ldr	r2, [r5, #16]
 800390a:	4b5a      	ldr	r3, [pc, #360]	; (8003a74 <HAL_RCC_OscConfig+0x274>)
 800390c:	b16a      	cbz	r2, 800392a <HAL_RCC_OscConfig+0x12a>
 800390e:	2201      	movs	r2, #1
 8003910:	601a      	str	r2, [r3, #0]
 8003912:	f7ff f8db 	bl	8002acc <HAL_GetTick>
 8003916:	4606      	mov	r6, r0
 8003918:	6823      	ldr	r3, [r4, #0]
 800391a:	079f      	lsls	r7, r3, #30
 800391c:	d4ec      	bmi.n	80038f8 <HAL_RCC_OscConfig+0xf8>
 800391e:	f7ff f8d5 	bl	8002acc <HAL_GetTick>
 8003922:	1b80      	subs	r0, r0, r6
 8003924:	2802      	cmp	r0, #2
 8003926:	d9f7      	bls.n	8003918 <HAL_RCC_OscConfig+0x118>
 8003928:	e7ab      	b.n	8003882 <HAL_RCC_OscConfig+0x82>
 800392a:	601a      	str	r2, [r3, #0]
 800392c:	f7ff f8ce 	bl	8002acc <HAL_GetTick>
 8003930:	4606      	mov	r6, r0
 8003932:	6823      	ldr	r3, [r4, #0]
 8003934:	0798      	lsls	r0, r3, #30
 8003936:	f57f af6d 	bpl.w	8003814 <HAL_RCC_OscConfig+0x14>
 800393a:	f7ff f8c7 	bl	8002acc <HAL_GetTick>
 800393e:	1b80      	subs	r0, r0, r6
 8003940:	2802      	cmp	r0, #2
 8003942:	d9f6      	bls.n	8003932 <HAL_RCC_OscConfig+0x132>
 8003944:	e79d      	b.n	8003882 <HAL_RCC_OscConfig+0x82>
 8003946:	69aa      	ldr	r2, [r5, #24]
 8003948:	4e49      	ldr	r6, [pc, #292]	; (8003a70 <HAL_RCC_OscConfig+0x270>)
 800394a:	4b4b      	ldr	r3, [pc, #300]	; (8003a78 <HAL_RCC_OscConfig+0x278>)
 800394c:	b1da      	cbz	r2, 8003986 <HAL_RCC_OscConfig+0x186>
 800394e:	2201      	movs	r2, #1
 8003950:	601a      	str	r2, [r3, #0]
 8003952:	f7ff f8bb 	bl	8002acc <HAL_GetTick>
 8003956:	4604      	mov	r4, r0
 8003958:	6a73      	ldr	r3, [r6, #36]	; 0x24
 800395a:	079b      	lsls	r3, r3, #30
 800395c:	d50d      	bpl.n	800397a <HAL_RCC_OscConfig+0x17a>
 800395e:	f44f 52fa 	mov.w	r2, #8000	; 0x1f40
 8003962:	4b46      	ldr	r3, [pc, #280]	; (8003a7c <HAL_RCC_OscConfig+0x27c>)
 8003964:	681b      	ldr	r3, [r3, #0]
 8003966:	fbb3 f3f2 	udiv	r3, r3, r2
 800396a:	9301      	str	r3, [sp, #4]
 800396c:	bf00      	nop
 800396e:	9b01      	ldr	r3, [sp, #4]
 8003970:	1e5a      	subs	r2, r3, #1
 8003972:	9201      	str	r2, [sp, #4]
 8003974:	2b00      	cmp	r3, #0
 8003976:	d1f9      	bne.n	800396c <HAL_RCC_OscConfig+0x16c>
 8003978:	e750      	b.n	800381c <HAL_RCC_OscConfig+0x1c>
 800397a:	f7ff f8a7 	bl	8002acc <HAL_GetTick>
 800397e:	1b00      	subs	r0, r0, r4
 8003980:	2802      	cmp	r0, #2
 8003982:	d9e9      	bls.n	8003958 <HAL_RCC_OscConfig+0x158>
 8003984:	e77d      	b.n	8003882 <HAL_RCC_OscConfig+0x82>
 8003986:	601a      	str	r2, [r3, #0]
 8003988:	f7ff f8a0 	bl	8002acc <HAL_GetTick>
 800398c:	4604      	mov	r4, r0
 800398e:	6a73      	ldr	r3, [r6, #36]	; 0x24
 8003990:	079f      	lsls	r7, r3, #30
 8003992:	f57f af43 	bpl.w	800381c <HAL_RCC_OscConfig+0x1c>
 8003996:	f7ff f899 	bl	8002acc <HAL_GetTick>
 800399a:	1b00      	subs	r0, r0, r4
 800399c:	2802      	cmp	r0, #2
 800399e:	d9f6      	bls.n	800398e <HAL_RCC_OscConfig+0x18e>
 80039a0:	e76f      	b.n	8003882 <HAL_RCC_OscConfig+0x82>
 80039a2:	4c33      	ldr	r4, [pc, #204]	; (8003a70 <HAL_RCC_OscConfig+0x270>)
 80039a4:	69e3      	ldr	r3, [r4, #28]
 80039a6:	00d8      	lsls	r0, r3, #3
 80039a8:	d424      	bmi.n	80039f4 <HAL_RCC_OscConfig+0x1f4>
 80039aa:	2701      	movs	r7, #1
 80039ac:	69e3      	ldr	r3, [r4, #28]
 80039ae:	f043 5380 	orr.w	r3, r3, #268435456	; 0x10000000
 80039b2:	61e3      	str	r3, [r4, #28]
 80039b4:	69e3      	ldr	r3, [r4, #28]
 80039b6:	f003 5380 	and.w	r3, r3, #268435456	; 0x10000000
 80039ba:	9300      	str	r3, [sp, #0]
 80039bc:	9b00      	ldr	r3, [sp, #0]
 80039be:	4e30      	ldr	r6, [pc, #192]	; (8003a80 <HAL_RCC_OscConfig+0x280>)
 80039c0:	6833      	ldr	r3, [r6, #0]
 80039c2:	05d9      	lsls	r1, r3, #23
 80039c4:	d518      	bpl.n	80039f8 <HAL_RCC_OscConfig+0x1f8>
 80039c6:	68eb      	ldr	r3, [r5, #12]
 80039c8:	2b01      	cmp	r3, #1
 80039ca:	d126      	bne.n	8003a1a <HAL_RCC_OscConfig+0x21a>
 80039cc:	6a23      	ldr	r3, [r4, #32]
 80039ce:	f043 0301 	orr.w	r3, r3, #1
 80039d2:	6223      	str	r3, [r4, #32]
 80039d4:	f7ff f87a 	bl	8002acc <HAL_GetTick>
 80039d8:	f241 3888 	movw	r8, #5000	; 0x1388
 80039dc:	4606      	mov	r6, r0
 80039de:	6a23      	ldr	r3, [r4, #32]
 80039e0:	079b      	lsls	r3, r3, #30
 80039e2:	d53f      	bpl.n	8003a64 <HAL_RCC_OscConfig+0x264>
 80039e4:	2f00      	cmp	r7, #0
 80039e6:	f43f af1d 	beq.w	8003824 <HAL_RCC_OscConfig+0x24>
 80039ea:	69e3      	ldr	r3, [r4, #28]
 80039ec:	f023 5380 	bic.w	r3, r3, #268435456	; 0x10000000
 80039f0:	61e3      	str	r3, [r4, #28]
 80039f2:	e717      	b.n	8003824 <HAL_RCC_OscConfig+0x24>
 80039f4:	2700      	movs	r7, #0
 80039f6:	e7e2      	b.n	80039be <HAL_RCC_OscConfig+0x1be>
 80039f8:	6833      	ldr	r3, [r6, #0]
 80039fa:	f443 7380 	orr.w	r3, r3, #256	; 0x100
 80039fe:	6033      	str	r3, [r6, #0]
 8003a00:	f7ff f864 	bl	8002acc <HAL_GetTick>
 8003a04:	4680      	mov	r8, r0
 8003a06:	6833      	ldr	r3, [r6, #0]
 8003a08:	05da      	lsls	r2, r3, #23
 8003a0a:	d4dc      	bmi.n	80039c6 <HAL_RCC_OscConfig+0x1c6>
 8003a0c:	f7ff f85e 	bl	8002acc <HAL_GetTick>
 8003a10:	eba0 0008 	sub.w	r0, r0, r8
 8003a14:	2864      	cmp	r0, #100	; 0x64
 8003a16:	d9f6      	bls.n	8003a06 <HAL_RCC_OscConfig+0x206>
 8003a18:	e733      	b.n	8003882 <HAL_RCC_OscConfig+0x82>
 8003a1a:	b9ab      	cbnz	r3, 8003a48 <HAL_RCC_OscConfig+0x248>
 8003a1c:	6a23      	ldr	r3, [r4, #32]
 8003a1e:	f241 3888 	movw	r8, #5000	; 0x1388
 8003a22:	f023 0301 	bic.w	r3, r3, #1
 8003a26:	6223      	str	r3, [r4, #32]
 8003a28:	6a23      	ldr	r3, [r4, #32]
 8003a2a:	f023 0304 	bic.w	r3, r3, #4
 8003a2e:	6223      	str	r3, [r4, #32]
 8003a30:	f7ff f84c 	bl	8002acc <HAL_GetTick>
 8003a34:	4606      	mov	r6, r0
 8003a36:	6a23      	ldr	r3, [r4, #32]
 8003a38:	0798      	lsls	r0, r3, #30
 8003a3a:	d5d3      	bpl.n	80039e4 <HAL_RCC_OscConfig+0x1e4>
 8003a3c:	f7ff f846 	bl	8002acc <HAL_GetTick>
 8003a40:	1b80      	subs	r0, r0, r6
 8003a42:	4540      	cmp	r0, r8
 8003a44:	d9f7      	bls.n	8003a36 <HAL_RCC_OscConfig+0x236>
 8003a46:	e71c      	b.n	8003882 <HAL_RCC_OscConfig+0x82>
 8003a48:	2b05      	cmp	r3, #5
 8003a4a:	6a23      	ldr	r3, [r4, #32]
 8003a4c:	d103      	bne.n	8003a56 <HAL_RCC_OscConfig+0x256>
 8003a4e:	f043 0304 	orr.w	r3, r3, #4
 8003a52:	6223      	str	r3, [r4, #32]
 8003a54:	e7ba      	b.n	80039cc <HAL_RCC_OscConfig+0x1cc>
 8003a56:	f023 0301 	bic.w	r3, r3, #1
 8003a5a:	6223      	str	r3, [r4, #32]
 8003a5c:	6a23      	ldr	r3, [r4, #32]
 8003a5e:	f023 0304 	bic.w	r3, r3, #4
 8003a62:	e7b6      	b.n	80039d2 <HAL_RCC_OscConfig+0x1d2>
 8003a64:	f7ff f832 	bl	8002acc <HAL_GetTick>
 8003a68:	1b80      	subs	r0, r0, r6
 8003a6a:	4540      	cmp	r0, r8
 8003a6c:	d9b7      	bls.n	80039de <HAL_RCC_OscConfig+0x1de>
 8003a6e:	e708      	b.n	8003882 <HAL_RCC_OscConfig+0x82>
 8003a70:	40021000 	.word	0x40021000
 8003a74:	42420000 	.word	0x42420000
 8003a78:	42420480 	.word	0x42420480
 8003a7c:	200000a0 	.word	0x200000a0
 8003a80:	40007000 	.word	0x40007000
 8003a84:	4b2a      	ldr	r3, [pc, #168]	; (8003b30 <HAL_RCC_OscConfig+0x330>)
 8003a86:	685a      	ldr	r2, [r3, #4]
 8003a88:	461c      	mov	r4, r3
 8003a8a:	f002 020c 	and.w	r2, r2, #12
 8003a8e:	2a08      	cmp	r2, #8
 8003a90:	d03d      	beq.n	8003b0e <HAL_RCC_OscConfig+0x30e>
 8003a92:	2300      	movs	r3, #0
 8003a94:	4e27      	ldr	r6, [pc, #156]	; (8003b34 <HAL_RCC_OscConfig+0x334>)
 8003a96:	2802      	cmp	r0, #2
 8003a98:	6033      	str	r3, [r6, #0]
 8003a9a:	d12b      	bne.n	8003af4 <HAL_RCC_OscConfig+0x2f4>
 8003a9c:	f7ff f816 	bl	8002acc <HAL_GetTick>
 8003aa0:	4607      	mov	r7, r0
 8003aa2:	6823      	ldr	r3, [r4, #0]
 8003aa4:	0199      	lsls	r1, r3, #6
 8003aa6:	d41f      	bmi.n	8003ae8 <HAL_RCC_OscConfig+0x2e8>
 8003aa8:	6a2b      	ldr	r3, [r5, #32]
 8003aaa:	f5b3 3f80 	cmp.w	r3, #65536	; 0x10000
 8003aae:	d105      	bne.n	8003abc <HAL_RCC_OscConfig+0x2bc>
 8003ab0:	6862      	ldr	r2, [r4, #4]
 8003ab2:	68a9      	ldr	r1, [r5, #8]
 8003ab4:	f422 3200 	bic.w	r2, r2, #131072	; 0x20000
 8003ab8:	430a      	orrs	r2, r1
 8003aba:	6062      	str	r2, [r4, #4]
 8003abc:	6a69      	ldr	r1, [r5, #36]	; 0x24
 8003abe:	6862      	ldr	r2, [r4, #4]
 8003ac0:	430b      	orrs	r3, r1
 8003ac2:	f422 1274 	bic.w	r2, r2, #3997696	; 0x3d0000
 8003ac6:	4313      	orrs	r3, r2
 8003ac8:	6063      	str	r3, [r4, #4]
 8003aca:	2301      	movs	r3, #1
 8003acc:	6033      	str	r3, [r6, #0]
 8003ace:	f7fe fffd 	bl	8002acc <HAL_GetTick>
 8003ad2:	4605      	mov	r5, r0
 8003ad4:	6823      	ldr	r3, [r4, #0]
 8003ad6:	019a      	lsls	r2, r3, #6
 8003ad8:	f53f aea8 	bmi.w	800382c <HAL_RCC_OscConfig+0x2c>
 8003adc:	f7fe fff6 	bl	8002acc <HAL_GetTick>
 8003ae0:	1b40      	subs	r0, r0, r5
 8003ae2:	2802      	cmp	r0, #2
 8003ae4:	d9f6      	bls.n	8003ad4 <HAL_RCC_OscConfig+0x2d4>
 8003ae6:	e6cc      	b.n	8003882 <HAL_RCC_OscConfig+0x82>
 8003ae8:	f7fe fff0 	bl	8002acc <HAL_GetTick>
 8003aec:	1bc0      	subs	r0, r0, r7
 8003aee:	2802      	cmp	r0, #2
 8003af0:	d9d7      	bls.n	8003aa2 <HAL_RCC_OscConfig+0x2a2>
 8003af2:	e6c6      	b.n	8003882 <HAL_RCC_OscConfig+0x82>
 8003af4:	f7fe ffea 	bl	8002acc <HAL_GetTick>
 8003af8:	4605      	mov	r5, r0
 8003afa:	6823      	ldr	r3, [r4, #0]
 8003afc:	019b      	lsls	r3, r3, #6
 8003afe:	f57f ae95 	bpl.w	800382c <HAL_RCC_OscConfig+0x2c>
 8003b02:	f7fe ffe3 	bl	8002acc <HAL_GetTick>
 8003b06:	1b40      	subs	r0, r0, r5
 8003b08:	2802      	cmp	r0, #2
 8003b0a:	d9f6      	bls.n	8003afa <HAL_RCC_OscConfig+0x2fa>
 8003b0c:	e6b9      	b.n	8003882 <HAL_RCC_OscConfig+0x82>
 8003b0e:	2801      	cmp	r0, #1
 8003b10:	f43f aeb8 	beq.w	8003884 <HAL_RCC_OscConfig+0x84>
 8003b14:	685b      	ldr	r3, [r3, #4]
 8003b16:	6a2a      	ldr	r2, [r5, #32]
 8003b18:	f403 3180 	and.w	r1, r3, #65536	; 0x10000
 8003b1c:	4291      	cmp	r1, r2
 8003b1e:	f47f ae9b 	bne.w	8003858 <HAL_RCC_OscConfig+0x58>
 8003b22:	6a6a      	ldr	r2, [r5, #36]	; 0x24
 8003b24:	f403 1370 	and.w	r3, r3, #3932160	; 0x3c0000
 8003b28:	4293      	cmp	r3, r2
 8003b2a:	f43f ae7f 	beq.w	800382c <HAL_RCC_OscConfig+0x2c>
 8003b2e:	e693      	b.n	8003858 <HAL_RCC_OscConfig+0x58>
 8003b30:	40021000 	.word	0x40021000
 8003b34:	42420060 	.word	0x42420060

08003b38 <HAL_RCC_GetSysClockFreq>:
 8003b38:	b530      	push	{r4, r5, lr}
 8003b3a:	4b18      	ldr	r3, [pc, #96]	; (8003b9c <HAL_RCC_GetSysClockFreq+0x64>)
 8003b3c:	b087      	sub	sp, #28
 8003b3e:	ac02      	add	r4, sp, #8
 8003b40:	f103 0510 	add.w	r5, r3, #16
 8003b44:	4622      	mov	r2, r4
 8003b46:	6818      	ldr	r0, [r3, #0]
 8003b48:	6859      	ldr	r1, [r3, #4]
 8003b4a:	3308      	adds	r3, #8
 8003b4c:	c203      	stmia	r2!, {r0, r1}
 8003b4e:	42ab      	cmp	r3, r5
 8003b50:	4614      	mov	r4, r2
 8003b52:	d1f7      	bne.n	8003b44 <HAL_RCC_GetSysClockFreq+0xc>
 8003b54:	f240 2301 	movw	r3, #513	; 0x201
 8003b58:	4911      	ldr	r1, [pc, #68]	; (8003ba0 <HAL_RCC_GetSysClockFreq+0x68>)
 8003b5a:	f8ad 3004 	strh.w	r3, [sp, #4]
 8003b5e:	684b      	ldr	r3, [r1, #4]
 8003b60:	f003 020c 	and.w	r2, r3, #12
 8003b64:	2a08      	cmp	r2, #8
 8003b66:	d117      	bne.n	8003b98 <HAL_RCC_GetSysClockFreq+0x60>
 8003b68:	f3c3 4283 	ubfx	r2, r3, #18, #4
 8003b6c:	a806      	add	r0, sp, #24
 8003b6e:	4402      	add	r2, r0
 8003b70:	03db      	lsls	r3, r3, #15
 8003b72:	f812 2c10 	ldrb.w	r2, [r2, #-16]
 8003b76:	d50c      	bpl.n	8003b92 <HAL_RCC_GetSysClockFreq+0x5a>
 8003b78:	684b      	ldr	r3, [r1, #4]
 8003b7a:	480a      	ldr	r0, [pc, #40]	; (8003ba4 <HAL_RCC_GetSysClockFreq+0x6c>)
 8003b7c:	f3c3 4340 	ubfx	r3, r3, #17, #1
 8003b80:	4350      	muls	r0, r2
 8003b82:	aa06      	add	r2, sp, #24
 8003b84:	4413      	add	r3, r2
 8003b86:	f813 3c14 	ldrb.w	r3, [r3, #-20]
 8003b8a:	fbb0 f0f3 	udiv	r0, r0, r3
 8003b8e:	b007      	add	sp, #28
 8003b90:	bd30      	pop	{r4, r5, pc}
 8003b92:	4805      	ldr	r0, [pc, #20]	; (8003ba8 <HAL_RCC_GetSysClockFreq+0x70>)
 8003b94:	4350      	muls	r0, r2
 8003b96:	e7fa      	b.n	8003b8e <HAL_RCC_GetSysClockFreq+0x56>
 8003b98:	4802      	ldr	r0, [pc, #8]	; (8003ba4 <HAL_RCC_GetSysClockFreq+0x6c>)
 8003b9a:	e7f8      	b.n	8003b8e <HAL_RCC_GetSysClockFreq+0x56>
 8003b9c:	08008c15 	.word	0x08008c15
 8003ba0:	40021000 	.word	0x40021000
 8003ba4:	007a1200 	.word	0x007a1200
 8003ba8:	003d0900 	.word	0x003d0900

08003bac <HAL_RCC_ClockConfig>:
 8003bac:	e92d 41f0 	stmdb	sp!, {r4, r5, r6, r7, r8, lr}
 8003bb0:	460d      	mov	r5, r1
 8003bb2:	4604      	mov	r4, r0
 8003bb4:	b910      	cbnz	r0, 8003bbc <HAL_RCC_ClockConfig+0x10>
 8003bb6:	2001      	movs	r0, #1
 8003bb8:	e8bd 81f0 	ldmia.w	sp!, {r4, r5, r6, r7, r8, pc}
 8003bbc:	4a44      	ldr	r2, [pc, #272]	; (8003cd0 <HAL_RCC_ClockConfig+0x124>)
 8003bbe:	6813      	ldr	r3, [r2, #0]
 8003bc0:	f003 0307 	and.w	r3, r3, #7
 8003bc4:	428b      	cmp	r3, r1
 8003bc6:	d328      	bcc.n	8003c1a <HAL_RCC_ClockConfig+0x6e>
 8003bc8:	6821      	ldr	r1, [r4, #0]
 8003bca:	078e      	lsls	r6, r1, #30
 8003bcc:	d430      	bmi.n	8003c30 <HAL_RCC_ClockConfig+0x84>
 8003bce:	07ca      	lsls	r2, r1, #31
 8003bd0:	d443      	bmi.n	8003c5a <HAL_RCC_ClockConfig+0xae>
 8003bd2:	4a3f      	ldr	r2, [pc, #252]	; (8003cd0 <HAL_RCC_ClockConfig+0x124>)
 8003bd4:	6813      	ldr	r3, [r2, #0]
 8003bd6:	f003 0307 	and.w	r3, r3, #7
 8003bda:	42ab      	cmp	r3, r5
 8003bdc:	d865      	bhi.n	8003caa <HAL_RCC_ClockConfig+0xfe>
 8003bde:	6822      	ldr	r2, [r4, #0]
 8003be0:	4d3c      	ldr	r5, [pc, #240]	; (8003cd4 <HAL_RCC_ClockConfig+0x128>)
 8003be2:	f012 0f04 	tst.w	r2, #4
 8003be6:	d16c      	bne.n	8003cc2 <HAL_RCC_ClockConfig+0x116>
 8003be8:	0713      	lsls	r3, r2, #28
 8003bea:	d506      	bpl.n	8003bfa <HAL_RCC_ClockConfig+0x4e>
 8003bec:	686b      	ldr	r3, [r5, #4]
 8003bee:	6922      	ldr	r2, [r4, #16]
 8003bf0:	f423 5360 	bic.w	r3, r3, #14336	; 0x3800
 8003bf4:	ea43 03c2 	orr.w	r3, r3, r2, lsl #3
 8003bf8:	606b      	str	r3, [r5, #4]
 8003bfa:	f7ff ff9d 	bl	8003b38 <HAL_RCC_GetSysClockFreq>
 8003bfe:	686b      	ldr	r3, [r5, #4]
 8003c00:	4a35      	ldr	r2, [pc, #212]	; (8003cd8 <HAL_RCC_ClockConfig+0x12c>)
 8003c02:	f3c3 1303 	ubfx	r3, r3, #4, #4
 8003c06:	5cd3      	ldrb	r3, [r2, r3]
 8003c08:	40d8      	lsrs	r0, r3
 8003c0a:	4b34      	ldr	r3, [pc, #208]	; (8003cdc <HAL_RCC_ClockConfig+0x130>)
 8003c0c:	6018      	str	r0, [r3, #0]
 8003c0e:	4b34      	ldr	r3, [pc, #208]	; (8003ce0 <HAL_RCC_ClockConfig+0x134>)
 8003c10:	6818      	ldr	r0, [r3, #0]
 8003c12:	f7fe ff19 	bl	8002a48 <HAL_InitTick>
 8003c16:	2000      	movs	r0, #0
 8003c18:	e7ce      	b.n	8003bb8 <HAL_RCC_ClockConfig+0xc>
 8003c1a:	6813      	ldr	r3, [r2, #0]
 8003c1c:	f023 0307 	bic.w	r3, r3, #7
 8003c20:	430b      	orrs	r3, r1
 8003c22:	6013      	str	r3, [r2, #0]
 8003c24:	6813      	ldr	r3, [r2, #0]
 8003c26:	f003 0307 	and.w	r3, r3, #7
 8003c2a:	428b      	cmp	r3, r1
 8003c2c:	d1c3      	bne.n	8003bb6 <HAL_RCC_ClockConfig+0xa>
 8003c2e:	e7cb      	b.n	8003bc8 <HAL_RCC_ClockConfig+0x1c>
 8003c30:	4b28      	ldr	r3, [pc, #160]	; (8003cd4 <HAL_RCC_ClockConfig+0x128>)
 8003c32:	f011 0f04 	tst.w	r1, #4
 8003c36:	bf1e      	ittt	ne
 8003c38:	685a      	ldrne	r2, [r3, #4]
 8003c3a:	f442 62e0 	orrne.w	r2, r2, #1792	; 0x700
 8003c3e:	605a      	strne	r2, [r3, #4]
 8003c40:	0708      	lsls	r0, r1, #28
 8003c42:	bf42      	ittt	mi
 8003c44:	685a      	ldrmi	r2, [r3, #4]
 8003c46:	f442 5260 	orrmi.w	r2, r2, #14336	; 0x3800
 8003c4a:	605a      	strmi	r2, [r3, #4]
 8003c4c:	685a      	ldr	r2, [r3, #4]
 8003c4e:	68a0      	ldr	r0, [r4, #8]
 8003c50:	f022 02f0 	bic.w	r2, r2, #240	; 0xf0
 8003c54:	4302      	orrs	r2, r0
 8003c56:	605a      	str	r2, [r3, #4]
 8003c58:	e7b9      	b.n	8003bce <HAL_RCC_ClockConfig+0x22>
 8003c5a:	6862      	ldr	r2, [r4, #4]
 8003c5c:	4e1d      	ldr	r6, [pc, #116]	; (8003cd4 <HAL_RCC_ClockConfig+0x128>)
 8003c5e:	2a01      	cmp	r2, #1
 8003c60:	6833      	ldr	r3, [r6, #0]
 8003c62:	d11a      	bne.n	8003c9a <HAL_RCC_ClockConfig+0xee>
 8003c64:	f413 3f00 	tst.w	r3, #131072	; 0x20000
 8003c68:	d0a5      	beq.n	8003bb6 <HAL_RCC_ClockConfig+0xa>
 8003c6a:	6873      	ldr	r3, [r6, #4]
 8003c6c:	f241 3888 	movw	r8, #5000	; 0x1388
 8003c70:	f023 0303 	bic.w	r3, r3, #3
 8003c74:	4313      	orrs	r3, r2
 8003c76:	6073      	str	r3, [r6, #4]
 8003c78:	f7fe ff28 	bl	8002acc <HAL_GetTick>
 8003c7c:	4607      	mov	r7, r0
 8003c7e:	6873      	ldr	r3, [r6, #4]
 8003c80:	6862      	ldr	r2, [r4, #4]
 8003c82:	f003 030c 	and.w	r3, r3, #12
 8003c86:	ebb3 0f82 	cmp.w	r3, r2, lsl #2
 8003c8a:	d0a2      	beq.n	8003bd2 <HAL_RCC_ClockConfig+0x26>
 8003c8c:	f7fe ff1e 	bl	8002acc <HAL_GetTick>
 8003c90:	1bc0      	subs	r0, r0, r7
 8003c92:	4540      	cmp	r0, r8
 8003c94:	d9f3      	bls.n	8003c7e <HAL_RCC_ClockConfig+0xd2>
 8003c96:	2003      	movs	r0, #3
 8003c98:	e78e      	b.n	8003bb8 <HAL_RCC_ClockConfig+0xc>
 8003c9a:	2a02      	cmp	r2, #2
 8003c9c:	d102      	bne.n	8003ca4 <HAL_RCC_ClockConfig+0xf8>
 8003c9e:	f013 7f00 	tst.w	r3, #33554432	; 0x2000000
 8003ca2:	e7e1      	b.n	8003c68 <HAL_RCC_ClockConfig+0xbc>
 8003ca4:	f013 0f02 	tst.w	r3, #2
 8003ca8:	e7de      	b.n	8003c68 <HAL_RCC_ClockConfig+0xbc>
 8003caa:	6813      	ldr	r3, [r2, #0]
 8003cac:	f023 0307 	bic.w	r3, r3, #7
 8003cb0:	432b      	orrs	r3, r5
 8003cb2:	6013      	str	r3, [r2, #0]
 8003cb4:	6813      	ldr	r3, [r2, #0]
 8003cb6:	f003 0307 	and.w	r3, r3, #7
 8003cba:	42ab      	cmp	r3, r5
 8003cbc:	f47f af7b 	bne.w	8003bb6 <HAL_RCC_ClockConfig+0xa>
 8003cc0:	e78d      	b.n	8003bde <HAL_RCC_ClockConfig+0x32>
 8003cc2:	686b      	ldr	r3, [r5, #4]
 8003cc4:	68e1      	ldr	r1, [r4, #12]
 8003cc6:	f423 63e0 	bic.w	r3, r3, #1792	; 0x700
 8003cca:	430b      	orrs	r3, r1
 8003ccc:	606b      	str	r3, [r5, #4]
 8003cce:	e78b      	b.n	8003be8 <HAL_RCC_ClockConfig+0x3c>
 8003cd0:	40022000 	.word	0x40022000
 8003cd4:	40021000 	.word	0x40021000
 8003cd8:	08008bfd 	.word	0x08008bfd
 8003cdc:	200000a0 	.word	0x200000a0
 8003ce0:	200000a8 	.word	0x200000a8

08003ce4 <HAL_RCC_GetPCLK1Freq>:
 8003ce4:	4b04      	ldr	r3, [pc, #16]	; (8003cf8 <HAL_RCC_GetPCLK1Freq+0x14>)
 8003ce6:	4a05      	ldr	r2, [pc, #20]	; (8003cfc <HAL_RCC_GetPCLK1Freq+0x18>)
 8003ce8:	685b      	ldr	r3, [r3, #4]
 8003cea:	f3c3 2302 	ubfx	r3, r3, #8, #3
 8003cee:	5cd3      	ldrb	r3, [r2, r3]
 8003cf0:	4a03      	ldr	r2, [pc, #12]	; (8003d00 <HAL_RCC_GetPCLK1Freq+0x1c>)
 8003cf2:	6810      	ldr	r0, [r2, #0]
 8003cf4:	40d8      	lsrs	r0, r3
 8003cf6:	4770      	bx	lr
 8003cf8:	40021000 	.word	0x40021000
 8003cfc:	08008c0d 	.word	0x08008c0d
 8003d00:	200000a0 	.word	0x200000a0

08003d04 <HAL_RCC_GetPCLK2Freq>:
 8003d04:	4b04      	ldr	r3, [pc, #16]	; (8003d18 <HAL_RCC_GetPCLK2Freq+0x14>)
 8003d06:	4a05      	ldr	r2, [pc, #20]	; (8003d1c <HAL_RCC_GetPCLK2Freq+0x18>)
 8003d08:	685b      	ldr	r3, [r3, #4]
 8003d0a:	f3c3 23c2 	ubfx	r3, r3, #11, #3
 8003d0e:	5cd3      	ldrb	r3, [r2, r3]
 8003d10:	4a03      	ldr	r2, [pc, #12]	; (8003d20 <HAL_RCC_GetPCLK2Freq+0x1c>)
 8003d12:	6810      	ldr	r0, [r2, #0]
 8003d14:	40d8      	lsrs	r0, r3
 8003d16:	4770      	bx	lr
 8003d18:	40021000 	.word	0x40021000
 8003d1c:	08008c0d 	.word	0x08008c0d
 8003d20:	200000a0 	.word	0x200000a0

08003d24 <TIM_OC1_SetConfig>:
 8003d24:	6a03      	ldr	r3, [r0, #32]
 8003d26:	b570      	push	{r4, r5, r6, lr}
 8003d28:	f023 0301 	bic.w	r3, r3, #1
 8003d2c:	6203      	str	r3, [r0, #32]
 8003d2e:	6a03      	ldr	r3, [r0, #32]
 8003d30:	6844      	ldr	r4, [r0, #4]
 8003d32:	6982      	ldr	r2, [r0, #24]
 8003d34:	680d      	ldr	r5, [r1, #0]
 8003d36:	f022 0273 	bic.w	r2, r2, #115	; 0x73
 8003d3a:	432a      	orrs	r2, r5
 8003d3c:	688d      	ldr	r5, [r1, #8]
 8003d3e:	f023 0302 	bic.w	r3, r3, #2
 8003d42:	432b      	orrs	r3, r5
 8003d44:	4d0a      	ldr	r5, [pc, #40]	; (8003d70 <TIM_OC1_SetConfig+0x4c>)
 8003d46:	42a8      	cmp	r0, r5
 8003d48:	d10b      	bne.n	8003d62 <TIM_OC1_SetConfig+0x3e>
 8003d4a:	68cd      	ldr	r5, [r1, #12]
 8003d4c:	f023 0308 	bic.w	r3, r3, #8
 8003d50:	432b      	orrs	r3, r5
 8003d52:	f424 7440 	bic.w	r4, r4, #768	; 0x300
 8003d56:	e9d1 5605 	ldrd	r5, r6, [r1, #20]
 8003d5a:	4335      	orrs	r5, r6
 8003d5c:	f023 0304 	bic.w	r3, r3, #4
 8003d60:	432c      	orrs	r4, r5
 8003d62:	6044      	str	r4, [r0, #4]
 8003d64:	6182      	str	r2, [r0, #24]
 8003d66:	684a      	ldr	r2, [r1, #4]
 8003d68:	6342      	str	r2, [r0, #52]	; 0x34
 8003d6a:	6203      	str	r3, [r0, #32]
 8003d6c:	bd70      	pop	{r4, r5, r6, pc}
 8003d6e:	bf00      	nop
 8003d70:	40012c00 	.word	0x40012c00

08003d74 <TIM_OC3_SetConfig>:
 8003d74:	6a03      	ldr	r3, [r0, #32]
 8003d76:	b570      	push	{r4, r5, r6, lr}
 8003d78:	f423 7380 	bic.w	r3, r3, #256	; 0x100
 8003d7c:	6203      	str	r3, [r0, #32]
 8003d7e:	6a03      	ldr	r3, [r0, #32]
 8003d80:	6844      	ldr	r4, [r0, #4]
 8003d82:	69c2      	ldr	r2, [r0, #28]
 8003d84:	680d      	ldr	r5, [r1, #0]
 8003d86:	f022 0273 	bic.w	r2, r2, #115	; 0x73
 8003d8a:	432a      	orrs	r2, r5
 8003d8c:	688d      	ldr	r5, [r1, #8]
 8003d8e:	f423 7300 	bic.w	r3, r3, #512	; 0x200
 8003d92:	ea43 2305 	orr.w	r3, r3, r5, lsl #8
 8003d96:	4d0b      	ldr	r5, [pc, #44]	; (8003dc4 <TIM_OC3_SetConfig+0x50>)
 8003d98:	42a8      	cmp	r0, r5
 8003d9a:	d10d      	bne.n	8003db8 <TIM_OC3_SetConfig+0x44>
 8003d9c:	68cd      	ldr	r5, [r1, #12]
 8003d9e:	f423 6300 	bic.w	r3, r3, #2048	; 0x800
 8003da2:	ea43 2305 	orr.w	r3, r3, r5, lsl #8
 8003da6:	f424 5440 	bic.w	r4, r4, #12288	; 0x3000
 8003daa:	e9d1 5605 	ldrd	r5, r6, [r1, #20]
 8003dae:	4335      	orrs	r5, r6
 8003db0:	f423 6380 	bic.w	r3, r3, #1024	; 0x400
 8003db4:	ea44 1405 	orr.w	r4, r4, r5, lsl #4
 8003db8:	6044      	str	r4, [r0, #4]
 8003dba:	61c2      	str	r2, [r0, #28]
 8003dbc:	684a      	ldr	r2, [r1, #4]
 8003dbe:	63c2      	str	r2, [r0, #60]	; 0x3c
 8003dc0:	6203      	str	r3, [r0, #32]
 8003dc2:	bd70      	pop	{r4, r5, r6, pc}
 8003dc4:	40012c00 	.word	0x40012c00

08003dc8 <TIM_OC4_SetConfig>:
 8003dc8:	6a03      	ldr	r3, [r0, #32]
 8003dca:	b530      	push	{r4, r5, lr}
 8003dcc:	f423 5380 	bic.w	r3, r3, #4096	; 0x1000
 8003dd0:	6203      	str	r3, [r0, #32]
 8003dd2:	6a03      	ldr	r3, [r0, #32]
 8003dd4:	6844      	ldr	r4, [r0, #4]
 8003dd6:	69c2      	ldr	r2, [r0, #28]
 8003dd8:	680d      	ldr	r5, [r1, #0]
 8003dda:	f422 42e6 	bic.w	r2, r2, #29440	; 0x7300
 8003dde:	ea42 2205 	orr.w	r2, r2, r5, lsl #8
 8003de2:	688d      	ldr	r5, [r1, #8]
 8003de4:	f423 5300 	bic.w	r3, r3, #8192	; 0x2000
 8003de8:	ea43 3305 	orr.w	r3, r3, r5, lsl #12
 8003dec:	4d06      	ldr	r5, [pc, #24]	; (8003e08 <TIM_OC4_SetConfig+0x40>)
 8003dee:	42a8      	cmp	r0, r5
 8003df0:	bf02      	ittt	eq
 8003df2:	694d      	ldreq	r5, [r1, #20]
 8003df4:	f424 4480 	biceq.w	r4, r4, #16384	; 0x4000
 8003df8:	ea44 1485 	orreq.w	r4, r4, r5, lsl #6
 8003dfc:	6044      	str	r4, [r0, #4]
 8003dfe:	61c2      	str	r2, [r0, #28]
 8003e00:	684a      	ldr	r2, [r1, #4]
 8003e02:	6402      	str	r2, [r0, #64]	; 0x40
 8003e04:	6203      	str	r3, [r0, #32]
 8003e06:	bd30      	pop	{r4, r5, pc}
 8003e08:	40012c00 	.word	0x40012c00

08003e0c <HAL_TIM_PWM_MspInit>:
 8003e0c:	4770      	bx	lr
	...

08003e10 <TIM_Base_SetConfig>:
 8003e10:	4a1a      	ldr	r2, [pc, #104]	; (8003e7c <TIM_Base_SetConfig+0x6c>)
 8003e12:	6803      	ldr	r3, [r0, #0]
 8003e14:	4290      	cmp	r0, r2
 8003e16:	d00a      	beq.n	8003e2e <TIM_Base_SetConfig+0x1e>
 8003e18:	f1b0 4f80 	cmp.w	r0, #1073741824	; 0x40000000
 8003e1c:	d007      	beq.n	8003e2e <TIM_Base_SetConfig+0x1e>
 8003e1e:	f5a2 3294 	sub.w	r2, r2, #75776	; 0x12800
 8003e22:	4290      	cmp	r0, r2
 8003e24:	d003      	beq.n	8003e2e <TIM_Base_SetConfig+0x1e>
 8003e26:	f502 6280 	add.w	r2, r2, #1024	; 0x400
 8003e2a:	4290      	cmp	r0, r2
 8003e2c:	d115      	bne.n	8003e5a <TIM_Base_SetConfig+0x4a>
 8003e2e:	684a      	ldr	r2, [r1, #4]
 8003e30:	f023 0370 	bic.w	r3, r3, #112	; 0x70
 8003e34:	4313      	orrs	r3, r2
 8003e36:	4a11      	ldr	r2, [pc, #68]	; (8003e7c <TIM_Base_SetConfig+0x6c>)
 8003e38:	4290      	cmp	r0, r2
 8003e3a:	d00a      	beq.n	8003e52 <TIM_Base_SetConfig+0x42>
 8003e3c:	f1b0 4f80 	cmp.w	r0, #1073741824	; 0x40000000
 8003e40:	d007      	beq.n	8003e52 <TIM_Base_SetConfig+0x42>
 8003e42:	f5a2 3294 	sub.w	r2, r2, #75776	; 0x12800
 8003e46:	4290      	cmp	r0, r2
 8003e48:	d003      	beq.n	8003e52 <TIM_Base_SetConfig+0x42>
 8003e4a:	f502 6280 	add.w	r2, r2, #1024	; 0x400
 8003e4e:	4290      	cmp	r0, r2
 8003e50:	d103      	bne.n	8003e5a <TIM_Base_SetConfig+0x4a>
 8003e52:	68ca      	ldr	r2, [r1, #12]
 8003e54:	f423 7340 	bic.w	r3, r3, #768	; 0x300
 8003e58:	4313      	orrs	r3, r2
 8003e5a:	694a      	ldr	r2, [r1, #20]
 8003e5c:	f023 0380 	bic.w	r3, r3, #128	; 0x80
 8003e60:	4313      	orrs	r3, r2
 8003e62:	6003      	str	r3, [r0, #0]
 8003e64:	688b      	ldr	r3, [r1, #8]
 8003e66:	62c3      	str	r3, [r0, #44]	; 0x2c
 8003e68:	680b      	ldr	r3, [r1, #0]
 8003e6a:	6283      	str	r3, [r0, #40]	; 0x28
 8003e6c:	4b03      	ldr	r3, [pc, #12]	; (8003e7c <TIM_Base_SetConfig+0x6c>)
 8003e6e:	4298      	cmp	r0, r3
 8003e70:	bf04      	itt	eq
 8003e72:	690b      	ldreq	r3, [r1, #16]
 8003e74:	6303      	streq	r3, [r0, #48]	; 0x30
 8003e76:	2301      	movs	r3, #1
 8003e78:	6143      	str	r3, [r0, #20]
 8003e7a:	4770      	bx	lr
 8003e7c:	40012c00 	.word	0x40012c00

08003e80 <HAL_TIM_Base_Init>:
 8003e80:	b510      	push	{r4, lr}
 8003e82:	4604      	mov	r4, r0
 8003e84:	b330      	cbz	r0, 8003ed4 <HAL_TIM_Base_Init+0x54>
 8003e86:	f890 303d 	ldrb.w	r3, [r0, #61]	; 0x3d
 8003e8a:	f003 02ff 	and.w	r2, r3, #255	; 0xff
 8003e8e:	b91b      	cbnz	r3, 8003e98 <HAL_TIM_Base_Init+0x18>
 8003e90:	f880 203c 	strb.w	r2, [r0, #60]	; 0x3c
 8003e94:	f7fe fc4c 	bl	8002730 <HAL_TIM_Base_MspInit>
 8003e98:	2302      	movs	r3, #2
 8003e9a:	6820      	ldr	r0, [r4, #0]
 8003e9c:	f884 303d 	strb.w	r3, [r4, #61]	; 0x3d
 8003ea0:	1d21      	adds	r1, r4, #4
 8003ea2:	f7ff ffb5 	bl	8003e10 <TIM_Base_SetConfig>
 8003ea6:	2301      	movs	r3, #1
 8003ea8:	2000      	movs	r0, #0
 8003eaa:	f884 3046 	strb.w	r3, [r4, #70]	; 0x46
 8003eae:	f884 303e 	strb.w	r3, [r4, #62]	; 0x3e
 8003eb2:	f884 303f 	strb.w	r3, [r4, #63]	; 0x3f
 8003eb6:	f884 3040 	strb.w	r3, [r4, #64]	; 0x40
 8003eba:	f884 3041 	strb.w	r3, [r4, #65]	; 0x41
 8003ebe:	f884 3042 	strb.w	r3, [r4, #66]	; 0x42
 8003ec2:	f884 3043 	strb.w	r3, [r4, #67]	; 0x43
 8003ec6:	f884 3044 	strb.w	r3, [r4, #68]	; 0x44
 8003eca:	f884 3045 	strb.w	r3, [r4, #69]	; 0x45
 8003ece:	f884 303d 	strb.w	r3, [r4, #61]	; 0x3d
 8003ed2:	bd10      	pop	{r4, pc}
 8003ed4:	2001      	movs	r0, #1
 8003ed6:	e7fc      	b.n	8003ed2 <HAL_TIM_Base_Init+0x52>

08003ed8 <HAL_TIM_PWM_Init>:
 8003ed8:	b510      	push	{r4, lr}
 8003eda:	4604      	mov	r4, r0
 8003edc:	b330      	cbz	r0, 8003f2c <HAL_TIM_PWM_Init+0x54>
 8003ede:	f890 303d 	ldrb.w	r3, [r0, #61]	; 0x3d
 8003ee2:	f003 02ff 	and.w	r2, r3, #255	; 0xff
 8003ee6:	b91b      	cbnz	r3, 8003ef0 <HAL_TIM_PWM_Init+0x18>
 8003ee8:	f880 203c 	strb.w	r2, [r0, #60]	; 0x3c
 8003eec:	f7ff ff8e 	bl	8003e0c <HAL_TIM_PWM_MspInit>
 8003ef0:	2302      	movs	r3, #2
 8003ef2:	6820      	ldr	r0, [r4, #0]
 8003ef4:	f884 303d 	strb.w	r3, [r4, #61]	; 0x3d
 8003ef8:	1d21      	adds	r1, r4, #4
 8003efa:	f7ff ff89 	bl	8003e10 <TIM_Base_SetConfig>
 8003efe:	2301      	movs	r3, #1
 8003f00:	2000      	movs	r0, #0
 8003f02:	f884 3046 	strb.w	r3, [r4, #70]	; 0x46
 8003f06:	f884 303e 	strb.w	r3, [r4, #62]	; 0x3e
 8003f0a:	f884 303f 	strb.w	r3, [r4, #63]	; 0x3f
 8003f0e:	f884 3040 	strb.w	r3, [r4, #64]	; 0x40
 8003f12:	f884 3041 	strb.w	r3, [r4, #65]	; 0x41
 8003f16:	f884 3042 	strb.w	r3, [r4, #66]	; 0x42
 8003f1a:	f884 3043 	strb.w	r3, [r4, #67]	; 0x43
 8003f1e:	f884 3044 	strb.w	r3, [r4, #68]	; 0x44
 8003f22:	f884 3045 	strb.w	r3, [r4, #69]	; 0x45
 8003f26:	f884 303d 	strb.w	r3, [r4, #61]	; 0x3d
 8003f2a:	bd10      	pop	{r4, pc}
 8003f2c:	2001      	movs	r0, #1
 8003f2e:	e7fc      	b.n	8003f2a <HAL_TIM_PWM_Init+0x52>

08003f30 <TIM_OC2_SetConfig>:
 8003f30:	6a03      	ldr	r3, [r0, #32]
 8003f32:	b570      	push	{r4, r5, r6, lr}
 8003f34:	f023 0310 	bic.w	r3, r3, #16
 8003f38:	6203      	str	r3, [r0, #32]
 8003f3a:	6a03      	ldr	r3, [r0, #32]
 8003f3c:	6844      	ldr	r4, [r0, #4]
 8003f3e:	6982      	ldr	r2, [r0, #24]
 8003f40:	680d      	ldr	r5, [r1, #0]
 8003f42:	f422 42e6 	bic.w	r2, r2, #29440	; 0x7300
 8003f46:	ea42 2205 	orr.w	r2, r2, r5, lsl #8
 8003f4a:	688d      	ldr	r5, [r1, #8]
 8003f4c:	f023 0320 	bic.w	r3, r3, #32
 8003f50:	ea43 1305 	orr.w	r3, r3, r5, lsl #4
 8003f54:	4d0b      	ldr	r5, [pc, #44]	; (8003f84 <TIM_OC2_SetConfig+0x54>)
 8003f56:	42a8      	cmp	r0, r5
 8003f58:	d10d      	bne.n	8003f76 <TIM_OC2_SetConfig+0x46>
 8003f5a:	68cd      	ldr	r5, [r1, #12]
 8003f5c:	f023 0380 	bic.w	r3, r3, #128	; 0x80
 8003f60:	ea43 1305 	orr.w	r3, r3, r5, lsl #4
 8003f64:	f424 6440 	bic.w	r4, r4, #3072	; 0xc00
 8003f68:	e9d1 5605 	ldrd	r5, r6, [r1, #20]
 8003f6c:	4335      	orrs	r5, r6
 8003f6e:	f023 0340 	bic.w	r3, r3, #64	; 0x40
 8003f72:	ea44 0485 	orr.w	r4, r4, r5, lsl #2
 8003f76:	6044      	str	r4, [r0, #4]
 8003f78:	6182      	str	r2, [r0, #24]
 8003f7a:	684a      	ldr	r2, [r1, #4]
 8003f7c:	6382      	str	r2, [r0, #56]	; 0x38
 8003f7e:	6203      	str	r3, [r0, #32]
 8003f80:	bd70      	pop	{r4, r5, r6, pc}
 8003f82:	bf00      	nop
 8003f84:	40012c00 	.word	0x40012c00

08003f88 <HAL_TIM_PWM_ConfigChannel>:
 8003f88:	b538      	push	{r3, r4, r5, lr}
 8003f8a:	f890 303c 	ldrb.w	r3, [r0, #60]	; 0x3c
 8003f8e:	4604      	mov	r4, r0
 8003f90:	2b01      	cmp	r3, #1
 8003f92:	d052      	beq.n	800403a <HAL_TIM_PWM_ConfigChannel+0xb2>
 8003f94:	2301      	movs	r3, #1
 8003f96:	2a08      	cmp	r2, #8
 8003f98:	f880 303c 	strb.w	r3, [r0, #60]	; 0x3c
 8003f9c:	d03c      	beq.n	8004018 <HAL_TIM_PWM_ConfigChannel+0x90>
 8003f9e:	d806      	bhi.n	8003fae <HAL_TIM_PWM_ConfigChannel+0x26>
 8003fa0:	b1c2      	cbz	r2, 8003fd4 <HAL_TIM_PWM_ConfigChannel+0x4c>
 8003fa2:	2a04      	cmp	r2, #4
 8003fa4:	d027      	beq.n	8003ff6 <HAL_TIM_PWM_ConfigChannel+0x6e>
 8003fa6:	2000      	movs	r0, #0
 8003fa8:	f884 003c 	strb.w	r0, [r4, #60]	; 0x3c
 8003fac:	bd38      	pop	{r3, r4, r5, pc}
 8003fae:	2a0c      	cmp	r2, #12
 8003fb0:	d1f9      	bne.n	8003fa6 <HAL_TIM_PWM_ConfigChannel+0x1e>
 8003fb2:	6800      	ldr	r0, [r0, #0]
 8003fb4:	f7ff ff08 	bl	8003dc8 <TIM_OC4_SetConfig>
 8003fb8:	6823      	ldr	r3, [r4, #0]
 8003fba:	6909      	ldr	r1, [r1, #16]
 8003fbc:	69da      	ldr	r2, [r3, #28]
 8003fbe:	f442 6200 	orr.w	r2, r2, #2048	; 0x800
 8003fc2:	61da      	str	r2, [r3, #28]
 8003fc4:	69da      	ldr	r2, [r3, #28]
 8003fc6:	f422 6280 	bic.w	r2, r2, #1024	; 0x400
 8003fca:	61da      	str	r2, [r3, #28]
 8003fcc:	69da      	ldr	r2, [r3, #28]
 8003fce:	ea42 2201 	orr.w	r2, r2, r1, lsl #8
 8003fd2:	e030      	b.n	8004036 <HAL_TIM_PWM_ConfigChannel+0xae>
 8003fd4:	6800      	ldr	r0, [r0, #0]
 8003fd6:	f7ff fea5 	bl	8003d24 <TIM_OC1_SetConfig>
 8003fda:	6823      	ldr	r3, [r4, #0]
 8003fdc:	6909      	ldr	r1, [r1, #16]
 8003fde:	699a      	ldr	r2, [r3, #24]
 8003fe0:	f042 0208 	orr.w	r2, r2, #8
 8003fe4:	619a      	str	r2, [r3, #24]
 8003fe6:	699a      	ldr	r2, [r3, #24]
 8003fe8:	f022 0204 	bic.w	r2, r2, #4
 8003fec:	619a      	str	r2, [r3, #24]
 8003fee:	699a      	ldr	r2, [r3, #24]
 8003ff0:	430a      	orrs	r2, r1
 8003ff2:	619a      	str	r2, [r3, #24]
 8003ff4:	e7d7      	b.n	8003fa6 <HAL_TIM_PWM_ConfigChannel+0x1e>
 8003ff6:	6800      	ldr	r0, [r0, #0]
 8003ff8:	f7ff ff9a 	bl	8003f30 <TIM_OC2_SetConfig>
 8003ffc:	6823      	ldr	r3, [r4, #0]
 8003ffe:	6909      	ldr	r1, [r1, #16]
 8004000:	699a      	ldr	r2, [r3, #24]
 8004002:	f442 6200 	orr.w	r2, r2, #2048	; 0x800
 8004006:	619a      	str	r2, [r3, #24]
 8004008:	699a      	ldr	r2, [r3, #24]
 800400a:	f422 6280 	bic.w	r2, r2, #1024	; 0x400
 800400e:	619a      	str	r2, [r3, #24]
 8004010:	699a      	ldr	r2, [r3, #24]
 8004012:	ea42 2201 	orr.w	r2, r2, r1, lsl #8
 8004016:	e7ec      	b.n	8003ff2 <HAL_TIM_PWM_ConfigChannel+0x6a>
 8004018:	6800      	ldr	r0, [r0, #0]
 800401a:	f7ff feab 	bl	8003d74 <TIM_OC3_SetConfig>
 800401e:	6823      	ldr	r3, [r4, #0]
 8004020:	6909      	ldr	r1, [r1, #16]
 8004022:	69da      	ldr	r2, [r3, #28]
 8004024:	f042 0208 	orr.w	r2, r2, #8
 8004028:	61da      	str	r2, [r3, #28]
 800402a:	69da      	ldr	r2, [r3, #28]
 800402c:	f022 0204 	bic.w	r2, r2, #4
 8004030:	61da      	str	r2, [r3, #28]
 8004032:	69da      	ldr	r2, [r3, #28]
 8004034:	430a      	orrs	r2, r1
 8004036:	61da      	str	r2, [r3, #28]
 8004038:	e7b5      	b.n	8003fa6 <HAL_TIM_PWM_ConfigChannel+0x1e>
 800403a:	2002      	movs	r0, #2
 800403c:	e7b6      	b.n	8003fac <HAL_TIM_PWM_ConfigChannel+0x24>

0800403e <TIM_ETR_SetConfig>:
 800403e:	b510      	push	{r4, lr}
 8004040:	6884      	ldr	r4, [r0, #8]
 8004042:	430a      	orrs	r2, r1
 8004044:	f424 447f 	bic.w	r4, r4, #65280	; 0xff00
 8004048:	ea42 2203 	orr.w	r2, r2, r3, lsl #8
 800404c:	4322      	orrs	r2, r4
 800404e:	6082      	str	r2, [r0, #8]
 8004050:	bd10      	pop	{r4, pc}

08004052 <HAL_TIM_ConfigClockSource>:
 8004052:	b570      	push	{r4, r5, r6, lr}
 8004054:	f890 303c 	ldrb.w	r3, [r0, #60]	; 0x3c
 8004058:	4604      	mov	r4, r0
 800405a:	2b01      	cmp	r3, #1
 800405c:	f04f 0002 	mov.w	r0, #2
 8004060:	d027      	beq.n	80040b2 <HAL_TIM_ConfigClockSource+0x60>
 8004062:	2301      	movs	r3, #1
 8004064:	f884 003d 	strb.w	r0, [r4, #61]	; 0x3d
 8004068:	6820      	ldr	r0, [r4, #0]
 800406a:	f884 303c 	strb.w	r3, [r4, #60]	; 0x3c
 800406e:	6883      	ldr	r3, [r0, #8]
 8004070:	f423 437f 	bic.w	r3, r3, #65280	; 0xff00
 8004074:	f023 0377 	bic.w	r3, r3, #119	; 0x77
 8004078:	6083      	str	r3, [r0, #8]
 800407a:	680b      	ldr	r3, [r1, #0]
 800407c:	2b60      	cmp	r3, #96	; 0x60
 800407e:	d04d      	beq.n	800411c <HAL_TIM_ConfigClockSource+0xca>
 8004080:	d832      	bhi.n	80040e8 <HAL_TIM_ConfigClockSource+0x96>
 8004082:	2b40      	cmp	r3, #64	; 0x40
 8004084:	d062      	beq.n	800414c <HAL_TIM_ConfigClockSource+0xfa>
 8004086:	d815      	bhi.n	80040b4 <HAL_TIM_ConfigClockSource+0x62>
 8004088:	2b20      	cmp	r3, #32
 800408a:	d003      	beq.n	8004094 <HAL_TIM_ConfigClockSource+0x42>
 800408c:	d809      	bhi.n	80040a2 <HAL_TIM_ConfigClockSource+0x50>
 800408e:	f033 0210 	bics.w	r2, r3, #16
 8004092:	d108      	bne.n	80040a6 <HAL_TIM_ConfigClockSource+0x54>
 8004094:	6882      	ldr	r2, [r0, #8]
 8004096:	f022 0270 	bic.w	r2, r2, #112	; 0x70
 800409a:	4313      	orrs	r3, r2
 800409c:	f043 0307 	orr.w	r3, r3, #7
 80040a0:	e020      	b.n	80040e4 <HAL_TIM_ConfigClockSource+0x92>
 80040a2:	2b30      	cmp	r3, #48	; 0x30
 80040a4:	d0f6      	beq.n	8004094 <HAL_TIM_ConfigClockSource+0x42>
 80040a6:	2301      	movs	r3, #1
 80040a8:	2000      	movs	r0, #0
 80040aa:	f884 303d 	strb.w	r3, [r4, #61]	; 0x3d
 80040ae:	f884 003c 	strb.w	r0, [r4, #60]	; 0x3c
 80040b2:	bd70      	pop	{r4, r5, r6, pc}
 80040b4:	2b50      	cmp	r3, #80	; 0x50
 80040b6:	d1f6      	bne.n	80040a6 <HAL_TIM_ConfigClockSource+0x54>
 80040b8:	684a      	ldr	r2, [r1, #4]
 80040ba:	68ce      	ldr	r6, [r1, #12]
 80040bc:	6a01      	ldr	r1, [r0, #32]
 80040be:	6a05      	ldr	r5, [r0, #32]
 80040c0:	f021 010a 	bic.w	r1, r1, #10
 80040c4:	f025 0501 	bic.w	r5, r5, #1
 80040c8:	6205      	str	r5, [r0, #32]
 80040ca:	6983      	ldr	r3, [r0, #24]
 80040cc:	430a      	orrs	r2, r1
 80040ce:	f023 03f0 	bic.w	r3, r3, #240	; 0xf0
 80040d2:	ea43 1306 	orr.w	r3, r3, r6, lsl #4
 80040d6:	6183      	str	r3, [r0, #24]
 80040d8:	6202      	str	r2, [r0, #32]
 80040da:	6883      	ldr	r3, [r0, #8]
 80040dc:	f023 0370 	bic.w	r3, r3, #112	; 0x70
 80040e0:	f043 0357 	orr.w	r3, r3, #87	; 0x57
 80040e4:	6083      	str	r3, [r0, #8]
 80040e6:	e7de      	b.n	80040a6 <HAL_TIM_ConfigClockSource+0x54>
 80040e8:	2b70      	cmp	r3, #112	; 0x70
 80040ea:	d00c      	beq.n	8004106 <HAL_TIM_ConfigClockSource+0xb4>
 80040ec:	f5b3 5f00 	cmp.w	r3, #8192	; 0x2000
 80040f0:	d1d9      	bne.n	80040a6 <HAL_TIM_ConfigClockSource+0x54>
 80040f2:	68cb      	ldr	r3, [r1, #12]
 80040f4:	e9d1 2101 	ldrd	r2, r1, [r1, #4]
 80040f8:	f7ff ffa1 	bl	800403e <TIM_ETR_SetConfig>
 80040fc:	6822      	ldr	r2, [r4, #0]
 80040fe:	6893      	ldr	r3, [r2, #8]
 8004100:	f443 4380 	orr.w	r3, r3, #16384	; 0x4000
 8004104:	e008      	b.n	8004118 <HAL_TIM_ConfigClockSource+0xc6>
 8004106:	68cb      	ldr	r3, [r1, #12]
 8004108:	e9d1 2101 	ldrd	r2, r1, [r1, #4]
 800410c:	f7ff ff97 	bl	800403e <TIM_ETR_SetConfig>
 8004110:	6822      	ldr	r2, [r4, #0]
 8004112:	6893      	ldr	r3, [r2, #8]
 8004114:	f043 0377 	orr.w	r3, r3, #119	; 0x77
 8004118:	6093      	str	r3, [r2, #8]
 800411a:	e7c4      	b.n	80040a6 <HAL_TIM_ConfigClockSource+0x54>
 800411c:	684d      	ldr	r5, [r1, #4]
 800411e:	68ce      	ldr	r6, [r1, #12]
 8004120:	6a01      	ldr	r1, [r0, #32]
 8004122:	f021 0110 	bic.w	r1, r1, #16
 8004126:	6201      	str	r1, [r0, #32]
 8004128:	6982      	ldr	r2, [r0, #24]
 800412a:	6a03      	ldr	r3, [r0, #32]
 800412c:	f422 4270 	bic.w	r2, r2, #61440	; 0xf000
 8004130:	f023 03a0 	bic.w	r3, r3, #160	; 0xa0
 8004134:	ea43 1305 	orr.w	r3, r3, r5, lsl #4
 8004138:	ea42 3206 	orr.w	r2, r2, r6, lsl #12
 800413c:	6182      	str	r2, [r0, #24]
 800413e:	6203      	str	r3, [r0, #32]
 8004140:	6883      	ldr	r3, [r0, #8]
 8004142:	f023 0370 	bic.w	r3, r3, #112	; 0x70
 8004146:	f043 0367 	orr.w	r3, r3, #103	; 0x67
 800414a:	e7cb      	b.n	80040e4 <HAL_TIM_ConfigClockSource+0x92>
 800414c:	684a      	ldr	r2, [r1, #4]
 800414e:	68ce      	ldr	r6, [r1, #12]
 8004150:	6a01      	ldr	r1, [r0, #32]
 8004152:	6a05      	ldr	r5, [r0, #32]
 8004154:	f021 010a 	bic.w	r1, r1, #10
 8004158:	f025 0501 	bic.w	r5, r5, #1
 800415c:	6205      	str	r5, [r0, #32]
 800415e:	6983      	ldr	r3, [r0, #24]
 8004160:	430a      	orrs	r2, r1
 8004162:	f023 03f0 	bic.w	r3, r3, #240	; 0xf0
 8004166:	ea43 1306 	orr.w	r3, r3, r6, lsl #4
 800416a:	6183      	str	r3, [r0, #24]
 800416c:	6202      	str	r2, [r0, #32]
 800416e:	6883      	ldr	r3, [r0, #8]
 8004170:	f023 0370 	bic.w	r3, r3, #112	; 0x70
 8004174:	f043 0347 	orr.w	r3, r3, #71	; 0x47
 8004178:	e7b4      	b.n	80040e4 <HAL_TIM_ConfigClockSource+0x92>

0800417a <TIM_CCxChannelCmd>:
 800417a:	b510      	push	{r4, lr}
 800417c:	2401      	movs	r4, #1
 800417e:	6a03      	ldr	r3, [r0, #32]
 8004180:	f001 011f 	and.w	r1, r1, #31
 8004184:	408c      	lsls	r4, r1
 8004186:	ea23 0304 	bic.w	r3, r3, r4
 800418a:	6203      	str	r3, [r0, #32]
 800418c:	6a03      	ldr	r3, [r0, #32]
 800418e:	408a      	lsls	r2, r1
 8004190:	431a      	orrs	r2, r3
 8004192:	6202      	str	r2, [r0, #32]
 8004194:	bd10      	pop	{r4, pc}
	...

08004198 <HAL_TIM_OC_Start>:
 8004198:	b510      	push	{r4, lr}
 800419a:	4604      	mov	r4, r0
 800419c:	b929      	cbnz	r1, 80041aa <HAL_TIM_OC_Start+0x12>
 800419e:	f890 303e 	ldrb.w	r3, [r0, #62]	; 0x3e
 80041a2:	2b01      	cmp	r3, #1
 80041a4:	d01d      	beq.n	80041e2 <HAL_TIM_OC_Start+0x4a>
 80041a6:	2001      	movs	r0, #1
 80041a8:	bd10      	pop	{r4, pc}
 80041aa:	2904      	cmp	r1, #4
 80041ac:	d107      	bne.n	80041be <HAL_TIM_OC_Start+0x26>
 80041ae:	f890 303f 	ldrb.w	r3, [r0, #63]	; 0x3f
 80041b2:	2b01      	cmp	r3, #1
 80041b4:	d1f7      	bne.n	80041a6 <HAL_TIM_OC_Start+0xe>
 80041b6:	2302      	movs	r3, #2
 80041b8:	f880 303f 	strb.w	r3, [r0, #63]	; 0x3f
 80041bc:	e014      	b.n	80041e8 <HAL_TIM_OC_Start+0x50>
 80041be:	2908      	cmp	r1, #8
 80041c0:	d107      	bne.n	80041d2 <HAL_TIM_OC_Start+0x3a>
 80041c2:	f890 3040 	ldrb.w	r3, [r0, #64]	; 0x40
 80041c6:	2b01      	cmp	r3, #1
 80041c8:	d1ed      	bne.n	80041a6 <HAL_TIM_OC_Start+0xe>
 80041ca:	2302      	movs	r3, #2
 80041cc:	f880 3040 	strb.w	r3, [r0, #64]	; 0x40
 80041d0:	e00a      	b.n	80041e8 <HAL_TIM_OC_Start+0x50>
 80041d2:	f890 3041 	ldrb.w	r3, [r0, #65]	; 0x41
 80041d6:	2b01      	cmp	r3, #1
 80041d8:	d1e5      	bne.n	80041a6 <HAL_TIM_OC_Start+0xe>
 80041da:	2302      	movs	r3, #2
 80041dc:	f880 3041 	strb.w	r3, [r0, #65]	; 0x41
 80041e0:	e002      	b.n	80041e8 <HAL_TIM_OC_Start+0x50>
 80041e2:	2302      	movs	r3, #2
 80041e4:	f880 303e 	strb.w	r3, [r0, #62]	; 0x3e
 80041e8:	2201      	movs	r2, #1
 80041ea:	6820      	ldr	r0, [r4, #0]
 80041ec:	f7ff ffc5 	bl	800417a <TIM_CCxChannelCmd>
 80041f0:	6823      	ldr	r3, [r4, #0]
 80041f2:	4a0e      	ldr	r2, [pc, #56]	; (800422c <HAL_TIM_OC_Start+0x94>)
 80041f4:	4293      	cmp	r3, r2
 80041f6:	d10a      	bne.n	800420e <HAL_TIM_OC_Start+0x76>
 80041f8:	6c5a      	ldr	r2, [r3, #68]	; 0x44
 80041fa:	f442 4200 	orr.w	r2, r2, #32768	; 0x8000
 80041fe:	645a      	str	r2, [r3, #68]	; 0x44
 8004200:	689a      	ldr	r2, [r3, #8]
 8004202:	f002 0207 	and.w	r2, r2, #7
 8004206:	2a06      	cmp	r2, #6
 8004208:	d10b      	bne.n	8004222 <HAL_TIM_OC_Start+0x8a>
 800420a:	2000      	movs	r0, #0
 800420c:	e7cc      	b.n	80041a8 <HAL_TIM_OC_Start+0x10>
 800420e:	f1b3 4f80 	cmp.w	r3, #1073741824	; 0x40000000
 8004212:	d0f5      	beq.n	8004200 <HAL_TIM_OC_Start+0x68>
 8004214:	4a06      	ldr	r2, [pc, #24]	; (8004230 <HAL_TIM_OC_Start+0x98>)
 8004216:	4293      	cmp	r3, r2
 8004218:	d0f2      	beq.n	8004200 <HAL_TIM_OC_Start+0x68>
 800421a:	f502 6280 	add.w	r2, r2, #1024	; 0x400
 800421e:	4293      	cmp	r3, r2
 8004220:	d0ee      	beq.n	8004200 <HAL_TIM_OC_Start+0x68>
 8004222:	681a      	ldr	r2, [r3, #0]
 8004224:	f042 0201 	orr.w	r2, r2, #1
 8004228:	601a      	str	r2, [r3, #0]
 800422a:	e7ee      	b.n	800420a <HAL_TIM_OC_Start+0x72>
 800422c:	40012c00 	.word	0x40012c00
 8004230:	40000400 	.word	0x40000400

08004234 <HAL_TIM_PWM_Start>:
 8004234:	f7ff bfb0 	b.w	8004198 <HAL_TIM_OC_Start>

08004238 <HAL_TIMEx_MasterConfigSynchronization>:
 8004238:	b530      	push	{r4, r5, lr}
 800423a:	f890 303c 	ldrb.w	r3, [r0, #60]	; 0x3c
 800423e:	4602      	mov	r2, r0
 8004240:	2b01      	cmp	r3, #1
 8004242:	f04f 0002 	mov.w	r0, #2
 8004246:	d022      	beq.n	800428e <HAL_TIMEx_MasterConfigSynchronization+0x56>
 8004248:	6813      	ldr	r3, [r2, #0]
 800424a:	f882 003d 	strb.w	r0, [r2, #61]	; 0x3d
 800424e:	685c      	ldr	r4, [r3, #4]
 8004250:	680d      	ldr	r5, [r1, #0]
 8004252:	f024 0470 	bic.w	r4, r4, #112	; 0x70
 8004256:	432c      	orrs	r4, r5
 8004258:	6898      	ldr	r0, [r3, #8]
 800425a:	605c      	str	r4, [r3, #4]
 800425c:	4c0c      	ldr	r4, [pc, #48]	; (8004290 <HAL_TIMEx_MasterConfigSynchronization+0x58>)
 800425e:	42a3      	cmp	r3, r4
 8004260:	d00a      	beq.n	8004278 <HAL_TIMEx_MasterConfigSynchronization+0x40>
 8004262:	f1b3 4f80 	cmp.w	r3, #1073741824	; 0x40000000
 8004266:	d007      	beq.n	8004278 <HAL_TIMEx_MasterConfigSynchronization+0x40>
 8004268:	f5a4 3494 	sub.w	r4, r4, #75776	; 0x12800
 800426c:	42a3      	cmp	r3, r4
 800426e:	d003      	beq.n	8004278 <HAL_TIMEx_MasterConfigSynchronization+0x40>
 8004270:	f504 6480 	add.w	r4, r4, #1024	; 0x400
 8004274:	42a3      	cmp	r3, r4
 8004276:	d104      	bne.n	8004282 <HAL_TIMEx_MasterConfigSynchronization+0x4a>
 8004278:	6849      	ldr	r1, [r1, #4]
 800427a:	f020 0080 	bic.w	r0, r0, #128	; 0x80
 800427e:	4301      	orrs	r1, r0
 8004280:	6099      	str	r1, [r3, #8]
 8004282:	2301      	movs	r3, #1
 8004284:	2000      	movs	r0, #0
 8004286:	f882 303d 	strb.w	r3, [r2, #61]	; 0x3d
 800428a:	f882 003c 	strb.w	r0, [r2, #60]	; 0x3c
 800428e:	bd30      	pop	{r4, r5, pc}
 8004290:	40012c00 	.word	0x40012c00

08004294 <HAL_TIMEx_ConfigBreakDeadTime>:
 8004294:	f890 303c 	ldrb.w	r3, [r0, #60]	; 0x3c
 8004298:	2b01      	cmp	r3, #1
 800429a:	d01f      	beq.n	80042dc <HAL_TIMEx_ConfigBreakDeadTime+0x48>
 800429c:	68cb      	ldr	r3, [r1, #12]
 800429e:	688a      	ldr	r2, [r1, #8]
 80042a0:	f423 7340 	bic.w	r3, r3, #768	; 0x300
 80042a4:	4313      	orrs	r3, r2
 80042a6:	684a      	ldr	r2, [r1, #4]
 80042a8:	f423 6380 	bic.w	r3, r3, #1024	; 0x400
 80042ac:	4313      	orrs	r3, r2
 80042ae:	680a      	ldr	r2, [r1, #0]
 80042b0:	f423 6300 	bic.w	r3, r3, #2048	; 0x800
 80042b4:	4313      	orrs	r3, r2
 80042b6:	690a      	ldr	r2, [r1, #16]
 80042b8:	f423 5380 	bic.w	r3, r3, #4096	; 0x1000
 80042bc:	4313      	orrs	r3, r2
 80042be:	694a      	ldr	r2, [r1, #20]
 80042c0:	f423 5300 	bic.w	r3, r3, #8192	; 0x2000
 80042c4:	4313      	orrs	r3, r2
 80042c6:	69ca      	ldr	r2, [r1, #28]
 80042c8:	f423 4380 	bic.w	r3, r3, #16384	; 0x4000
 80042cc:	4313      	orrs	r3, r2
 80042ce:	6802      	ldr	r2, [r0, #0]
 80042d0:	6453      	str	r3, [r2, #68]	; 0x44
 80042d2:	2300      	movs	r3, #0
 80042d4:	f880 303c 	strb.w	r3, [r0, #60]	; 0x3c
 80042d8:	4618      	mov	r0, r3
 80042da:	4770      	bx	lr
 80042dc:	2002      	movs	r0, #2
 80042de:	4770      	bx	lr

080042e0 <UART_EndRxTransfer>:
 80042e0:	6803      	ldr	r3, [r0, #0]
 80042e2:	68da      	ldr	r2, [r3, #12]
 80042e4:	f422 7290 	bic.w	r2, r2, #288	; 0x120
 80042e8:	60da      	str	r2, [r3, #12]
 80042ea:	695a      	ldr	r2, [r3, #20]
 80042ec:	f022 0201 	bic.w	r2, r2, #1
 80042f0:	615a      	str	r2, [r3, #20]
 80042f2:	6b02      	ldr	r2, [r0, #48]	; 0x30
 80042f4:	2a01      	cmp	r2, #1
 80042f6:	bf02      	ittt	eq
 80042f8:	68da      	ldreq	r2, [r3, #12]
 80042fa:	f022 0210 	biceq.w	r2, r2, #16
 80042fe:	60da      	streq	r2, [r3, #12]
 8004300:	2320      	movs	r3, #32
 8004302:	f880 303e 	strb.w	r3, [r0, #62]	; 0x3e
 8004306:	2300      	movs	r3, #0
 8004308:	6303      	str	r3, [r0, #48]	; 0x30
 800430a:	4770      	bx	lr

0800430c <UART_SetConfig>:
 800430c:	b510      	push	{r4, lr}
 800430e:	4604      	mov	r4, r0
 8004310:	6803      	ldr	r3, [r0, #0]
 8004312:	68c1      	ldr	r1, [r0, #12]
 8004314:	691a      	ldr	r2, [r3, #16]
 8004316:	f422 5240 	bic.w	r2, r2, #12288	; 0x3000
 800431a:	430a      	orrs	r2, r1
 800431c:	611a      	str	r2, [r3, #16]
 800431e:	6882      	ldr	r2, [r0, #8]
 8004320:	6900      	ldr	r0, [r0, #16]
 8004322:	68d9      	ldr	r1, [r3, #12]
 8004324:	4302      	orrs	r2, r0
 8004326:	6960      	ldr	r0, [r4, #20]
 8004328:	f421 51b0 	bic.w	r1, r1, #5632	; 0x1600
 800432c:	f021 010c 	bic.w	r1, r1, #12
 8004330:	4302      	orrs	r2, r0
 8004332:	430a      	orrs	r2, r1
 8004334:	60da      	str	r2, [r3, #12]
 8004336:	695a      	ldr	r2, [r3, #20]
 8004338:	69a1      	ldr	r1, [r4, #24]
 800433a:	f422 7240 	bic.w	r2, r2, #768	; 0x300
 800433e:	430a      	orrs	r2, r1
 8004340:	615a      	str	r2, [r3, #20]
 8004342:	4a0e      	ldr	r2, [pc, #56]	; (800437c <UART_SetConfig+0x70>)
 8004344:	4293      	cmp	r3, r2
 8004346:	d115      	bne.n	8004374 <UART_SetConfig+0x68>
 8004348:	f7ff fcdc 	bl	8003d04 <HAL_RCC_GetPCLK2Freq>
 800434c:	2319      	movs	r3, #25
 800434e:	4343      	muls	r3, r0
 8004350:	6862      	ldr	r2, [r4, #4]
 8004352:	6820      	ldr	r0, [r4, #0]
 8004354:	0092      	lsls	r2, r2, #2
 8004356:	fbb3 f3f2 	udiv	r3, r3, r2
 800435a:	2264      	movs	r2, #100	; 0x64
 800435c:	fbb3 f1f2 	udiv	r1, r3, r2
 8004360:	fb02 3311 	mls	r3, r2, r1, r3
 8004364:	011b      	lsls	r3, r3, #4
 8004366:	3332      	adds	r3, #50	; 0x32
 8004368:	fbb3 f3f2 	udiv	r3, r3, r2
 800436c:	eb03 1301 	add.w	r3, r3, r1, lsl #4
 8004370:	6083      	str	r3, [r0, #8]
 8004372:	bd10      	pop	{r4, pc}
 8004374:	f7ff fcb6 	bl	8003ce4 <HAL_RCC_GetPCLK1Freq>
 8004378:	e7e8      	b.n	800434c <UART_SetConfig+0x40>
 800437a:	bf00      	nop
 800437c:	40013800 	.word	0x40013800

08004380 <HAL_UART_Init>:
 8004380:	b510      	push	{r4, lr}
 8004382:	4604      	mov	r4, r0
 8004384:	b340      	cbz	r0, 80043d8 <HAL_UART_Init+0x58>
 8004386:	f890 303d 	ldrb.w	r3, [r0, #61]	; 0x3d
 800438a:	f003 02ff 	and.w	r2, r3, #255	; 0xff
 800438e:	b91b      	cbnz	r3, 8004398 <HAL_UART_Init+0x18>
 8004390:	f880 203c 	strb.w	r2, [r0, #60]	; 0x3c
 8004394:	f7fe fa88 	bl	80028a8 <HAL_UART_MspInit>
 8004398:	2324      	movs	r3, #36	; 0x24
 800439a:	6822      	ldr	r2, [r4, #0]
 800439c:	f884 303d 	strb.w	r3, [r4, #61]	; 0x3d
 80043a0:	68d3      	ldr	r3, [r2, #12]
 80043a2:	4620      	mov	r0, r4
 80043a4:	f423 5300 	bic.w	r3, r3, #8192	; 0x2000
 80043a8:	60d3      	str	r3, [r2, #12]
 80043aa:	f7ff ffaf 	bl	800430c <UART_SetConfig>
 80043ae:	6823      	ldr	r3, [r4, #0]
 80043b0:	2000      	movs	r0, #0
 80043b2:	691a      	ldr	r2, [r3, #16]
 80043b4:	f422 4290 	bic.w	r2, r2, #18432	; 0x4800
 80043b8:	611a      	str	r2, [r3, #16]
 80043ba:	695a      	ldr	r2, [r3, #20]
 80043bc:	f022 022a 	bic.w	r2, r2, #42	; 0x2a
 80043c0:	615a      	str	r2, [r3, #20]
 80043c2:	68da      	ldr	r2, [r3, #12]
 80043c4:	f442 5200 	orr.w	r2, r2, #8192	; 0x2000
 80043c8:	60da      	str	r2, [r3, #12]
 80043ca:	2320      	movs	r3, #32
 80043cc:	6420      	str	r0, [r4, #64]	; 0x40
 80043ce:	f884 303d 	strb.w	r3, [r4, #61]	; 0x3d
 80043d2:	f884 303e 	strb.w	r3, [r4, #62]	; 0x3e
 80043d6:	bd10      	pop	{r4, pc}
 80043d8:	2001      	movs	r0, #1
 80043da:	e7fc      	b.n	80043d6 <HAL_UART_Init+0x56>

080043dc <HAL_UART_ErrorCallback>:
 80043dc:	4770      	bx	lr

080043de <UART_DMAAbortOnError>:
 80043de:	b508      	push	{r3, lr}
 80043e0:	2300      	movs	r3, #0
 80043e2:	6a40      	ldr	r0, [r0, #36]	; 0x24
 80043e4:	85c3      	strh	r3, [r0, #46]	; 0x2e
 80043e6:	84c3      	strh	r3, [r0, #38]	; 0x26
 80043e8:	f7ff fff8 	bl	80043dc <HAL_UART_ErrorCallback>
 80043ec:	bd08      	pop	{r3, pc}

080043ee <HAL_UARTEx_RxEventCallback>:
 80043ee:	4770      	bx	lr

080043f0 <UART_Receive_IT>:
 80043f0:	b513      	push	{r0, r1, r4, lr}
 80043f2:	f890 303e 	ldrb.w	r3, [r0, #62]	; 0x3e
 80043f6:	2b22      	cmp	r3, #34	; 0x22
 80043f8:	d149      	bne.n	800448e <UART_Receive_IT+0x9e>
 80043fa:	6881      	ldr	r1, [r0, #8]
 80043fc:	6a83      	ldr	r3, [r0, #40]	; 0x28
 80043fe:	f5b1 5f80 	cmp.w	r1, #4096	; 0x1000
 8004402:	6802      	ldr	r2, [r0, #0]
 8004404:	d133      	bne.n	800446e <UART_Receive_IT+0x7e>
 8004406:	6901      	ldr	r1, [r0, #16]
 8004408:	2900      	cmp	r1, #0
 800440a:	d133      	bne.n	8004474 <UART_Receive_IT+0x84>
 800440c:	6852      	ldr	r2, [r2, #4]
 800440e:	f3c2 0208 	ubfx	r2, r2, #0, #9
 8004412:	f823 2b02 	strh.w	r2, [r3], #2
 8004416:	8dc4      	ldrh	r4, [r0, #46]	; 0x2e
 8004418:	6283      	str	r3, [r0, #40]	; 0x28
 800441a:	3c01      	subs	r4, #1
 800441c:	b2a4      	uxth	r4, r4
 800441e:	85c4      	strh	r4, [r0, #46]	; 0x2e
 8004420:	bb1c      	cbnz	r4, 800446a <UART_Receive_IT+0x7a>
 8004422:	6803      	ldr	r3, [r0, #0]
 8004424:	68da      	ldr	r2, [r3, #12]
 8004426:	f022 0220 	bic.w	r2, r2, #32
 800442a:	60da      	str	r2, [r3, #12]
 800442c:	68da      	ldr	r2, [r3, #12]
 800442e:	f422 7280 	bic.w	r2, r2, #256	; 0x100
 8004432:	60da      	str	r2, [r3, #12]
 8004434:	695a      	ldr	r2, [r3, #20]
 8004436:	f022 0201 	bic.w	r2, r2, #1
 800443a:	615a      	str	r2, [r3, #20]
 800443c:	2220      	movs	r2, #32
 800443e:	f880 203e 	strb.w	r2, [r0, #62]	; 0x3e
 8004442:	6b02      	ldr	r2, [r0, #48]	; 0x30
 8004444:	2a01      	cmp	r2, #1
 8004446:	d11f      	bne.n	8004488 <UART_Receive_IT+0x98>
 8004448:	6304      	str	r4, [r0, #48]	; 0x30
 800444a:	68da      	ldr	r2, [r3, #12]
 800444c:	f022 0210 	bic.w	r2, r2, #16
 8004450:	60da      	str	r2, [r3, #12]
 8004452:	681a      	ldr	r2, [r3, #0]
 8004454:	06d2      	lsls	r2, r2, #27
 8004456:	d505      	bpl.n	8004464 <UART_Receive_IT+0x74>
 8004458:	9401      	str	r4, [sp, #4]
 800445a:	681a      	ldr	r2, [r3, #0]
 800445c:	9201      	str	r2, [sp, #4]
 800445e:	685b      	ldr	r3, [r3, #4]
 8004460:	9301      	str	r3, [sp, #4]
 8004462:	9b01      	ldr	r3, [sp, #4]
 8004464:	8d81      	ldrh	r1, [r0, #44]	; 0x2c
 8004466:	f7ff ffc2 	bl	80043ee <HAL_UARTEx_RxEventCallback>
 800446a:	2000      	movs	r0, #0
 800446c:	e010      	b.n	8004490 <UART_Receive_IT+0xa0>
 800446e:	b939      	cbnz	r1, 8004480 <UART_Receive_IT+0x90>
 8004470:	6901      	ldr	r1, [r0, #16]
 8004472:	b929      	cbnz	r1, 8004480 <UART_Receive_IT+0x90>
 8004474:	6852      	ldr	r2, [r2, #4]
 8004476:	b2d2      	uxtb	r2, r2
 8004478:	701a      	strb	r2, [r3, #0]
 800447a:	6a83      	ldr	r3, [r0, #40]	; 0x28
 800447c:	3301      	adds	r3, #1
 800447e:	e7ca      	b.n	8004416 <UART_Receive_IT+0x26>
 8004480:	6852      	ldr	r2, [r2, #4]
 8004482:	f002 027f 	and.w	r2, r2, #127	; 0x7f
 8004486:	e7f7      	b.n	8004478 <UART_Receive_IT+0x88>
 8004488:	f7fe f8d6 	bl	8002638 <HAL_UART_RxCpltCallback>
 800448c:	e7ed      	b.n	800446a <UART_Receive_IT+0x7a>
 800448e:	2002      	movs	r0, #2
 8004490:	b002      	add	sp, #8
 8004492:	bd10      	pop	{r4, pc}

08004494 <HAL_UART_IRQHandler>:
 8004494:	6803      	ldr	r3, [r0, #0]
 8004496:	b537      	push	{r0, r1, r2, r4, r5, lr}
 8004498:	681a      	ldr	r2, [r3, #0]
 800449a:	4604      	mov	r4, r0
 800449c:	f012 0f0f 	tst.w	r2, #15
 80044a0:	68d9      	ldr	r1, [r3, #12]
 80044a2:	695d      	ldr	r5, [r3, #20]
 80044a4:	d108      	bne.n	80044b8 <HAL_UART_IRQHandler+0x24>
 80044a6:	0695      	lsls	r5, r2, #26
 80044a8:	d55f      	bpl.n	800456a <HAL_UART_IRQHandler+0xd6>
 80044aa:	068d      	lsls	r5, r1, #26
 80044ac:	d55d      	bpl.n	800456a <HAL_UART_IRQHandler+0xd6>
 80044ae:	b003      	add	sp, #12
 80044b0:	e8bd 4030 	ldmia.w	sp!, {r4, r5, lr}
 80044b4:	f7ff bf9c 	b.w	80043f0 <UART_Receive_IT>
 80044b8:	f005 0001 	and.w	r0, r5, #1
 80044bc:	f401 7590 	and.w	r5, r1, #288	; 0x120
 80044c0:	4305      	orrs	r5, r0
 80044c2:	d052      	beq.n	800456a <HAL_UART_IRQHandler+0xd6>
 80044c4:	07d5      	lsls	r5, r2, #31
 80044c6:	d505      	bpl.n	80044d4 <HAL_UART_IRQHandler+0x40>
 80044c8:	05cb      	lsls	r3, r1, #23
 80044ca:	bf42      	ittt	mi
 80044cc:	6c23      	ldrmi	r3, [r4, #64]	; 0x40
 80044ce:	f043 0301 	orrmi.w	r3, r3, #1
 80044d2:	6423      	strmi	r3, [r4, #64]	; 0x40
 80044d4:	0755      	lsls	r5, r2, #29
 80044d6:	d504      	bpl.n	80044e2 <HAL_UART_IRQHandler+0x4e>
 80044d8:	b118      	cbz	r0, 80044e2 <HAL_UART_IRQHandler+0x4e>
 80044da:	6c23      	ldr	r3, [r4, #64]	; 0x40
 80044dc:	f043 0302 	orr.w	r3, r3, #2
 80044e0:	6423      	str	r3, [r4, #64]	; 0x40
 80044e2:	0793      	lsls	r3, r2, #30
 80044e4:	d504      	bpl.n	80044f0 <HAL_UART_IRQHandler+0x5c>
 80044e6:	b118      	cbz	r0, 80044f0 <HAL_UART_IRQHandler+0x5c>
 80044e8:	6c23      	ldr	r3, [r4, #64]	; 0x40
 80044ea:	f043 0304 	orr.w	r3, r3, #4
 80044ee:	6423      	str	r3, [r4, #64]	; 0x40
 80044f0:	0715      	lsls	r5, r2, #28
 80044f2:	d507      	bpl.n	8004504 <HAL_UART_IRQHandler+0x70>
 80044f4:	f001 0320 	and.w	r3, r1, #32
 80044f8:	4303      	orrs	r3, r0
 80044fa:	bf1e      	ittt	ne
 80044fc:	6c23      	ldrne	r3, [r4, #64]	; 0x40
 80044fe:	f043 0308 	orrne.w	r3, r3, #8
 8004502:	6423      	strne	r3, [r4, #64]	; 0x40
 8004504:	6c23      	ldr	r3, [r4, #64]	; 0x40
 8004506:	b353      	cbz	r3, 800455e <HAL_UART_IRQHandler+0xca>
 8004508:	0692      	lsls	r2, r2, #26
 800450a:	d504      	bpl.n	8004516 <HAL_UART_IRQHandler+0x82>
 800450c:	068b      	lsls	r3, r1, #26
 800450e:	d502      	bpl.n	8004516 <HAL_UART_IRQHandler+0x82>
 8004510:	4620      	mov	r0, r4
 8004512:	f7ff ff6d 	bl	80043f0 <UART_Receive_IT>
 8004516:	6823      	ldr	r3, [r4, #0]
 8004518:	4620      	mov	r0, r4
 800451a:	695b      	ldr	r3, [r3, #20]
 800451c:	6c25      	ldr	r5, [r4, #64]	; 0x40
 800451e:	f003 0340 	and.w	r3, r3, #64	; 0x40
 8004522:	f005 0508 	and.w	r5, r5, #8
 8004526:	431d      	orrs	r5, r3
 8004528:	d01b      	beq.n	8004562 <HAL_UART_IRQHandler+0xce>
 800452a:	f7ff fed9 	bl	80042e0 <UART_EndRxTransfer>
 800452e:	6823      	ldr	r3, [r4, #0]
 8004530:	695a      	ldr	r2, [r3, #20]
 8004532:	0655      	lsls	r5, r2, #25
 8004534:	d510      	bpl.n	8004558 <HAL_UART_IRQHandler+0xc4>
 8004536:	695a      	ldr	r2, [r3, #20]
 8004538:	6ba0      	ldr	r0, [r4, #56]	; 0x38
 800453a:	f022 0240 	bic.w	r2, r2, #64	; 0x40
 800453e:	615a      	str	r2, [r3, #20]
 8004540:	b150      	cbz	r0, 8004558 <HAL_UART_IRQHandler+0xc4>
 8004542:	4b53      	ldr	r3, [pc, #332]	; (8004690 <HAL_UART_IRQHandler+0x1fc>)
 8004544:	6343      	str	r3, [r0, #52]	; 0x34
 8004546:	f7fe fb5f 	bl	8002c08 <HAL_DMA_Abort_IT>
 800454a:	b140      	cbz	r0, 800455e <HAL_UART_IRQHandler+0xca>
 800454c:	6ba0      	ldr	r0, [r4, #56]	; 0x38
 800454e:	6b43      	ldr	r3, [r0, #52]	; 0x34
 8004550:	b003      	add	sp, #12
 8004552:	e8bd 4030 	ldmia.w	sp!, {r4, r5, lr}
 8004556:	4718      	bx	r3
 8004558:	4620      	mov	r0, r4
 800455a:	f7ff ff3f 	bl	80043dc <HAL_UART_ErrorCallback>
 800455e:	b003      	add	sp, #12
 8004560:	bd30      	pop	{r4, r5, pc}
 8004562:	f7ff ff3b 	bl	80043dc <HAL_UART_ErrorCallback>
 8004566:	6425      	str	r5, [r4, #64]	; 0x40
 8004568:	e7f9      	b.n	800455e <HAL_UART_IRQHandler+0xca>
 800456a:	6b20      	ldr	r0, [r4, #48]	; 0x30
 800456c:	2801      	cmp	r0, #1
 800456e:	d155      	bne.n	800461c <HAL_UART_IRQHandler+0x188>
 8004570:	06d0      	lsls	r0, r2, #27
 8004572:	d553      	bpl.n	800461c <HAL_UART_IRQHandler+0x188>
 8004574:	06cd      	lsls	r5, r1, #27
 8004576:	d551      	bpl.n	800461c <HAL_UART_IRQHandler+0x188>
 8004578:	2100      	movs	r1, #0
 800457a:	9101      	str	r1, [sp, #4]
 800457c:	681a      	ldr	r2, [r3, #0]
 800457e:	9201      	str	r2, [sp, #4]
 8004580:	685a      	ldr	r2, [r3, #4]
 8004582:	9201      	str	r2, [sp, #4]
 8004584:	9a01      	ldr	r2, [sp, #4]
 8004586:	695a      	ldr	r2, [r3, #20]
 8004588:	f012 0240 	ands.w	r2, r2, #64	; 0x40
 800458c:	d02a      	beq.n	80045e4 <HAL_UART_IRQHandler+0x150>
 800458e:	6ba0      	ldr	r0, [r4, #56]	; 0x38
 8004590:	6802      	ldr	r2, [r0, #0]
 8004592:	6852      	ldr	r2, [r2, #4]
 8004594:	b292      	uxth	r2, r2
 8004596:	2a00      	cmp	r2, #0
 8004598:	d0e1      	beq.n	800455e <HAL_UART_IRQHandler+0xca>
 800459a:	8da5      	ldrh	r5, [r4, #44]	; 0x2c
 800459c:	4295      	cmp	r5, r2
 800459e:	d9de      	bls.n	800455e <HAL_UART_IRQHandler+0xca>
 80045a0:	85e2      	strh	r2, [r4, #46]	; 0x2e
 80045a2:	6982      	ldr	r2, [r0, #24]
 80045a4:	2a20      	cmp	r2, #32
 80045a6:	d015      	beq.n	80045d4 <HAL_UART_IRQHandler+0x140>
 80045a8:	68da      	ldr	r2, [r3, #12]
 80045aa:	f422 7280 	bic.w	r2, r2, #256	; 0x100
 80045ae:	60da      	str	r2, [r3, #12]
 80045b0:	695a      	ldr	r2, [r3, #20]
 80045b2:	f022 0201 	bic.w	r2, r2, #1
 80045b6:	615a      	str	r2, [r3, #20]
 80045b8:	695a      	ldr	r2, [r3, #20]
 80045ba:	f022 0240 	bic.w	r2, r2, #64	; 0x40
 80045be:	615a      	str	r2, [r3, #20]
 80045c0:	2220      	movs	r2, #32
 80045c2:	f884 203e 	strb.w	r2, [r4, #62]	; 0x3e
 80045c6:	6321      	str	r1, [r4, #48]	; 0x30
 80045c8:	68da      	ldr	r2, [r3, #12]
 80045ca:	f022 0210 	bic.w	r2, r2, #16
 80045ce:	60da      	str	r2, [r3, #12]
 80045d0:	f7fe fafc 	bl	8002bcc <HAL_DMA_Abort>
 80045d4:	8de3      	ldrh	r3, [r4, #46]	; 0x2e
 80045d6:	8da1      	ldrh	r1, [r4, #44]	; 0x2c
 80045d8:	1ac9      	subs	r1, r1, r3
 80045da:	b289      	uxth	r1, r1
 80045dc:	4620      	mov	r0, r4
 80045de:	f7ff ff06 	bl	80043ee <HAL_UARTEx_RxEventCallback>
 80045e2:	e7bc      	b.n	800455e <HAL_UART_IRQHandler+0xca>
 80045e4:	8de1      	ldrh	r1, [r4, #46]	; 0x2e
 80045e6:	b288      	uxth	r0, r1
 80045e8:	8de1      	ldrh	r1, [r4, #46]	; 0x2e
 80045ea:	b289      	uxth	r1, r1
 80045ec:	2900      	cmp	r1, #0
 80045ee:	d0b6      	beq.n	800455e <HAL_UART_IRQHandler+0xca>
 80045f0:	8da1      	ldrh	r1, [r4, #44]	; 0x2c
 80045f2:	1a09      	subs	r1, r1, r0
 80045f4:	b289      	uxth	r1, r1
 80045f6:	2900      	cmp	r1, #0
 80045f8:	d0b1      	beq.n	800455e <HAL_UART_IRQHandler+0xca>
 80045fa:	68d8      	ldr	r0, [r3, #12]
 80045fc:	f420 7090 	bic.w	r0, r0, #288	; 0x120
 8004600:	60d8      	str	r0, [r3, #12]
 8004602:	6958      	ldr	r0, [r3, #20]
 8004604:	f020 0001 	bic.w	r0, r0, #1
 8004608:	6158      	str	r0, [r3, #20]
 800460a:	2020      	movs	r0, #32
 800460c:	f884 003e 	strb.w	r0, [r4, #62]	; 0x3e
 8004610:	6322      	str	r2, [r4, #48]	; 0x30
 8004612:	68da      	ldr	r2, [r3, #12]
 8004614:	f022 0210 	bic.w	r2, r2, #16
 8004618:	60da      	str	r2, [r3, #12]
 800461a:	e7df      	b.n	80045dc <HAL_UART_IRQHandler+0x148>
 800461c:	0610      	lsls	r0, r2, #24
 800461e:	d526      	bpl.n	800466e <HAL_UART_IRQHandler+0x1da>
 8004620:	060d      	lsls	r5, r1, #24
 8004622:	d524      	bpl.n	800466e <HAL_UART_IRQHandler+0x1da>
 8004624:	f894 203d 	ldrb.w	r2, [r4, #61]	; 0x3d
 8004628:	2a21      	cmp	r2, #33	; 0x21
 800462a:	d198      	bne.n	800455e <HAL_UART_IRQHandler+0xca>
 800462c:	68a1      	ldr	r1, [r4, #8]
 800462e:	6a22      	ldr	r2, [r4, #32]
 8004630:	f5b1 5f80 	cmp.w	r1, #4096	; 0x1000
 8004634:	d116      	bne.n	8004664 <HAL_UART_IRQHandler+0x1d0>
 8004636:	6921      	ldr	r1, [r4, #16]
 8004638:	b9a1      	cbnz	r1, 8004664 <HAL_UART_IRQHandler+0x1d0>
 800463a:	f832 1b02 	ldrh.w	r1, [r2], #2
 800463e:	f3c1 0108 	ubfx	r1, r1, #0, #9
 8004642:	6059      	str	r1, [r3, #4]
 8004644:	6222      	str	r2, [r4, #32]
 8004646:	8ce2      	ldrh	r2, [r4, #38]	; 0x26
 8004648:	3a01      	subs	r2, #1
 800464a:	b292      	uxth	r2, r2
 800464c:	84e2      	strh	r2, [r4, #38]	; 0x26
 800464e:	2a00      	cmp	r2, #0
 8004650:	d185      	bne.n	800455e <HAL_UART_IRQHandler+0xca>
 8004652:	68da      	ldr	r2, [r3, #12]
 8004654:	f022 0280 	bic.w	r2, r2, #128	; 0x80
 8004658:	60da      	str	r2, [r3, #12]
 800465a:	68da      	ldr	r2, [r3, #12]
 800465c:	f042 0240 	orr.w	r2, r2, #64	; 0x40
 8004660:	60da      	str	r2, [r3, #12]
 8004662:	e77c      	b.n	800455e <HAL_UART_IRQHandler+0xca>
 8004664:	1c51      	adds	r1, r2, #1
 8004666:	6221      	str	r1, [r4, #32]
 8004668:	7812      	ldrb	r2, [r2, #0]
 800466a:	605a      	str	r2, [r3, #4]
 800466c:	e7eb      	b.n	8004646 <HAL_UART_IRQHandler+0x1b2>
 800466e:	0650      	lsls	r0, r2, #25
 8004670:	f57f af75 	bpl.w	800455e <HAL_UART_IRQHandler+0xca>
 8004674:	064a      	lsls	r2, r1, #25
 8004676:	f57f af72 	bpl.w	800455e <HAL_UART_IRQHandler+0xca>
 800467a:	68da      	ldr	r2, [r3, #12]
 800467c:	4620      	mov	r0, r4
 800467e:	f022 0240 	bic.w	r2, r2, #64	; 0x40
 8004682:	60da      	str	r2, [r3, #12]
 8004684:	2320      	movs	r3, #32
 8004686:	f884 303d 	strb.w	r3, [r4, #61]	; 0x3d
 800468a:	f7fd ffdf 	bl	800264c <HAL_UART_TxCpltCallback>
 800468e:	e766      	b.n	800455e <HAL_UART_IRQHandler+0xca>
 8004690:	080043df 	.word	0x080043df

08004694 <UART_Start_Receive_IT>:
 8004694:	85c2      	strh	r2, [r0, #46]	; 0x2e
 8004696:	8582      	strh	r2, [r0, #44]	; 0x2c
 8004698:	6281      	str	r1, [r0, #40]	; 0x28
 800469a:	4603      	mov	r3, r0
 800469c:	2222      	movs	r2, #34	; 0x22
 800469e:	2000      	movs	r0, #0
 80046a0:	6418      	str	r0, [r3, #64]	; 0x40
 80046a2:	f883 003c 	strb.w	r0, [r3, #60]	; 0x3c
 80046a6:	f883 203e 	strb.w	r2, [r3, #62]	; 0x3e
 80046aa:	681b      	ldr	r3, [r3, #0]
 80046ac:	68da      	ldr	r2, [r3, #12]
 80046ae:	f442 7280 	orr.w	r2, r2, #256	; 0x100
 80046b2:	60da      	str	r2, [r3, #12]
 80046b4:	695a      	ldr	r2, [r3, #20]
 80046b6:	f042 0201 	orr.w	r2, r2, #1
 80046ba:	615a      	str	r2, [r3, #20]
 80046bc:	68da      	ldr	r2, [r3, #12]
 80046be:	f042 0220 	orr.w	r2, r2, #32
 80046c2:	60da      	str	r2, [r3, #12]
 80046c4:	4770      	bx	lr

080046c6 <HAL_UART_Receive_IT>:
 80046c6:	b470      	push	{r4, r5, r6}
 80046c8:	f890 603e 	ldrb.w	r6, [r0, #62]	; 0x3e
 80046cc:	2e20      	cmp	r6, #32
 80046ce:	d110      	bne.n	80046f2 <HAL_UART_Receive_IT+0x2c>
 80046d0:	b161      	cbz	r1, 80046ec <HAL_UART_Receive_IT+0x26>
 80046d2:	b15a      	cbz	r2, 80046ec <HAL_UART_Receive_IT+0x26>
 80046d4:	f890 403c 	ldrb.w	r4, [r0, #60]	; 0x3c
 80046d8:	2c01      	cmp	r4, #1
 80046da:	d00a      	beq.n	80046f2 <HAL_UART_Receive_IT+0x2c>
 80046dc:	2401      	movs	r4, #1
 80046de:	f880 403c 	strb.w	r4, [r0, #60]	; 0x3c
 80046e2:	2400      	movs	r4, #0
 80046e4:	6304      	str	r4, [r0, #48]	; 0x30
 80046e6:	bc70      	pop	{r4, r5, r6}
 80046e8:	f7ff bfd4 	b.w	8004694 <UART_Start_Receive_IT>
 80046ec:	2001      	movs	r0, #1
 80046ee:	bc70      	pop	{r4, r5, r6}
 80046f0:	4770      	bx	lr
 80046f2:	2002      	movs	r0, #2
 80046f4:	e7fb      	b.n	80046ee <HAL_UART_Receive_IT+0x28>

080046f6 <atof>:
 80046f6:	2100      	movs	r1, #0
 80046f8:	f000 be4a 	b.w	8005390 <strtod>

080046fc <__errno>:
 80046fc:	4b01      	ldr	r3, [pc, #4]	; (8004704 <__errno+0x8>)
 80046fe:	6818      	ldr	r0, [r3, #0]
 8004700:	4770      	bx	lr
 8004702:	bf00      	nop
 8004704:	200000ac 	.word	0x200000ac

08004708 <__libc_init_array>:
 8004708:	b570      	push	{r4, r5, r6, lr}
 800470a:	2600      	movs	r6, #0
 800470c:	4d0c      	ldr	r5, [pc, #48]	; (8004740 <__libc_init_array+0x38>)
 800470e:	4c0d      	ldr	r4, [pc, #52]	; (8004744 <__libc_init_array+0x3c>)
 8004710:	1b64      	subs	r4, r4, r5
 8004712:	10a4      	asrs	r4, r4, #2
 8004714:	42a6      	cmp	r6, r4
 8004716:	d109      	bne.n	800472c <__libc_init_array+0x24>
 8004718:	f004 fa48 	bl	8008bac <_init>
 800471c:	2600      	movs	r6, #0
 800471e:	4d0a      	ldr	r5, [pc, #40]	; (8004748 <__libc_init_array+0x40>)
 8004720:	4c0a      	ldr	r4, [pc, #40]	; (800474c <__libc_init_array+0x44>)
 8004722:	1b64      	subs	r4, r4, r5
 8004724:	10a4      	asrs	r4, r4, #2
 8004726:	42a6      	cmp	r6, r4
 8004728:	d105      	bne.n	8004736 <__libc_init_array+0x2e>
 800472a:	bd70      	pop	{r4, r5, r6, pc}
 800472c:	f855 3b04 	ldr.w	r3, [r5], #4
 8004730:	4798      	blx	r3
 8004732:	3601      	adds	r6, #1
 8004734:	e7ee      	b.n	8004714 <__libc_init_array+0xc>
 8004736:	f855 3b04 	ldr.w	r3, [r5], #4
 800473a:	4798      	blx	r3
 800473c:	3601      	adds	r6, #1
 800473e:	e7f2      	b.n	8004726 <__libc_init_array+0x1e>
 8004740:	080092a8 	.word	0x080092a8
 8004744:	080092a8 	.word	0x080092a8
 8004748:	080092a8 	.word	0x080092a8
 800474c:	080092ac 	.word	0x080092ac

08004750 <memset>:
 8004750:	4603      	mov	r3, r0
 8004752:	4402      	add	r2, r0
 8004754:	4293      	cmp	r3, r2
 8004756:	d100      	bne.n	800475a <memset+0xa>
 8004758:	4770      	bx	lr
 800475a:	f803 1b01 	strb.w	r1, [r3], #1
 800475e:	e7f9      	b.n	8004754 <memset+0x4>

08004760 <sulp>:
 8004760:	e92d 41f0 	stmdb	sp!, {r4, r5, r6, r7, r8, lr}
 8004764:	460f      	mov	r7, r1
 8004766:	4690      	mov	r8, r2
 8004768:	f001 fd14 	bl	8006194 <__ulp>
 800476c:	4604      	mov	r4, r0
 800476e:	460d      	mov	r5, r1
 8004770:	f1b8 0f00 	cmp.w	r8, #0
 8004774:	d011      	beq.n	800479a <sulp+0x3a>
 8004776:	f3c7 530a 	ubfx	r3, r7, #20, #11
 800477a:	f1c3 036b 	rsb	r3, r3, #107	; 0x6b
 800477e:	2b00      	cmp	r3, #0
 8004780:	dd0b      	ble.n	800479a <sulp+0x3a>
 8004782:	2400      	movs	r4, #0
 8004784:	051b      	lsls	r3, r3, #20
 8004786:	f103 557f 	add.w	r5, r3, #1069547520	; 0x3fc00000
 800478a:	f505 1540 	add.w	r5, r5, #3145728	; 0x300000
 800478e:	4622      	mov	r2, r4
 8004790:	462b      	mov	r3, r5
 8004792:	f7fb fea1 	bl	80004d8 <__aeabi_dmul>
 8004796:	4604      	mov	r4, r0
 8004798:	460d      	mov	r5, r1
 800479a:	4620      	mov	r0, r4
 800479c:	4629      	mov	r1, r5
 800479e:	e8bd 81f0 	ldmia.w	sp!, {r4, r5, r6, r7, r8, pc}
 80047a2:	0000      	movs	r0, r0
 80047a4:	0000      	movs	r0, r0
	...

080047a8 <_strtod_l>:
 80047a8:	e92d 4ff0 	stmdb	sp!, {r4, r5, r6, r7, r8, r9, sl, fp, lr}
 80047ac:	469b      	mov	fp, r3
 80047ae:	2300      	movs	r3, #0
 80047b0:	b0a1      	sub	sp, #132	; 0x84
 80047b2:	931c      	str	r3, [sp, #112]	; 0x70
 80047b4:	4ba1      	ldr	r3, [pc, #644]	; (8004a3c <_strtod_l+0x294>)
 80047b6:	4682      	mov	sl, r0
 80047b8:	681f      	ldr	r7, [r3, #0]
 80047ba:	460e      	mov	r6, r1
 80047bc:	4638      	mov	r0, r7
 80047be:	9217      	str	r2, [sp, #92]	; 0x5c
 80047c0:	f7fb fcc6 	bl	8000150 <strlen>
 80047c4:	f04f 0800 	mov.w	r8, #0
 80047c8:	4604      	mov	r4, r0
 80047ca:	f04f 0900 	mov.w	r9, #0
 80047ce:	961b      	str	r6, [sp, #108]	; 0x6c
 80047d0:	9b1b      	ldr	r3, [sp, #108]	; 0x6c
 80047d2:	781a      	ldrb	r2, [r3, #0]
 80047d4:	2a2b      	cmp	r2, #43	; 0x2b
 80047d6:	d04c      	beq.n	8004872 <_strtod_l+0xca>
 80047d8:	d83a      	bhi.n	8004850 <_strtod_l+0xa8>
 80047da:	2a0d      	cmp	r2, #13
 80047dc:	d833      	bhi.n	8004846 <_strtod_l+0x9e>
 80047de:	2a08      	cmp	r2, #8
 80047e0:	d833      	bhi.n	800484a <_strtod_l+0xa2>
 80047e2:	2a00      	cmp	r2, #0
 80047e4:	d03d      	beq.n	8004862 <_strtod_l+0xba>
 80047e6:	2300      	movs	r3, #0
 80047e8:	930c      	str	r3, [sp, #48]	; 0x30
 80047ea:	9d1b      	ldr	r5, [sp, #108]	; 0x6c
 80047ec:	782b      	ldrb	r3, [r5, #0]
 80047ee:	2b30      	cmp	r3, #48	; 0x30
 80047f0:	f040 80af 	bne.w	8004952 <_strtod_l+0x1aa>
 80047f4:	786b      	ldrb	r3, [r5, #1]
 80047f6:	f003 03df 	and.w	r3, r3, #223	; 0xdf
 80047fa:	2b58      	cmp	r3, #88	; 0x58
 80047fc:	d16c      	bne.n	80048d8 <_strtod_l+0x130>
 80047fe:	9b0c      	ldr	r3, [sp, #48]	; 0x30
 8004800:	4650      	mov	r0, sl
 8004802:	9301      	str	r3, [sp, #4]
 8004804:	ab1c      	add	r3, sp, #112	; 0x70
 8004806:	9300      	str	r3, [sp, #0]
 8004808:	4a8d      	ldr	r2, [pc, #564]	; (8004a40 <_strtod_l+0x298>)
 800480a:	f8cd b008 	str.w	fp, [sp, #8]
 800480e:	ab1d      	add	r3, sp, #116	; 0x74
 8004810:	a91b      	add	r1, sp, #108	; 0x6c
 8004812:	f000 fe31 	bl	8005478 <__gethex>
 8004816:	f010 0607 	ands.w	r6, r0, #7
 800481a:	4604      	mov	r4, r0
 800481c:	d005      	beq.n	800482a <_strtod_l+0x82>
 800481e:	2e06      	cmp	r6, #6
 8004820:	d129      	bne.n	8004876 <_strtod_l+0xce>
 8004822:	2300      	movs	r3, #0
 8004824:	3501      	adds	r5, #1
 8004826:	951b      	str	r5, [sp, #108]	; 0x6c
 8004828:	930c      	str	r3, [sp, #48]	; 0x30
 800482a:	9b17      	ldr	r3, [sp, #92]	; 0x5c
 800482c:	2b00      	cmp	r3, #0
 800482e:	f040 8596 	bne.w	800535e <_strtod_l+0xbb6>
 8004832:	9b0c      	ldr	r3, [sp, #48]	; 0x30
 8004834:	b1d3      	cbz	r3, 800486c <_strtod_l+0xc4>
 8004836:	4642      	mov	r2, r8
 8004838:	f109 4300 	add.w	r3, r9, #2147483648	; 0x80000000
 800483c:	4610      	mov	r0, r2
 800483e:	4619      	mov	r1, r3
 8004840:	b021      	add	sp, #132	; 0x84
 8004842:	e8bd 8ff0 	ldmia.w	sp!, {r4, r5, r6, r7, r8, r9, sl, fp, pc}
 8004846:	2a20      	cmp	r2, #32
 8004848:	d1cd      	bne.n	80047e6 <_strtod_l+0x3e>
 800484a:	3301      	adds	r3, #1
 800484c:	931b      	str	r3, [sp, #108]	; 0x6c
 800484e:	e7bf      	b.n	80047d0 <_strtod_l+0x28>
 8004850:	2a2d      	cmp	r2, #45	; 0x2d
 8004852:	d1c8      	bne.n	80047e6 <_strtod_l+0x3e>
 8004854:	2201      	movs	r2, #1
 8004856:	920c      	str	r2, [sp, #48]	; 0x30
 8004858:	1c5a      	adds	r2, r3, #1
 800485a:	921b      	str	r2, [sp, #108]	; 0x6c
 800485c:	785b      	ldrb	r3, [r3, #1]
 800485e:	2b00      	cmp	r3, #0
 8004860:	d1c3      	bne.n	80047ea <_strtod_l+0x42>
 8004862:	9b17      	ldr	r3, [sp, #92]	; 0x5c
 8004864:	961b      	str	r6, [sp, #108]	; 0x6c
 8004866:	2b00      	cmp	r3, #0
 8004868:	f040 8577 	bne.w	800535a <_strtod_l+0xbb2>
 800486c:	4642      	mov	r2, r8
 800486e:	464b      	mov	r3, r9
 8004870:	e7e4      	b.n	800483c <_strtod_l+0x94>
 8004872:	2200      	movs	r2, #0
 8004874:	e7ef      	b.n	8004856 <_strtod_l+0xae>
 8004876:	9a1c      	ldr	r2, [sp, #112]	; 0x70
 8004878:	b13a      	cbz	r2, 800488a <_strtod_l+0xe2>
 800487a:	2135      	movs	r1, #53	; 0x35
 800487c:	a81e      	add	r0, sp, #120	; 0x78
 800487e:	f001 fd8d 	bl	800639c <__copybits>
 8004882:	4650      	mov	r0, sl
 8004884:	991c      	ldr	r1, [sp, #112]	; 0x70
 8004886:	f001 f955 	bl	8005b34 <_Bfree>
 800488a:	3e01      	subs	r6, #1
 800488c:	2e05      	cmp	r6, #5
 800488e:	d807      	bhi.n	80048a0 <_strtod_l+0xf8>
 8004890:	e8df f006 	tbb	[pc, r6]
 8004894:	1d180b0e 	.word	0x1d180b0e
 8004898:	030e      	.short	0x030e
 800489a:	f04f 0900 	mov.w	r9, #0
 800489e:	46c8      	mov	r8, r9
 80048a0:	0721      	lsls	r1, r4, #28
 80048a2:	d5c2      	bpl.n	800482a <_strtod_l+0x82>
 80048a4:	f049 4900 	orr.w	r9, r9, #2147483648	; 0x80000000
 80048a8:	e7bf      	b.n	800482a <_strtod_l+0x82>
 80048aa:	e9dd 891e 	ldrd	r8, r9, [sp, #120]	; 0x78
 80048ae:	e7f7      	b.n	80048a0 <_strtod_l+0xf8>
 80048b0:	9a1d      	ldr	r2, [sp, #116]	; 0x74
 80048b2:	e9dd 831e 	ldrd	r8, r3, [sp, #120]	; 0x78
 80048b6:	f202 4233 	addw	r2, r2, #1075	; 0x433
 80048ba:	f423 1380 	bic.w	r3, r3, #1048576	; 0x100000
 80048be:	ea43 5902 	orr.w	r9, r3, r2, lsl #20
 80048c2:	e7ed      	b.n	80048a0 <_strtod_l+0xf8>
 80048c4:	f04f 0800 	mov.w	r8, #0
 80048c8:	f8df 9178 	ldr.w	r9, [pc, #376]	; 8004a44 <_strtod_l+0x29c>
 80048cc:	e7e8      	b.n	80048a0 <_strtod_l+0xf8>
 80048ce:	f06f 4900 	mvn.w	r9, #2147483648	; 0x80000000
 80048d2:	f04f 38ff 	mov.w	r8, #4294967295	; 0xffffffff
 80048d6:	e7e3      	b.n	80048a0 <_strtod_l+0xf8>
 80048d8:	9b1b      	ldr	r3, [sp, #108]	; 0x6c
 80048da:	1c5a      	adds	r2, r3, #1
 80048dc:	921b      	str	r2, [sp, #108]	; 0x6c
 80048de:	785b      	ldrb	r3, [r3, #1]
 80048e0:	2b30      	cmp	r3, #48	; 0x30
 80048e2:	d0f9      	beq.n	80048d8 <_strtod_l+0x130>
 80048e4:	2b00      	cmp	r3, #0
 80048e6:	d0a0      	beq.n	800482a <_strtod_l+0x82>
 80048e8:	2301      	movs	r3, #1
 80048ea:	9307      	str	r3, [sp, #28]
 80048ec:	9b1b      	ldr	r3, [sp, #108]	; 0x6c
 80048ee:	220a      	movs	r2, #10
 80048f0:	9308      	str	r3, [sp, #32]
 80048f2:	2300      	movs	r3, #0
 80048f4:	469b      	mov	fp, r3
 80048f6:	e9cd 3305 	strd	r3, r3, [sp, #20]
 80048fa:	981b      	ldr	r0, [sp, #108]	; 0x6c
 80048fc:	7805      	ldrb	r5, [r0, #0]
 80048fe:	f1a5 0330 	sub.w	r3, r5, #48	; 0x30
 8004902:	b2d9      	uxtb	r1, r3
 8004904:	2909      	cmp	r1, #9
 8004906:	d926      	bls.n	8004956 <_strtod_l+0x1ae>
 8004908:	4622      	mov	r2, r4
 800490a:	4639      	mov	r1, r7
 800490c:	f001 fe08 	bl	8006520 <strncmp>
 8004910:	2800      	cmp	r0, #0
 8004912:	d032      	beq.n	800497a <_strtod_l+0x1d2>
 8004914:	2000      	movs	r0, #0
 8004916:	462b      	mov	r3, r5
 8004918:	465c      	mov	r4, fp
 800491a:	4602      	mov	r2, r0
 800491c:	9004      	str	r0, [sp, #16]
 800491e:	2b65      	cmp	r3, #101	; 0x65
 8004920:	d001      	beq.n	8004926 <_strtod_l+0x17e>
 8004922:	2b45      	cmp	r3, #69	; 0x45
 8004924:	d113      	bne.n	800494e <_strtod_l+0x1a6>
 8004926:	b91c      	cbnz	r4, 8004930 <_strtod_l+0x188>
 8004928:	9b07      	ldr	r3, [sp, #28]
 800492a:	4303      	orrs	r3, r0
 800492c:	d099      	beq.n	8004862 <_strtod_l+0xba>
 800492e:	2400      	movs	r4, #0
 8004930:	9e1b      	ldr	r6, [sp, #108]	; 0x6c
 8004932:	1c73      	adds	r3, r6, #1
 8004934:	931b      	str	r3, [sp, #108]	; 0x6c
 8004936:	7873      	ldrb	r3, [r6, #1]
 8004938:	2b2b      	cmp	r3, #43	; 0x2b
 800493a:	d078      	beq.n	8004a2e <_strtod_l+0x286>
 800493c:	2b2d      	cmp	r3, #45	; 0x2d
 800493e:	d07b      	beq.n	8004a38 <_strtod_l+0x290>
 8004940:	2700      	movs	r7, #0
 8004942:	f1a3 0130 	sub.w	r1, r3, #48	; 0x30
 8004946:	2909      	cmp	r1, #9
 8004948:	f240 8082 	bls.w	8004a50 <_strtod_l+0x2a8>
 800494c:	961b      	str	r6, [sp, #108]	; 0x6c
 800494e:	2500      	movs	r5, #0
 8004950:	e09e      	b.n	8004a90 <_strtod_l+0x2e8>
 8004952:	2300      	movs	r3, #0
 8004954:	e7c9      	b.n	80048ea <_strtod_l+0x142>
 8004956:	f1bb 0f08 	cmp.w	fp, #8
 800495a:	bfd5      	itete	le
 800495c:	9906      	ldrle	r1, [sp, #24]
 800495e:	9905      	ldrgt	r1, [sp, #20]
 8004960:	fb02 3301 	mlale	r3, r2, r1, r3
 8004964:	fb02 3301 	mlagt	r3, r2, r1, r3
 8004968:	f100 0001 	add.w	r0, r0, #1
 800496c:	bfd4      	ite	le
 800496e:	9306      	strle	r3, [sp, #24]
 8004970:	9305      	strgt	r3, [sp, #20]
 8004972:	f10b 0b01 	add.w	fp, fp, #1
 8004976:	901b      	str	r0, [sp, #108]	; 0x6c
 8004978:	e7bf      	b.n	80048fa <_strtod_l+0x152>
 800497a:	9b1b      	ldr	r3, [sp, #108]	; 0x6c
 800497c:	191a      	adds	r2, r3, r4
 800497e:	921b      	str	r2, [sp, #108]	; 0x6c
 8004980:	5d1b      	ldrb	r3, [r3, r4]
 8004982:	f1bb 0f00 	cmp.w	fp, #0
 8004986:	d036      	beq.n	80049f6 <_strtod_l+0x24e>
 8004988:	465c      	mov	r4, fp
 800498a:	9004      	str	r0, [sp, #16]
 800498c:	f1a3 0230 	sub.w	r2, r3, #48	; 0x30
 8004990:	2a09      	cmp	r2, #9
 8004992:	d912      	bls.n	80049ba <_strtod_l+0x212>
 8004994:	2201      	movs	r2, #1
 8004996:	e7c2      	b.n	800491e <_strtod_l+0x176>
 8004998:	9b1b      	ldr	r3, [sp, #108]	; 0x6c
 800499a:	3001      	adds	r0, #1
 800499c:	1c5a      	adds	r2, r3, #1
 800499e:	921b      	str	r2, [sp, #108]	; 0x6c
 80049a0:	785b      	ldrb	r3, [r3, #1]
 80049a2:	2b30      	cmp	r3, #48	; 0x30
 80049a4:	d0f8      	beq.n	8004998 <_strtod_l+0x1f0>
 80049a6:	f1a3 0231 	sub.w	r2, r3, #49	; 0x31
 80049aa:	2a08      	cmp	r2, #8
 80049ac:	f200 84dc 	bhi.w	8005368 <_strtod_l+0xbc0>
 80049b0:	9004      	str	r0, [sp, #16]
 80049b2:	2000      	movs	r0, #0
 80049b4:	4604      	mov	r4, r0
 80049b6:	9a1b      	ldr	r2, [sp, #108]	; 0x6c
 80049b8:	9208      	str	r2, [sp, #32]
 80049ba:	3b30      	subs	r3, #48	; 0x30
 80049bc:	f100 0201 	add.w	r2, r0, #1
 80049c0:	d013      	beq.n	80049ea <_strtod_l+0x242>
 80049c2:	9904      	ldr	r1, [sp, #16]
 80049c4:	1905      	adds	r5, r0, r4
 80049c6:	4411      	add	r1, r2
 80049c8:	9104      	str	r1, [sp, #16]
 80049ca:	4622      	mov	r2, r4
 80049cc:	210a      	movs	r1, #10
 80049ce:	42aa      	cmp	r2, r5
 80049d0:	d113      	bne.n	80049fa <_strtod_l+0x252>
 80049d2:	1822      	adds	r2, r4, r0
 80049d4:	2a08      	cmp	r2, #8
 80049d6:	f104 0401 	add.w	r4, r4, #1
 80049da:	4404      	add	r4, r0
 80049dc:	dc1b      	bgt.n	8004a16 <_strtod_l+0x26e>
 80049de:	220a      	movs	r2, #10
 80049e0:	9906      	ldr	r1, [sp, #24]
 80049e2:	fb02 3301 	mla	r3, r2, r1, r3
 80049e6:	9306      	str	r3, [sp, #24]
 80049e8:	2200      	movs	r2, #0
 80049ea:	9b1b      	ldr	r3, [sp, #108]	; 0x6c
 80049ec:	4610      	mov	r0, r2
 80049ee:	1c59      	adds	r1, r3, #1
 80049f0:	911b      	str	r1, [sp, #108]	; 0x6c
 80049f2:	785b      	ldrb	r3, [r3, #1]
 80049f4:	e7ca      	b.n	800498c <_strtod_l+0x1e4>
 80049f6:	4658      	mov	r0, fp
 80049f8:	e7d3      	b.n	80049a2 <_strtod_l+0x1fa>
 80049fa:	2a08      	cmp	r2, #8
 80049fc:	dc04      	bgt.n	8004a08 <_strtod_l+0x260>
 80049fe:	9f06      	ldr	r7, [sp, #24]
 8004a00:	434f      	muls	r7, r1
 8004a02:	9706      	str	r7, [sp, #24]
 8004a04:	3201      	adds	r2, #1
 8004a06:	e7e2      	b.n	80049ce <_strtod_l+0x226>
 8004a08:	1c57      	adds	r7, r2, #1
 8004a0a:	2f10      	cmp	r7, #16
 8004a0c:	bfde      	ittt	le
 8004a0e:	9f05      	ldrle	r7, [sp, #20]
 8004a10:	434f      	mulle	r7, r1
 8004a12:	9705      	strle	r7, [sp, #20]
 8004a14:	e7f6      	b.n	8004a04 <_strtod_l+0x25c>
 8004a16:	2c10      	cmp	r4, #16
 8004a18:	bfdf      	itttt	le
 8004a1a:	220a      	movle	r2, #10
 8004a1c:	9905      	ldrle	r1, [sp, #20]
 8004a1e:	fb02 3301 	mlale	r3, r2, r1, r3
 8004a22:	9305      	strle	r3, [sp, #20]
 8004a24:	e7e0      	b.n	80049e8 <_strtod_l+0x240>
 8004a26:	2300      	movs	r3, #0
 8004a28:	2201      	movs	r2, #1
 8004a2a:	9304      	str	r3, [sp, #16]
 8004a2c:	e77c      	b.n	8004928 <_strtod_l+0x180>
 8004a2e:	2700      	movs	r7, #0
 8004a30:	1cb3      	adds	r3, r6, #2
 8004a32:	931b      	str	r3, [sp, #108]	; 0x6c
 8004a34:	78b3      	ldrb	r3, [r6, #2]
 8004a36:	e784      	b.n	8004942 <_strtod_l+0x19a>
 8004a38:	2701      	movs	r7, #1
 8004a3a:	e7f9      	b.n	8004a30 <_strtod_l+0x288>
 8004a3c:	08008d04 	.word	0x08008d04
 8004a40:	08008c38 	.word	0x08008c38
 8004a44:	7ff00000 	.word	0x7ff00000
 8004a48:	9b1b      	ldr	r3, [sp, #108]	; 0x6c
 8004a4a:	1c59      	adds	r1, r3, #1
 8004a4c:	911b      	str	r1, [sp, #108]	; 0x6c
 8004a4e:	785b      	ldrb	r3, [r3, #1]
 8004a50:	2b30      	cmp	r3, #48	; 0x30
 8004a52:	d0f9      	beq.n	8004a48 <_strtod_l+0x2a0>
 8004a54:	f1a3 0131 	sub.w	r1, r3, #49	; 0x31
 8004a58:	2908      	cmp	r1, #8
 8004a5a:	f63f af78 	bhi.w	800494e <_strtod_l+0x1a6>
 8004a5e:	f04f 0e0a 	mov.w	lr, #10
 8004a62:	f1a3 0c30 	sub.w	ip, r3, #48	; 0x30
 8004a66:	9b1b      	ldr	r3, [sp, #108]	; 0x6c
 8004a68:	9309      	str	r3, [sp, #36]	; 0x24
 8004a6a:	9b1b      	ldr	r3, [sp, #108]	; 0x6c
 8004a6c:	1c59      	adds	r1, r3, #1
 8004a6e:	911b      	str	r1, [sp, #108]	; 0x6c
 8004a70:	785b      	ldrb	r3, [r3, #1]
 8004a72:	f1a3 0530 	sub.w	r5, r3, #48	; 0x30
 8004a76:	2d09      	cmp	r5, #9
 8004a78:	d935      	bls.n	8004ae6 <_strtod_l+0x33e>
 8004a7a:	9d09      	ldr	r5, [sp, #36]	; 0x24
 8004a7c:	1b49      	subs	r1, r1, r5
 8004a7e:	2908      	cmp	r1, #8
 8004a80:	f644 651f 	movw	r5, #19999	; 0x4e1f
 8004a84:	dc02      	bgt.n	8004a8c <_strtod_l+0x2e4>
 8004a86:	4565      	cmp	r5, ip
 8004a88:	bfa8      	it	ge
 8004a8a:	4665      	movge	r5, ip
 8004a8c:	b107      	cbz	r7, 8004a90 <_strtod_l+0x2e8>
 8004a8e:	426d      	negs	r5, r5
 8004a90:	2c00      	cmp	r4, #0
 8004a92:	d14c      	bne.n	8004b2e <_strtod_l+0x386>
 8004a94:	9907      	ldr	r1, [sp, #28]
 8004a96:	4301      	orrs	r1, r0
 8004a98:	f47f aec7 	bne.w	800482a <_strtod_l+0x82>
 8004a9c:	2a00      	cmp	r2, #0
 8004a9e:	f47f aee0 	bne.w	8004862 <_strtod_l+0xba>
 8004aa2:	2b69      	cmp	r3, #105	; 0x69
 8004aa4:	d026      	beq.n	8004af4 <_strtod_l+0x34c>
 8004aa6:	dc23      	bgt.n	8004af0 <_strtod_l+0x348>
 8004aa8:	2b49      	cmp	r3, #73	; 0x49
 8004aaa:	d023      	beq.n	8004af4 <_strtod_l+0x34c>
 8004aac:	2b4e      	cmp	r3, #78	; 0x4e
 8004aae:	f47f aed8 	bne.w	8004862 <_strtod_l+0xba>
 8004ab2:	499c      	ldr	r1, [pc, #624]	; (8004d24 <_strtod_l+0x57c>)
 8004ab4:	a81b      	add	r0, sp, #108	; 0x6c
 8004ab6:	f000 ff2d 	bl	8005914 <__match>
 8004aba:	2800      	cmp	r0, #0
 8004abc:	f43f aed1 	beq.w	8004862 <_strtod_l+0xba>
 8004ac0:	9b1b      	ldr	r3, [sp, #108]	; 0x6c
 8004ac2:	781b      	ldrb	r3, [r3, #0]
 8004ac4:	2b28      	cmp	r3, #40	; 0x28
 8004ac6:	d12c      	bne.n	8004b22 <_strtod_l+0x37a>
 8004ac8:	4997      	ldr	r1, [pc, #604]	; (8004d28 <_strtod_l+0x580>)
 8004aca:	aa1e      	add	r2, sp, #120	; 0x78
 8004acc:	a81b      	add	r0, sp, #108	; 0x6c
 8004ace:	f000 ff35 	bl	800593c <__hexnan>
 8004ad2:	2805      	cmp	r0, #5
 8004ad4:	d125      	bne.n	8004b22 <_strtod_l+0x37a>
 8004ad6:	9b1f      	ldr	r3, [sp, #124]	; 0x7c
 8004ad8:	f8dd 8078 	ldr.w	r8, [sp, #120]	; 0x78
 8004adc:	f043 49ff 	orr.w	r9, r3, #2139095040	; 0x7f800000
 8004ae0:	f449 09e0 	orr.w	r9, r9, #7340032	; 0x700000
 8004ae4:	e6a1      	b.n	800482a <_strtod_l+0x82>
 8004ae6:	fb0e 3c0c 	mla	ip, lr, ip, r3
 8004aea:	f1ac 0c30 	sub.w	ip, ip, #48	; 0x30
 8004aee:	e7bc      	b.n	8004a6a <_strtod_l+0x2c2>
 8004af0:	2b6e      	cmp	r3, #110	; 0x6e
 8004af2:	e7dc      	b.n	8004aae <_strtod_l+0x306>
 8004af4:	498d      	ldr	r1, [pc, #564]	; (8004d2c <_strtod_l+0x584>)
 8004af6:	a81b      	add	r0, sp, #108	; 0x6c
 8004af8:	f000 ff0c 	bl	8005914 <__match>
 8004afc:	2800      	cmp	r0, #0
 8004afe:	f43f aeb0 	beq.w	8004862 <_strtod_l+0xba>
 8004b02:	9b1b      	ldr	r3, [sp, #108]	; 0x6c
 8004b04:	498a      	ldr	r1, [pc, #552]	; (8004d30 <_strtod_l+0x588>)
 8004b06:	3b01      	subs	r3, #1
 8004b08:	a81b      	add	r0, sp, #108	; 0x6c
 8004b0a:	931b      	str	r3, [sp, #108]	; 0x6c
 8004b0c:	f000 ff02 	bl	8005914 <__match>
 8004b10:	b910      	cbnz	r0, 8004b18 <_strtod_l+0x370>
 8004b12:	9b1b      	ldr	r3, [sp, #108]	; 0x6c
 8004b14:	3301      	adds	r3, #1
 8004b16:	931b      	str	r3, [sp, #108]	; 0x6c
 8004b18:	f04f 0800 	mov.w	r8, #0
 8004b1c:	f8df 9220 	ldr.w	r9, [pc, #544]	; 8004d40 <_strtod_l+0x598>
 8004b20:	e683      	b.n	800482a <_strtod_l+0x82>
 8004b22:	4884      	ldr	r0, [pc, #528]	; (8004d34 <_strtod_l+0x58c>)
 8004b24:	f001 fce6 	bl	80064f4 <nan>
 8004b28:	4680      	mov	r8, r0
 8004b2a:	4689      	mov	r9, r1
 8004b2c:	e67d      	b.n	800482a <_strtod_l+0x82>
 8004b2e:	9b04      	ldr	r3, [sp, #16]
 8004b30:	f1bb 0f00 	cmp.w	fp, #0
 8004b34:	bf08      	it	eq
 8004b36:	46a3      	moveq	fp, r4
 8004b38:	1aeb      	subs	r3, r5, r3
 8004b3a:	2c10      	cmp	r4, #16
 8004b3c:	9806      	ldr	r0, [sp, #24]
 8004b3e:	4626      	mov	r6, r4
 8004b40:	9307      	str	r3, [sp, #28]
 8004b42:	bfa8      	it	ge
 8004b44:	2610      	movge	r6, #16
 8004b46:	f7fb fc4d 	bl	80003e4 <__aeabi_ui2d>
 8004b4a:	2c09      	cmp	r4, #9
 8004b4c:	4680      	mov	r8, r0
 8004b4e:	4689      	mov	r9, r1
 8004b50:	dd13      	ble.n	8004b7a <_strtod_l+0x3d2>
 8004b52:	4b79      	ldr	r3, [pc, #484]	; (8004d38 <_strtod_l+0x590>)
 8004b54:	eb03 03c6 	add.w	r3, r3, r6, lsl #3
 8004b58:	e953 2312 	ldrd	r2, r3, [r3, #-72]	; 0x48
 8004b5c:	f7fb fcbc 	bl	80004d8 <__aeabi_dmul>
 8004b60:	4680      	mov	r8, r0
 8004b62:	9805      	ldr	r0, [sp, #20]
 8004b64:	4689      	mov	r9, r1
 8004b66:	f7fb fc3d 	bl	80003e4 <__aeabi_ui2d>
 8004b6a:	4602      	mov	r2, r0
 8004b6c:	460b      	mov	r3, r1
 8004b6e:	4640      	mov	r0, r8
 8004b70:	4649      	mov	r1, r9
 8004b72:	f7fb fafb 	bl	800016c <__adddf3>
 8004b76:	4680      	mov	r8, r0
 8004b78:	4689      	mov	r9, r1
 8004b7a:	2c0f      	cmp	r4, #15
 8004b7c:	dc36      	bgt.n	8004bec <_strtod_l+0x444>
 8004b7e:	9b07      	ldr	r3, [sp, #28]
 8004b80:	2b00      	cmp	r3, #0
 8004b82:	f43f ae52 	beq.w	800482a <_strtod_l+0x82>
 8004b86:	dd22      	ble.n	8004bce <_strtod_l+0x426>
 8004b88:	2b16      	cmp	r3, #22
 8004b8a:	dc09      	bgt.n	8004ba0 <_strtod_l+0x3f8>
 8004b8c:	4c6a      	ldr	r4, [pc, #424]	; (8004d38 <_strtod_l+0x590>)
 8004b8e:	4642      	mov	r2, r8
 8004b90:	eb04 04c3 	add.w	r4, r4, r3, lsl #3
 8004b94:	464b      	mov	r3, r9
 8004b96:	e9d4 0100 	ldrd	r0, r1, [r4]
 8004b9a:	f7fb fc9d 	bl	80004d8 <__aeabi_dmul>
 8004b9e:	e7c3      	b.n	8004b28 <_strtod_l+0x380>
 8004ba0:	9a07      	ldr	r2, [sp, #28]
 8004ba2:	f1c4 0325 	rsb	r3, r4, #37	; 0x25
 8004ba6:	4293      	cmp	r3, r2
 8004ba8:	db20      	blt.n	8004bec <_strtod_l+0x444>
 8004baa:	4d63      	ldr	r5, [pc, #396]	; (8004d38 <_strtod_l+0x590>)
 8004bac:	f1c4 040f 	rsb	r4, r4, #15
 8004bb0:	eb05 01c4 	add.w	r1, r5, r4, lsl #3
 8004bb4:	4642      	mov	r2, r8
 8004bb6:	e9d1 0100 	ldrd	r0, r1, [r1]
 8004bba:	464b      	mov	r3, r9
 8004bbc:	f7fb fc8c 	bl	80004d8 <__aeabi_dmul>
 8004bc0:	9b07      	ldr	r3, [sp, #28]
 8004bc2:	1b1c      	subs	r4, r3, r4
 8004bc4:	eb05 05c4 	add.w	r5, r5, r4, lsl #3
 8004bc8:	e9d5 2300 	ldrd	r2, r3, [r5]
 8004bcc:	e7e5      	b.n	8004b9a <_strtod_l+0x3f2>
 8004bce:	9b07      	ldr	r3, [sp, #28]
 8004bd0:	3316      	adds	r3, #22
 8004bd2:	db0b      	blt.n	8004bec <_strtod_l+0x444>
 8004bd4:	9b04      	ldr	r3, [sp, #16]
 8004bd6:	4a58      	ldr	r2, [pc, #352]	; (8004d38 <_strtod_l+0x590>)
 8004bd8:	1b5d      	subs	r5, r3, r5
 8004bda:	eb02 05c5 	add.w	r5, r2, r5, lsl #3
 8004bde:	4640      	mov	r0, r8
 8004be0:	e9d5 2300 	ldrd	r2, r3, [r5]
 8004be4:	4649      	mov	r1, r9
 8004be6:	f7fb fda1 	bl	800072c <__aeabi_ddiv>
 8004bea:	e79d      	b.n	8004b28 <_strtod_l+0x380>
 8004bec:	9b07      	ldr	r3, [sp, #28]
 8004bee:	1ba6      	subs	r6, r4, r6
 8004bf0:	441e      	add	r6, r3
 8004bf2:	2e00      	cmp	r6, #0
 8004bf4:	dd71      	ble.n	8004cda <_strtod_l+0x532>
 8004bf6:	f016 030f 	ands.w	r3, r6, #15
 8004bfa:	d00a      	beq.n	8004c12 <_strtod_l+0x46a>
 8004bfc:	494e      	ldr	r1, [pc, #312]	; (8004d38 <_strtod_l+0x590>)
 8004bfe:	4642      	mov	r2, r8
 8004c00:	eb01 01c3 	add.w	r1, r1, r3, lsl #3
 8004c04:	e9d1 0100 	ldrd	r0, r1, [r1]
 8004c08:	464b      	mov	r3, r9
 8004c0a:	f7fb fc65 	bl	80004d8 <__aeabi_dmul>
 8004c0e:	4680      	mov	r8, r0
 8004c10:	4689      	mov	r9, r1
 8004c12:	f036 060f 	bics.w	r6, r6, #15
 8004c16:	d050      	beq.n	8004cba <_strtod_l+0x512>
 8004c18:	f5b6 7f9a 	cmp.w	r6, #308	; 0x134
 8004c1c:	dd27      	ble.n	8004c6e <_strtod_l+0x4c6>
 8004c1e:	f04f 0b00 	mov.w	fp, #0
 8004c22:	f8cd b010 	str.w	fp, [sp, #16]
 8004c26:	f8cd b020 	str.w	fp, [sp, #32]
 8004c2a:	f8cd b018 	str.w	fp, [sp, #24]
 8004c2e:	2322      	movs	r3, #34	; 0x22
 8004c30:	f04f 0800 	mov.w	r8, #0
 8004c34:	f8df 9108 	ldr.w	r9, [pc, #264]	; 8004d40 <_strtod_l+0x598>
 8004c38:	f8ca 3000 	str.w	r3, [sl]
 8004c3c:	9b08      	ldr	r3, [sp, #32]
 8004c3e:	2b00      	cmp	r3, #0
 8004c40:	f43f adf3 	beq.w	800482a <_strtod_l+0x82>
 8004c44:	4650      	mov	r0, sl
 8004c46:	991c      	ldr	r1, [sp, #112]	; 0x70
 8004c48:	f000 ff74 	bl	8005b34 <_Bfree>
 8004c4c:	4650      	mov	r0, sl
 8004c4e:	9906      	ldr	r1, [sp, #24]
 8004c50:	f000 ff70 	bl	8005b34 <_Bfree>
 8004c54:	4650      	mov	r0, sl
 8004c56:	9904      	ldr	r1, [sp, #16]
 8004c58:	f000 ff6c 	bl	8005b34 <_Bfree>
 8004c5c:	4650      	mov	r0, sl
 8004c5e:	9908      	ldr	r1, [sp, #32]
 8004c60:	f000 ff68 	bl	8005b34 <_Bfree>
 8004c64:	4659      	mov	r1, fp
 8004c66:	4650      	mov	r0, sl
 8004c68:	f000 ff64 	bl	8005b34 <_Bfree>
 8004c6c:	e5dd      	b.n	800482a <_strtod_l+0x82>
 8004c6e:	2300      	movs	r3, #0
 8004c70:	4640      	mov	r0, r8
 8004c72:	4649      	mov	r1, r9
 8004c74:	461f      	mov	r7, r3
 8004c76:	1136      	asrs	r6, r6, #4
 8004c78:	2e01      	cmp	r6, #1
 8004c7a:	dc21      	bgt.n	8004cc0 <_strtod_l+0x518>
 8004c7c:	b10b      	cbz	r3, 8004c82 <_strtod_l+0x4da>
 8004c7e:	4680      	mov	r8, r0
 8004c80:	4689      	mov	r9, r1
 8004c82:	4b2e      	ldr	r3, [pc, #184]	; (8004d3c <_strtod_l+0x594>)
 8004c84:	f1a9 7954 	sub.w	r9, r9, #55574528	; 0x3500000
 8004c88:	eb03 07c7 	add.w	r7, r3, r7, lsl #3
 8004c8c:	4642      	mov	r2, r8
 8004c8e:	e9d7 0100 	ldrd	r0, r1, [r7]
 8004c92:	464b      	mov	r3, r9
 8004c94:	f7fb fc20 	bl	80004d8 <__aeabi_dmul>
 8004c98:	4b29      	ldr	r3, [pc, #164]	; (8004d40 <_strtod_l+0x598>)
 8004c9a:	460a      	mov	r2, r1
 8004c9c:	400b      	ands	r3, r1
 8004c9e:	4929      	ldr	r1, [pc, #164]	; (8004d44 <_strtod_l+0x59c>)
 8004ca0:	4680      	mov	r8, r0
 8004ca2:	428b      	cmp	r3, r1
 8004ca4:	d8bb      	bhi.n	8004c1e <_strtod_l+0x476>
 8004ca6:	f5a1 1180 	sub.w	r1, r1, #1048576	; 0x100000
 8004caa:	428b      	cmp	r3, r1
 8004cac:	bf86      	itte	hi
 8004cae:	f04f 38ff 	movhi.w	r8, #4294967295	; 0xffffffff
 8004cb2:	f8df 9094 	ldrhi.w	r9, [pc, #148]	; 8004d48 <_strtod_l+0x5a0>
 8004cb6:	f102 7954 	addls.w	r9, r2, #55574528	; 0x3500000
 8004cba:	2300      	movs	r3, #0
 8004cbc:	9305      	str	r3, [sp, #20]
 8004cbe:	e07e      	b.n	8004dbe <_strtod_l+0x616>
 8004cc0:	07f2      	lsls	r2, r6, #31
 8004cc2:	d507      	bpl.n	8004cd4 <_strtod_l+0x52c>
 8004cc4:	4b1d      	ldr	r3, [pc, #116]	; (8004d3c <_strtod_l+0x594>)
 8004cc6:	eb03 03c7 	add.w	r3, r3, r7, lsl #3
 8004cca:	e9d3 2300 	ldrd	r2, r3, [r3]
 8004cce:	f7fb fc03 	bl	80004d8 <__aeabi_dmul>
 8004cd2:	2301      	movs	r3, #1
 8004cd4:	3701      	adds	r7, #1
 8004cd6:	1076      	asrs	r6, r6, #1
 8004cd8:	e7ce      	b.n	8004c78 <_strtod_l+0x4d0>
 8004cda:	d0ee      	beq.n	8004cba <_strtod_l+0x512>
 8004cdc:	4276      	negs	r6, r6
 8004cde:	f016 020f 	ands.w	r2, r6, #15
 8004ce2:	d00a      	beq.n	8004cfa <_strtod_l+0x552>
 8004ce4:	4b14      	ldr	r3, [pc, #80]	; (8004d38 <_strtod_l+0x590>)
 8004ce6:	4640      	mov	r0, r8
 8004ce8:	eb03 03c2 	add.w	r3, r3, r2, lsl #3
 8004cec:	4649      	mov	r1, r9
 8004cee:	e9d3 2300 	ldrd	r2, r3, [r3]
 8004cf2:	f7fb fd1b 	bl	800072c <__aeabi_ddiv>
 8004cf6:	4680      	mov	r8, r0
 8004cf8:	4689      	mov	r9, r1
 8004cfa:	1136      	asrs	r6, r6, #4
 8004cfc:	d0dd      	beq.n	8004cba <_strtod_l+0x512>
 8004cfe:	2e1f      	cmp	r6, #31
 8004d00:	dd24      	ble.n	8004d4c <_strtod_l+0x5a4>
 8004d02:	f04f 0b00 	mov.w	fp, #0
 8004d06:	f8cd b010 	str.w	fp, [sp, #16]
 8004d0a:	f8cd b020 	str.w	fp, [sp, #32]
 8004d0e:	f8cd b018 	str.w	fp, [sp, #24]
 8004d12:	2322      	movs	r3, #34	; 0x22
 8004d14:	f04f 0800 	mov.w	r8, #0
 8004d18:	f04f 0900 	mov.w	r9, #0
 8004d1c:	f8ca 3000 	str.w	r3, [sl]
 8004d20:	e78c      	b.n	8004c3c <_strtod_l+0x494>
 8004d22:	bf00      	nop
 8004d24:	08008c35 	.word	0x08008c35
 8004d28:	08008c4c 	.word	0x08008c4c
 8004d2c:	08008c2c 	.word	0x08008c2c
 8004d30:	08008c2f 	.word	0x08008c2f
 8004d34:	08008ec7 	.word	0x08008ec7
 8004d38:	08008db8 	.word	0x08008db8
 8004d3c:	08008d90 	.word	0x08008d90
 8004d40:	7ff00000 	.word	0x7ff00000
 8004d44:	7ca00000 	.word	0x7ca00000
 8004d48:	7fefffff 	.word	0x7fefffff
 8004d4c:	f016 0310 	ands.w	r3, r6, #16
 8004d50:	bf18      	it	ne
 8004d52:	236a      	movne	r3, #106	; 0x6a
 8004d54:	4640      	mov	r0, r8
 8004d56:	9305      	str	r3, [sp, #20]
 8004d58:	4649      	mov	r1, r9
 8004d5a:	2300      	movs	r3, #0
 8004d5c:	4fb2      	ldr	r7, [pc, #712]	; (8005028 <_strtod_l+0x880>)
 8004d5e:	07f2      	lsls	r2, r6, #31
 8004d60:	d504      	bpl.n	8004d6c <_strtod_l+0x5c4>
 8004d62:	e9d7 2300 	ldrd	r2, r3, [r7]
 8004d66:	f7fb fbb7 	bl	80004d8 <__aeabi_dmul>
 8004d6a:	2301      	movs	r3, #1
 8004d6c:	1076      	asrs	r6, r6, #1
 8004d6e:	f107 0708 	add.w	r7, r7, #8
 8004d72:	d1f4      	bne.n	8004d5e <_strtod_l+0x5b6>
 8004d74:	b10b      	cbz	r3, 8004d7a <_strtod_l+0x5d2>
 8004d76:	4680      	mov	r8, r0
 8004d78:	4689      	mov	r9, r1
 8004d7a:	9b05      	ldr	r3, [sp, #20]
 8004d7c:	b1bb      	cbz	r3, 8004dae <_strtod_l+0x606>
 8004d7e:	f3c9 530a 	ubfx	r3, r9, #20, #11
 8004d82:	f1c3 036b 	rsb	r3, r3, #107	; 0x6b
 8004d86:	2b00      	cmp	r3, #0
 8004d88:	4649      	mov	r1, r9
 8004d8a:	dd10      	ble.n	8004dae <_strtod_l+0x606>
 8004d8c:	2b1f      	cmp	r3, #31
 8004d8e:	f340 812b 	ble.w	8004fe8 <_strtod_l+0x840>
 8004d92:	2b34      	cmp	r3, #52	; 0x34
 8004d94:	bfd8      	it	le
 8004d96:	f04f 32ff 	movle.w	r2, #4294967295	; 0xffffffff
 8004d9a:	f04f 0800 	mov.w	r8, #0
 8004d9e:	bfcf      	iteee	gt
 8004da0:	f04f 795c 	movgt.w	r9, #57671680	; 0x3700000
 8004da4:	3b20      	suble	r3, #32
 8004da6:	fa02 f303 	lslle.w	r3, r2, r3
 8004daa:	ea03 0901 	andle.w	r9, r3, r1
 8004dae:	2200      	movs	r2, #0
 8004db0:	2300      	movs	r3, #0
 8004db2:	4640      	mov	r0, r8
 8004db4:	4649      	mov	r1, r9
 8004db6:	f7fb fdf7 	bl	80009a8 <__aeabi_dcmpeq>
 8004dba:	2800      	cmp	r0, #0
 8004dbc:	d1a1      	bne.n	8004d02 <_strtod_l+0x55a>
 8004dbe:	9b06      	ldr	r3, [sp, #24]
 8004dc0:	465a      	mov	r2, fp
 8004dc2:	9300      	str	r3, [sp, #0]
 8004dc4:	4650      	mov	r0, sl
 8004dc6:	4623      	mov	r3, r4
 8004dc8:	9908      	ldr	r1, [sp, #32]
 8004dca:	f000 ff1f 	bl	8005c0c <__s2b>
 8004dce:	9008      	str	r0, [sp, #32]
 8004dd0:	2800      	cmp	r0, #0
 8004dd2:	f43f af24 	beq.w	8004c1e <_strtod_l+0x476>
 8004dd6:	9b04      	ldr	r3, [sp, #16]
 8004dd8:	f04f 0b00 	mov.w	fp, #0
 8004ddc:	1b5d      	subs	r5, r3, r5
 8004dde:	9b07      	ldr	r3, [sp, #28]
 8004de0:	f8cd b010 	str.w	fp, [sp, #16]
 8004de4:	2b00      	cmp	r3, #0
 8004de6:	bfb4      	ite	lt
 8004de8:	462b      	movlt	r3, r5
 8004dea:	2300      	movge	r3, #0
 8004dec:	930e      	str	r3, [sp, #56]	; 0x38
 8004dee:	9b07      	ldr	r3, [sp, #28]
 8004df0:	ea23 73e3 	bic.w	r3, r3, r3, asr #31
 8004df4:	9316      	str	r3, [sp, #88]	; 0x58
 8004df6:	9b08      	ldr	r3, [sp, #32]
 8004df8:	4650      	mov	r0, sl
 8004dfa:	6859      	ldr	r1, [r3, #4]
 8004dfc:	f000 fe5a 	bl	8005ab4 <_Balloc>
 8004e00:	9006      	str	r0, [sp, #24]
 8004e02:	2800      	cmp	r0, #0
 8004e04:	f43f af13 	beq.w	8004c2e <_strtod_l+0x486>
 8004e08:	9b08      	ldr	r3, [sp, #32]
 8004e0a:	300c      	adds	r0, #12
 8004e0c:	691a      	ldr	r2, [r3, #16]
 8004e0e:	f103 010c 	add.w	r1, r3, #12
 8004e12:	3202      	adds	r2, #2
 8004e14:	0092      	lsls	r2, r2, #2
 8004e16:	f000 fe3f 	bl	8005a98 <memcpy>
 8004e1a:	ab1e      	add	r3, sp, #120	; 0x78
 8004e1c:	9301      	str	r3, [sp, #4]
 8004e1e:	ab1d      	add	r3, sp, #116	; 0x74
 8004e20:	9300      	str	r3, [sp, #0]
 8004e22:	4642      	mov	r2, r8
 8004e24:	464b      	mov	r3, r9
 8004e26:	4650      	mov	r0, sl
 8004e28:	e9cd 890a 	strd	r8, r9, [sp, #40]	; 0x28
 8004e2c:	f001 fa2c 	bl	8006288 <__d2b>
 8004e30:	901c      	str	r0, [sp, #112]	; 0x70
 8004e32:	2800      	cmp	r0, #0
 8004e34:	f43f aefb 	beq.w	8004c2e <_strtod_l+0x486>
 8004e38:	2101      	movs	r1, #1
 8004e3a:	4650      	mov	r0, sl
 8004e3c:	f000 ff7e 	bl	8005d3c <__i2b>
 8004e40:	4603      	mov	r3, r0
 8004e42:	9004      	str	r0, [sp, #16]
 8004e44:	2800      	cmp	r0, #0
 8004e46:	f43f aef2 	beq.w	8004c2e <_strtod_l+0x486>
 8004e4a:	9d1d      	ldr	r5, [sp, #116]	; 0x74
 8004e4c:	9a1e      	ldr	r2, [sp, #120]	; 0x78
 8004e4e:	2d00      	cmp	r5, #0
 8004e50:	bfab      	itete	ge
 8004e52:	9b0e      	ldrge	r3, [sp, #56]	; 0x38
 8004e54:	9b16      	ldrlt	r3, [sp, #88]	; 0x58
 8004e56:	18ee      	addge	r6, r5, r3
 8004e58:	1b5c      	sublt	r4, r3, r5
 8004e5a:	9b05      	ldr	r3, [sp, #20]
 8004e5c:	bfa8      	it	ge
 8004e5e:	9c16      	ldrge	r4, [sp, #88]	; 0x58
 8004e60:	eba5 0503 	sub.w	r5, r5, r3
 8004e64:	4415      	add	r5, r2
 8004e66:	4b71      	ldr	r3, [pc, #452]	; (800502c <_strtod_l+0x884>)
 8004e68:	f105 35ff 	add.w	r5, r5, #4294967295	; 0xffffffff
 8004e6c:	bfb8      	it	lt
 8004e6e:	9e0e      	ldrlt	r6, [sp, #56]	; 0x38
 8004e70:	429d      	cmp	r5, r3
 8004e72:	f1c2 0236 	rsb	r2, r2, #54	; 0x36
 8004e76:	f280 80c9 	bge.w	800500c <_strtod_l+0x864>
 8004e7a:	1b5b      	subs	r3, r3, r5
 8004e7c:	2b1f      	cmp	r3, #31
 8004e7e:	f04f 0701 	mov.w	r7, #1
 8004e82:	eba2 0203 	sub.w	r2, r2, r3
 8004e86:	f300 80b6 	bgt.w	8004ff6 <_strtod_l+0x84e>
 8004e8a:	2500      	movs	r5, #0
 8004e8c:	fa07 f303 	lsl.w	r3, r7, r3
 8004e90:	930f      	str	r3, [sp, #60]	; 0x3c
 8004e92:	18b7      	adds	r7, r6, r2
 8004e94:	9b05      	ldr	r3, [sp, #20]
 8004e96:	42be      	cmp	r6, r7
 8004e98:	4414      	add	r4, r2
 8004e9a:	441c      	add	r4, r3
 8004e9c:	4633      	mov	r3, r6
 8004e9e:	bfa8      	it	ge
 8004ea0:	463b      	movge	r3, r7
 8004ea2:	42a3      	cmp	r3, r4
 8004ea4:	bfa8      	it	ge
 8004ea6:	4623      	movge	r3, r4
 8004ea8:	2b00      	cmp	r3, #0
 8004eaa:	bfc2      	ittt	gt
 8004eac:	1aff      	subgt	r7, r7, r3
 8004eae:	1ae4      	subgt	r4, r4, r3
 8004eb0:	1af6      	subgt	r6, r6, r3
 8004eb2:	9b0e      	ldr	r3, [sp, #56]	; 0x38
 8004eb4:	2b00      	cmp	r3, #0
 8004eb6:	dd17      	ble.n	8004ee8 <_strtod_l+0x740>
 8004eb8:	461a      	mov	r2, r3
 8004eba:	4650      	mov	r0, sl
 8004ebc:	9904      	ldr	r1, [sp, #16]
 8004ebe:	f000 fff7 	bl	8005eb0 <__pow5mult>
 8004ec2:	9004      	str	r0, [sp, #16]
 8004ec4:	2800      	cmp	r0, #0
 8004ec6:	f43f aeb2 	beq.w	8004c2e <_strtod_l+0x486>
 8004eca:	4601      	mov	r1, r0
 8004ecc:	9a1c      	ldr	r2, [sp, #112]	; 0x70
 8004ece:	4650      	mov	r0, sl
 8004ed0:	f000 ff4a 	bl	8005d68 <__multiply>
 8004ed4:	9009      	str	r0, [sp, #36]	; 0x24
 8004ed6:	2800      	cmp	r0, #0
 8004ed8:	f43f aea9 	beq.w	8004c2e <_strtod_l+0x486>
 8004edc:	4650      	mov	r0, sl
 8004ede:	991c      	ldr	r1, [sp, #112]	; 0x70
 8004ee0:	f000 fe28 	bl	8005b34 <_Bfree>
 8004ee4:	9b09      	ldr	r3, [sp, #36]	; 0x24
 8004ee6:	931c      	str	r3, [sp, #112]	; 0x70
 8004ee8:	2f00      	cmp	r7, #0
 8004eea:	f300 8093 	bgt.w	8005014 <_strtod_l+0x86c>
 8004eee:	9b07      	ldr	r3, [sp, #28]
 8004ef0:	2b00      	cmp	r3, #0
 8004ef2:	dd08      	ble.n	8004f06 <_strtod_l+0x75e>
 8004ef4:	4650      	mov	r0, sl
 8004ef6:	9a16      	ldr	r2, [sp, #88]	; 0x58
 8004ef8:	9906      	ldr	r1, [sp, #24]
 8004efa:	f000 ffd9 	bl	8005eb0 <__pow5mult>
 8004efe:	9006      	str	r0, [sp, #24]
 8004f00:	2800      	cmp	r0, #0
 8004f02:	f43f ae94 	beq.w	8004c2e <_strtod_l+0x486>
 8004f06:	2c00      	cmp	r4, #0
 8004f08:	dd08      	ble.n	8004f1c <_strtod_l+0x774>
 8004f0a:	4622      	mov	r2, r4
 8004f0c:	4650      	mov	r0, sl
 8004f0e:	9906      	ldr	r1, [sp, #24]
 8004f10:	f001 f828 	bl	8005f64 <__lshift>
 8004f14:	9006      	str	r0, [sp, #24]
 8004f16:	2800      	cmp	r0, #0
 8004f18:	f43f ae89 	beq.w	8004c2e <_strtod_l+0x486>
 8004f1c:	2e00      	cmp	r6, #0
 8004f1e:	dd08      	ble.n	8004f32 <_strtod_l+0x78a>
 8004f20:	4632      	mov	r2, r6
 8004f22:	4650      	mov	r0, sl
 8004f24:	9904      	ldr	r1, [sp, #16]
 8004f26:	f001 f81d 	bl	8005f64 <__lshift>
 8004f2a:	9004      	str	r0, [sp, #16]
 8004f2c:	2800      	cmp	r0, #0
 8004f2e:	f43f ae7e 	beq.w	8004c2e <_strtod_l+0x486>
 8004f32:	4650      	mov	r0, sl
 8004f34:	9a06      	ldr	r2, [sp, #24]
 8004f36:	991c      	ldr	r1, [sp, #112]	; 0x70
 8004f38:	f001 f89c 	bl	8006074 <__mdiff>
 8004f3c:	4683      	mov	fp, r0
 8004f3e:	2800      	cmp	r0, #0
 8004f40:	f43f ae75 	beq.w	8004c2e <_strtod_l+0x486>
 8004f44:	2400      	movs	r4, #0
 8004f46:	68c3      	ldr	r3, [r0, #12]
 8004f48:	9904      	ldr	r1, [sp, #16]
 8004f4a:	60c4      	str	r4, [r0, #12]
 8004f4c:	930d      	str	r3, [sp, #52]	; 0x34
 8004f4e:	f001 f875 	bl	800603c <__mcmp>
 8004f52:	42a0      	cmp	r0, r4
 8004f54:	da70      	bge.n	8005038 <_strtod_l+0x890>
 8004f56:	9b0d      	ldr	r3, [sp, #52]	; 0x34
 8004f58:	ea53 0308 	orrs.w	r3, r3, r8
 8004f5c:	f040 8096 	bne.w	800508c <_strtod_l+0x8e4>
 8004f60:	f3c9 0313 	ubfx	r3, r9, #0, #20
 8004f64:	2b00      	cmp	r3, #0
 8004f66:	f040 8091 	bne.w	800508c <_strtod_l+0x8e4>
 8004f6a:	f029 4300 	bic.w	r3, r9, #2147483648	; 0x80000000
 8004f6e:	0d1b      	lsrs	r3, r3, #20
 8004f70:	051b      	lsls	r3, r3, #20
 8004f72:	f1b3 6fd6 	cmp.w	r3, #112197632	; 0x6b00000
 8004f76:	f240 8089 	bls.w	800508c <_strtod_l+0x8e4>
 8004f7a:	f8db 3014 	ldr.w	r3, [fp, #20]
 8004f7e:	b923      	cbnz	r3, 8004f8a <_strtod_l+0x7e2>
 8004f80:	f8db 3010 	ldr.w	r3, [fp, #16]
 8004f84:	2b01      	cmp	r3, #1
 8004f86:	f340 8081 	ble.w	800508c <_strtod_l+0x8e4>
 8004f8a:	4659      	mov	r1, fp
 8004f8c:	2201      	movs	r2, #1
 8004f8e:	4650      	mov	r0, sl
 8004f90:	f000 ffe8 	bl	8005f64 <__lshift>
 8004f94:	9904      	ldr	r1, [sp, #16]
 8004f96:	4683      	mov	fp, r0
 8004f98:	f001 f850 	bl	800603c <__mcmp>
 8004f9c:	2800      	cmp	r0, #0
 8004f9e:	dd75      	ble.n	800508c <_strtod_l+0x8e4>
 8004fa0:	9905      	ldr	r1, [sp, #20]
 8004fa2:	464b      	mov	r3, r9
 8004fa4:	4a22      	ldr	r2, [pc, #136]	; (8005030 <_strtod_l+0x888>)
 8004fa6:	2900      	cmp	r1, #0
 8004fa8:	f000 8091 	beq.w	80050ce <_strtod_l+0x926>
 8004fac:	ea02 0109 	and.w	r1, r2, r9
 8004fb0:	f1b1 6fd6 	cmp.w	r1, #112197632	; 0x6b00000
 8004fb4:	f300 808b 	bgt.w	80050ce <_strtod_l+0x926>
 8004fb8:	f1b1 7f5c 	cmp.w	r1, #57671680	; 0x3700000
 8004fbc:	f77f aea9 	ble.w	8004d12 <_strtod_l+0x56a>
 8004fc0:	2300      	movs	r3, #0
 8004fc2:	4a1c      	ldr	r2, [pc, #112]	; (8005034 <_strtod_l+0x88c>)
 8004fc4:	4640      	mov	r0, r8
 8004fc6:	e9cd 3214 	strd	r3, r2, [sp, #80]	; 0x50
 8004fca:	4649      	mov	r1, r9
 8004fcc:	e9dd 2314 	ldrd	r2, r3, [sp, #80]	; 0x50
 8004fd0:	f7fb fa82 	bl	80004d8 <__aeabi_dmul>
 8004fd4:	460b      	mov	r3, r1
 8004fd6:	4303      	orrs	r3, r0
 8004fd8:	bf08      	it	eq
 8004fda:	2322      	moveq	r3, #34	; 0x22
 8004fdc:	4680      	mov	r8, r0
 8004fde:	4689      	mov	r9, r1
 8004fe0:	bf08      	it	eq
 8004fe2:	f8ca 3000 	streq.w	r3, [sl]
 8004fe6:	e62d      	b.n	8004c44 <_strtod_l+0x49c>
 8004fe8:	f04f 32ff 	mov.w	r2, #4294967295	; 0xffffffff
 8004fec:	fa02 f303 	lsl.w	r3, r2, r3
 8004ff0:	ea03 0808 	and.w	r8, r3, r8
 8004ff4:	e6db      	b.n	8004dae <_strtod_l+0x606>
 8004ff6:	f1c5 457f 	rsb	r5, r5, #4278190080	; 0xff000000
 8004ffa:	f505 057f 	add.w	r5, r5, #16711680	; 0xff0000
 8004ffe:	f505 457b 	add.w	r5, r5, #64256	; 0xfb00
 8005002:	35e2      	adds	r5, #226	; 0xe2
 8005004:	fa07 f505 	lsl.w	r5, r7, r5
 8005008:	970f      	str	r7, [sp, #60]	; 0x3c
 800500a:	e742      	b.n	8004e92 <_strtod_l+0x6ea>
 800500c:	2301      	movs	r3, #1
 800500e:	2500      	movs	r5, #0
 8005010:	930f      	str	r3, [sp, #60]	; 0x3c
 8005012:	e73e      	b.n	8004e92 <_strtod_l+0x6ea>
 8005014:	463a      	mov	r2, r7
 8005016:	4650      	mov	r0, sl
 8005018:	991c      	ldr	r1, [sp, #112]	; 0x70
 800501a:	f000 ffa3 	bl	8005f64 <__lshift>
 800501e:	901c      	str	r0, [sp, #112]	; 0x70
 8005020:	2800      	cmp	r0, #0
 8005022:	f47f af64 	bne.w	8004eee <_strtod_l+0x746>
 8005026:	e602      	b.n	8004c2e <_strtod_l+0x486>
 8005028:	08008c60 	.word	0x08008c60
 800502c:	fffffc02 	.word	0xfffffc02
 8005030:	7ff00000 	.word	0x7ff00000
 8005034:	39500000 	.word	0x39500000
 8005038:	f8cd 9024 	str.w	r9, [sp, #36]	; 0x24
 800503c:	d166      	bne.n	800510c <_strtod_l+0x964>
 800503e:	9a0d      	ldr	r2, [sp, #52]	; 0x34
 8005040:	f3c9 0313 	ubfx	r3, r9, #0, #20
 8005044:	b35a      	cbz	r2, 800509e <_strtod_l+0x8f6>
 8005046:	4a9c      	ldr	r2, [pc, #624]	; (80052b8 <_strtod_l+0xb10>)
 8005048:	4293      	cmp	r3, r2
 800504a:	d12c      	bne.n	80050a6 <_strtod_l+0x8fe>
 800504c:	9b05      	ldr	r3, [sp, #20]
 800504e:	4640      	mov	r0, r8
 8005050:	b303      	cbz	r3, 8005094 <_strtod_l+0x8ec>
 8005052:	464b      	mov	r3, r9
 8005054:	4a99      	ldr	r2, [pc, #612]	; (80052bc <_strtod_l+0xb14>)
 8005056:	f04f 31ff 	mov.w	r1, #4294967295	; 0xffffffff
 800505a:	401a      	ands	r2, r3
 800505c:	f1b2 6fd4 	cmp.w	r2, #111149056	; 0x6a00000
 8005060:	d81b      	bhi.n	800509a <_strtod_l+0x8f2>
 8005062:	0d12      	lsrs	r2, r2, #20
 8005064:	f1c2 036b 	rsb	r3, r2, #107	; 0x6b
 8005068:	fa01 f303 	lsl.w	r3, r1, r3
 800506c:	4298      	cmp	r0, r3
 800506e:	d11a      	bne.n	80050a6 <_strtod_l+0x8fe>
 8005070:	4b93      	ldr	r3, [pc, #588]	; (80052c0 <_strtod_l+0xb18>)
 8005072:	9a09      	ldr	r2, [sp, #36]	; 0x24
 8005074:	429a      	cmp	r2, r3
 8005076:	d102      	bne.n	800507e <_strtod_l+0x8d6>
 8005078:	3001      	adds	r0, #1
 800507a:	f43f add8 	beq.w	8004c2e <_strtod_l+0x486>
 800507e:	f04f 0800 	mov.w	r8, #0
 8005082:	4b8e      	ldr	r3, [pc, #568]	; (80052bc <_strtod_l+0xb14>)
 8005084:	9a09      	ldr	r2, [sp, #36]	; 0x24
 8005086:	401a      	ands	r2, r3
 8005088:	f502 1980 	add.w	r9, r2, #1048576	; 0x100000
 800508c:	9b05      	ldr	r3, [sp, #20]
 800508e:	2b00      	cmp	r3, #0
 8005090:	d196      	bne.n	8004fc0 <_strtod_l+0x818>
 8005092:	e5d7      	b.n	8004c44 <_strtod_l+0x49c>
 8005094:	f04f 33ff 	mov.w	r3, #4294967295	; 0xffffffff
 8005098:	e7e8      	b.n	800506c <_strtod_l+0x8c4>
 800509a:	460b      	mov	r3, r1
 800509c:	e7e6      	b.n	800506c <_strtod_l+0x8c4>
 800509e:	ea53 0308 	orrs.w	r3, r3, r8
 80050a2:	f43f af7d 	beq.w	8004fa0 <_strtod_l+0x7f8>
 80050a6:	b1e5      	cbz	r5, 80050e2 <_strtod_l+0x93a>
 80050a8:	9b09      	ldr	r3, [sp, #36]	; 0x24
 80050aa:	421d      	tst	r5, r3
 80050ac:	d0ee      	beq.n	800508c <_strtod_l+0x8e4>
 80050ae:	9b0d      	ldr	r3, [sp, #52]	; 0x34
 80050b0:	4640      	mov	r0, r8
 80050b2:	4649      	mov	r1, r9
 80050b4:	9a05      	ldr	r2, [sp, #20]
 80050b6:	b1c3      	cbz	r3, 80050ea <_strtod_l+0x942>
 80050b8:	f7ff fb52 	bl	8004760 <sulp>
 80050bc:	4602      	mov	r2, r0
 80050be:	460b      	mov	r3, r1
 80050c0:	e9dd 010a 	ldrd	r0, r1, [sp, #40]	; 0x28
 80050c4:	f7fb f852 	bl	800016c <__adddf3>
 80050c8:	4680      	mov	r8, r0
 80050ca:	4689      	mov	r9, r1
 80050cc:	e7de      	b.n	800508c <_strtod_l+0x8e4>
 80050ce:	4013      	ands	r3, r2
 80050d0:	f5a3 1380 	sub.w	r3, r3, #1048576	; 0x100000
 80050d4:	ea6f 5913 	mvn.w	r9, r3, lsr #20
 80050d8:	f04f 38ff 	mov.w	r8, #4294967295	; 0xffffffff
 80050dc:	ea6f 5909 	mvn.w	r9, r9, lsl #20
 80050e0:	e7d4      	b.n	800508c <_strtod_l+0x8e4>
 80050e2:	9b0f      	ldr	r3, [sp, #60]	; 0x3c
 80050e4:	ea13 0f08 	tst.w	r3, r8
 80050e8:	e7e0      	b.n	80050ac <_strtod_l+0x904>
 80050ea:	f7ff fb39 	bl	8004760 <sulp>
 80050ee:	4602      	mov	r2, r0
 80050f0:	460b      	mov	r3, r1
 80050f2:	e9dd 010a 	ldrd	r0, r1, [sp, #40]	; 0x28
 80050f6:	f7fb f837 	bl	8000168 <__aeabi_dsub>
 80050fa:	2200      	movs	r2, #0
 80050fc:	2300      	movs	r3, #0
 80050fe:	4680      	mov	r8, r0
 8005100:	4689      	mov	r9, r1
 8005102:	f7fb fc51 	bl	80009a8 <__aeabi_dcmpeq>
 8005106:	2800      	cmp	r0, #0
 8005108:	d0c0      	beq.n	800508c <_strtod_l+0x8e4>
 800510a:	e602      	b.n	8004d12 <_strtod_l+0x56a>
 800510c:	4658      	mov	r0, fp
 800510e:	9904      	ldr	r1, [sp, #16]
 8005110:	f001 f916 	bl	8006340 <__ratio>
 8005114:	2200      	movs	r2, #0
 8005116:	f04f 4380 	mov.w	r3, #1073741824	; 0x40000000
 800511a:	4606      	mov	r6, r0
 800511c:	460f      	mov	r7, r1
 800511e:	f7fb fc57 	bl	80009d0 <__aeabi_dcmple>
 8005122:	2800      	cmp	r0, #0
 8005124:	d075      	beq.n	8005212 <_strtod_l+0xa6a>
 8005126:	9b0d      	ldr	r3, [sp, #52]	; 0x34
 8005128:	2b00      	cmp	r3, #0
 800512a:	d047      	beq.n	80051bc <_strtod_l+0xa14>
 800512c:	2600      	movs	r6, #0
 800512e:	4f65      	ldr	r7, [pc, #404]	; (80052c4 <_strtod_l+0xb1c>)
 8005130:	4d64      	ldr	r5, [pc, #400]	; (80052c4 <_strtod_l+0xb1c>)
 8005132:	9b09      	ldr	r3, [sp, #36]	; 0x24
 8005134:	f023 4300 	bic.w	r3, r3, #2147483648	; 0x80000000
 8005138:	0d1b      	lsrs	r3, r3, #20
 800513a:	051b      	lsls	r3, r3, #20
 800513c:	930f      	str	r3, [sp, #60]	; 0x3c
 800513e:	9a0f      	ldr	r2, [sp, #60]	; 0x3c
 8005140:	4b61      	ldr	r3, [pc, #388]	; (80052c8 <_strtod_l+0xb20>)
 8005142:	429a      	cmp	r2, r3
 8005144:	f040 80c8 	bne.w	80052d8 <_strtod_l+0xb30>
 8005148:	e9dd 230a 	ldrd	r2, r3, [sp, #40]	; 0x28
 800514c:	e9cd 2314 	strd	r2, r3, [sp, #80]	; 0x50
 8005150:	9b09      	ldr	r3, [sp, #36]	; 0x24
 8005152:	4640      	mov	r0, r8
 8005154:	f1a3 7954 	sub.w	r9, r3, #55574528	; 0x3500000
 8005158:	4649      	mov	r1, r9
 800515a:	f001 f81b 	bl	8006194 <__ulp>
 800515e:	4602      	mov	r2, r0
 8005160:	460b      	mov	r3, r1
 8005162:	4630      	mov	r0, r6
 8005164:	4639      	mov	r1, r7
 8005166:	f7fb f9b7 	bl	80004d8 <__aeabi_dmul>
 800516a:	4642      	mov	r2, r8
 800516c:	464b      	mov	r3, r9
 800516e:	f7fa fffd 	bl	800016c <__adddf3>
 8005172:	460b      	mov	r3, r1
 8005174:	4951      	ldr	r1, [pc, #324]	; (80052bc <_strtod_l+0xb14>)
 8005176:	4a55      	ldr	r2, [pc, #340]	; (80052cc <_strtod_l+0xb24>)
 8005178:	4019      	ands	r1, r3
 800517a:	4291      	cmp	r1, r2
 800517c:	4680      	mov	r8, r0
 800517e:	d95e      	bls.n	800523e <_strtod_l+0xa96>
 8005180:	9b0b      	ldr	r3, [sp, #44]	; 0x2c
 8005182:	f102 7254 	add.w	r2, r2, #55574528	; 0x3500000
 8005186:	4293      	cmp	r3, r2
 8005188:	d103      	bne.n	8005192 <_strtod_l+0x9ea>
 800518a:	9b0a      	ldr	r3, [sp, #40]	; 0x28
 800518c:	3301      	adds	r3, #1
 800518e:	f43f ad4e 	beq.w	8004c2e <_strtod_l+0x486>
 8005192:	f04f 38ff 	mov.w	r8, #4294967295	; 0xffffffff
 8005196:	f8df 9128 	ldr.w	r9, [pc, #296]	; 80052c0 <_strtod_l+0xb18>
 800519a:	4650      	mov	r0, sl
 800519c:	991c      	ldr	r1, [sp, #112]	; 0x70
 800519e:	f000 fcc9 	bl	8005b34 <_Bfree>
 80051a2:	4650      	mov	r0, sl
 80051a4:	9906      	ldr	r1, [sp, #24]
 80051a6:	f000 fcc5 	bl	8005b34 <_Bfree>
 80051aa:	4650      	mov	r0, sl
 80051ac:	9904      	ldr	r1, [sp, #16]
 80051ae:	f000 fcc1 	bl	8005b34 <_Bfree>
 80051b2:	4659      	mov	r1, fp
 80051b4:	4650      	mov	r0, sl
 80051b6:	f000 fcbd 	bl	8005b34 <_Bfree>
 80051ba:	e61c      	b.n	8004df6 <_strtod_l+0x64e>
 80051bc:	f1b8 0f00 	cmp.w	r8, #0
 80051c0:	d119      	bne.n	80051f6 <_strtod_l+0xa4e>
 80051c2:	9b09      	ldr	r3, [sp, #36]	; 0x24
 80051c4:	f3c3 0313 	ubfx	r3, r3, #0, #20
 80051c8:	b9e3      	cbnz	r3, 8005204 <_strtod_l+0xa5c>
 80051ca:	2200      	movs	r2, #0
 80051cc:	4630      	mov	r0, r6
 80051ce:	4639      	mov	r1, r7
 80051d0:	4b3c      	ldr	r3, [pc, #240]	; (80052c4 <_strtod_l+0xb1c>)
 80051d2:	f7fb fbf3 	bl	80009bc <__aeabi_dcmplt>
 80051d6:	b9c8      	cbnz	r0, 800520c <_strtod_l+0xa64>
 80051d8:	2200      	movs	r2, #0
 80051da:	4630      	mov	r0, r6
 80051dc:	4639      	mov	r1, r7
 80051de:	4b3c      	ldr	r3, [pc, #240]	; (80052d0 <_strtod_l+0xb28>)
 80051e0:	f7fb f97a 	bl	80004d8 <__aeabi_dmul>
 80051e4:	4604      	mov	r4, r0
 80051e6:	460d      	mov	r5, r1
 80051e8:	f105 4300 	add.w	r3, r5, #2147483648	; 0x80000000
 80051ec:	9418      	str	r4, [sp, #96]	; 0x60
 80051ee:	9319      	str	r3, [sp, #100]	; 0x64
 80051f0:	e9dd 6718 	ldrd	r6, r7, [sp, #96]	; 0x60
 80051f4:	e79d      	b.n	8005132 <_strtod_l+0x98a>
 80051f6:	f1b8 0f01 	cmp.w	r8, #1
 80051fa:	d103      	bne.n	8005204 <_strtod_l+0xa5c>
 80051fc:	9b09      	ldr	r3, [sp, #36]	; 0x24
 80051fe:	2b00      	cmp	r3, #0
 8005200:	f43f ad87 	beq.w	8004d12 <_strtod_l+0x56a>
 8005204:	2600      	movs	r6, #0
 8005206:	2400      	movs	r4, #0
 8005208:	4f32      	ldr	r7, [pc, #200]	; (80052d4 <_strtod_l+0xb2c>)
 800520a:	e791      	b.n	8005130 <_strtod_l+0x988>
 800520c:	9c0d      	ldr	r4, [sp, #52]	; 0x34
 800520e:	4d30      	ldr	r5, [pc, #192]	; (80052d0 <_strtod_l+0xb28>)
 8005210:	e7ea      	b.n	80051e8 <_strtod_l+0xa40>
 8005212:	4b2f      	ldr	r3, [pc, #188]	; (80052d0 <_strtod_l+0xb28>)
 8005214:	2200      	movs	r2, #0
 8005216:	4630      	mov	r0, r6
 8005218:	4639      	mov	r1, r7
 800521a:	f7fb f95d 	bl	80004d8 <__aeabi_dmul>
 800521e:	9b0d      	ldr	r3, [sp, #52]	; 0x34
 8005220:	4604      	mov	r4, r0
 8005222:	460d      	mov	r5, r1
 8005224:	b933      	cbnz	r3, 8005234 <_strtod_l+0xa8c>
 8005226:	f101 4300 	add.w	r3, r1, #2147483648	; 0x80000000
 800522a:	9010      	str	r0, [sp, #64]	; 0x40
 800522c:	9311      	str	r3, [sp, #68]	; 0x44
 800522e:	e9dd 6710 	ldrd	r6, r7, [sp, #64]	; 0x40
 8005232:	e77e      	b.n	8005132 <_strtod_l+0x98a>
 8005234:	4602      	mov	r2, r0
 8005236:	460b      	mov	r3, r1
 8005238:	e9cd 2310 	strd	r2, r3, [sp, #64]	; 0x40
 800523c:	e7f7      	b.n	800522e <_strtod_l+0xa86>
 800523e:	f103 7954 	add.w	r9, r3, #55574528	; 0x3500000
 8005242:	9b05      	ldr	r3, [sp, #20]
 8005244:	2b00      	cmp	r3, #0
 8005246:	d1a8      	bne.n	800519a <_strtod_l+0x9f2>
 8005248:	f029 4300 	bic.w	r3, r9, #2147483648	; 0x80000000
 800524c:	9a0f      	ldr	r2, [sp, #60]	; 0x3c
 800524e:	0d1b      	lsrs	r3, r3, #20
 8005250:	051b      	lsls	r3, r3, #20
 8005252:	429a      	cmp	r2, r3
 8005254:	d1a1      	bne.n	800519a <_strtod_l+0x9f2>
 8005256:	4620      	mov	r0, r4
 8005258:	4629      	mov	r1, r5
 800525a:	f7fb ff59 	bl	8001110 <__aeabi_d2lz>
 800525e:	f7fb f90d 	bl	800047c <__aeabi_l2d>
 8005262:	4602      	mov	r2, r0
 8005264:	460b      	mov	r3, r1
 8005266:	4620      	mov	r0, r4
 8005268:	4629      	mov	r1, r5
 800526a:	f7fa ff7d 	bl	8000168 <__aeabi_dsub>
 800526e:	9a0d      	ldr	r2, [sp, #52]	; 0x34
 8005270:	f3c9 0313 	ubfx	r3, r9, #0, #20
 8005274:	ea43 0308 	orr.w	r3, r3, r8
 8005278:	4313      	orrs	r3, r2
 800527a:	4604      	mov	r4, r0
 800527c:	460d      	mov	r5, r1
 800527e:	d066      	beq.n	800534e <_strtod_l+0xba6>
 8005280:	a309      	add	r3, pc, #36	; (adr r3, 80052a8 <_strtod_l+0xb00>)
 8005282:	e9d3 2300 	ldrd	r2, r3, [r3]
 8005286:	f7fb fb99 	bl	80009bc <__aeabi_dcmplt>
 800528a:	2800      	cmp	r0, #0
 800528c:	f47f acda 	bne.w	8004c44 <_strtod_l+0x49c>
 8005290:	a307      	add	r3, pc, #28	; (adr r3, 80052b0 <_strtod_l+0xb08>)
 8005292:	e9d3 2300 	ldrd	r2, r3, [r3]
 8005296:	4620      	mov	r0, r4
 8005298:	4629      	mov	r1, r5
 800529a:	f7fb fbad 	bl	80009f8 <__aeabi_dcmpgt>
 800529e:	2800      	cmp	r0, #0
 80052a0:	f43f af7b 	beq.w	800519a <_strtod_l+0x9f2>
 80052a4:	e4ce      	b.n	8004c44 <_strtod_l+0x49c>
 80052a6:	bf00      	nop
 80052a8:	94a03595 	.word	0x94a03595
 80052ac:	3fdfffff 	.word	0x3fdfffff
 80052b0:	35afe535 	.word	0x35afe535
 80052b4:	3fe00000 	.word	0x3fe00000
 80052b8:	000fffff 	.word	0x000fffff
 80052bc:	7ff00000 	.word	0x7ff00000
 80052c0:	7fefffff 	.word	0x7fefffff
 80052c4:	3ff00000 	.word	0x3ff00000
 80052c8:	7fe00000 	.word	0x7fe00000
 80052cc:	7c9fffff 	.word	0x7c9fffff
 80052d0:	3fe00000 	.word	0x3fe00000
 80052d4:	bff00000 	.word	0xbff00000
 80052d8:	9b05      	ldr	r3, [sp, #20]
 80052da:	b313      	cbz	r3, 8005322 <_strtod_l+0xb7a>
 80052dc:	9b0f      	ldr	r3, [sp, #60]	; 0x3c
 80052de:	f1b3 6fd4 	cmp.w	r3, #111149056	; 0x6a00000
 80052e2:	d81e      	bhi.n	8005322 <_strtod_l+0xb7a>
 80052e4:	a326      	add	r3, pc, #152	; (adr r3, 8005380 <_strtod_l+0xbd8>)
 80052e6:	e9d3 2300 	ldrd	r2, r3, [r3]
 80052ea:	4620      	mov	r0, r4
 80052ec:	4629      	mov	r1, r5
 80052ee:	f7fb fb6f 	bl	80009d0 <__aeabi_dcmple>
 80052f2:	b190      	cbz	r0, 800531a <_strtod_l+0xb72>
 80052f4:	4629      	mov	r1, r5
 80052f6:	4620      	mov	r0, r4
 80052f8:	f7fb fbc6 	bl	8000a88 <__aeabi_d2uiz>
 80052fc:	2801      	cmp	r0, #1
 80052fe:	bf38      	it	cc
 8005300:	2001      	movcc	r0, #1
 8005302:	f7fb f86f 	bl	80003e4 <__aeabi_ui2d>
 8005306:	9b0d      	ldr	r3, [sp, #52]	; 0x34
 8005308:	4604      	mov	r4, r0
 800530a:	460d      	mov	r5, r1
 800530c:	b9d3      	cbnz	r3, 8005344 <_strtod_l+0xb9c>
 800530e:	f101 4300 	add.w	r3, r1, #2147483648	; 0x80000000
 8005312:	9012      	str	r0, [sp, #72]	; 0x48
 8005314:	9313      	str	r3, [sp, #76]	; 0x4c
 8005316:	e9dd 6712 	ldrd	r6, r7, [sp, #72]	; 0x48
 800531a:	9a0f      	ldr	r2, [sp, #60]	; 0x3c
 800531c:	f107 63d6 	add.w	r3, r7, #112197632	; 0x6b00000
 8005320:	1a9f      	subs	r7, r3, r2
 8005322:	e9dd 010a 	ldrd	r0, r1, [sp, #40]	; 0x28
 8005326:	f000 ff35 	bl	8006194 <__ulp>
 800532a:	4602      	mov	r2, r0
 800532c:	460b      	mov	r3, r1
 800532e:	4630      	mov	r0, r6
 8005330:	4639      	mov	r1, r7
 8005332:	f7fb f8d1 	bl	80004d8 <__aeabi_dmul>
 8005336:	e9dd 230a 	ldrd	r2, r3, [sp, #40]	; 0x28
 800533a:	f7fa ff17 	bl	800016c <__adddf3>
 800533e:	4680      	mov	r8, r0
 8005340:	4689      	mov	r9, r1
 8005342:	e77e      	b.n	8005242 <_strtod_l+0xa9a>
 8005344:	4602      	mov	r2, r0
 8005346:	460b      	mov	r3, r1
 8005348:	e9cd 2312 	strd	r2, r3, [sp, #72]	; 0x48
 800534c:	e7e3      	b.n	8005316 <_strtod_l+0xb6e>
 800534e:	a30e      	add	r3, pc, #56	; (adr r3, 8005388 <_strtod_l+0xbe0>)
 8005350:	e9d3 2300 	ldrd	r2, r3, [r3]
 8005354:	f7fb fb32 	bl	80009bc <__aeabi_dcmplt>
 8005358:	e7a1      	b.n	800529e <_strtod_l+0xaf6>
 800535a:	2300      	movs	r3, #0
 800535c:	930c      	str	r3, [sp, #48]	; 0x30
 800535e:	9b1b      	ldr	r3, [sp, #108]	; 0x6c
 8005360:	9a17      	ldr	r2, [sp, #92]	; 0x5c
 8005362:	6013      	str	r3, [r2, #0]
 8005364:	f7ff ba65 	b.w	8004832 <_strtod_l+0x8a>
 8005368:	2b65      	cmp	r3, #101	; 0x65
 800536a:	f43f ab5c 	beq.w	8004a26 <_strtod_l+0x27e>
 800536e:	2b45      	cmp	r3, #69	; 0x45
 8005370:	f43f ab59 	beq.w	8004a26 <_strtod_l+0x27e>
 8005374:	2201      	movs	r2, #1
 8005376:	f7ff bb8d 	b.w	8004a94 <_strtod_l+0x2ec>
 800537a:	bf00      	nop
 800537c:	f3af 8000 	nop.w
 8005380:	ffc00000 	.word	0xffc00000
 8005384:	41dfffff 	.word	0x41dfffff
 8005388:	94a03595 	.word	0x94a03595
 800538c:	3fcfffff 	.word	0x3fcfffff

08005390 <strtod>:
 8005390:	460a      	mov	r2, r1
 8005392:	4601      	mov	r1, r0
 8005394:	4802      	ldr	r0, [pc, #8]	; (80053a0 <strtod+0x10>)
 8005396:	4b03      	ldr	r3, [pc, #12]	; (80053a4 <strtod+0x14>)
 8005398:	6800      	ldr	r0, [r0, #0]
 800539a:	f7ff ba05 	b.w	80047a8 <_strtod_l>
 800539e:	bf00      	nop
 80053a0:	200000ac 	.word	0x200000ac
 80053a4:	20000114 	.word	0x20000114

080053a8 <rshift>:
 80053a8:	6903      	ldr	r3, [r0, #16]
 80053aa:	e92d 43f0 	stmdb	sp!, {r4, r5, r6, r7, r8, r9, lr}
 80053ae:	ebb3 1f61 	cmp.w	r3, r1, asr #5
 80053b2:	f100 0414 	add.w	r4, r0, #20
 80053b6:	ea4f 1261 	mov.w	r2, r1, asr #5
 80053ba:	dd46      	ble.n	800544a <rshift+0xa2>
 80053bc:	f011 011f 	ands.w	r1, r1, #31
 80053c0:	eb04 0683 	add.w	r6, r4, r3, lsl #2
 80053c4:	eb04 0582 	add.w	r5, r4, r2, lsl #2
 80053c8:	d10c      	bne.n	80053e4 <rshift+0x3c>
 80053ca:	4629      	mov	r1, r5
 80053cc:	f100 0710 	add.w	r7, r0, #16
 80053d0:	42b1      	cmp	r1, r6
 80053d2:	d335      	bcc.n	8005440 <rshift+0x98>
 80053d4:	1a9b      	subs	r3, r3, r2
 80053d6:	009b      	lsls	r3, r3, #2
 80053d8:	1eea      	subs	r2, r5, #3
 80053da:	4296      	cmp	r6, r2
 80053dc:	bf38      	it	cc
 80053de:	2300      	movcc	r3, #0
 80053e0:	4423      	add	r3, r4
 80053e2:	e015      	b.n	8005410 <rshift+0x68>
 80053e4:	46a1      	mov	r9, r4
 80053e6:	f854 7022 	ldr.w	r7, [r4, r2, lsl #2]
 80053ea:	f1c1 0820 	rsb	r8, r1, #32
 80053ee:	40cf      	lsrs	r7, r1
 80053f0:	f105 0e04 	add.w	lr, r5, #4
 80053f4:	4576      	cmp	r6, lr
 80053f6:	46f4      	mov	ip, lr
 80053f8:	d816      	bhi.n	8005428 <rshift+0x80>
 80053fa:	1a9b      	subs	r3, r3, r2
 80053fc:	009a      	lsls	r2, r3, #2
 80053fe:	3a04      	subs	r2, #4
 8005400:	3501      	adds	r5, #1
 8005402:	42ae      	cmp	r6, r5
 8005404:	bf38      	it	cc
 8005406:	2200      	movcc	r2, #0
 8005408:	18a3      	adds	r3, r4, r2
 800540a:	50a7      	str	r7, [r4, r2]
 800540c:	b107      	cbz	r7, 8005410 <rshift+0x68>
 800540e:	3304      	adds	r3, #4
 8005410:	42a3      	cmp	r3, r4
 8005412:	eba3 0204 	sub.w	r2, r3, r4
 8005416:	bf08      	it	eq
 8005418:	2300      	moveq	r3, #0
 800541a:	ea4f 02a2 	mov.w	r2, r2, asr #2
 800541e:	6102      	str	r2, [r0, #16]
 8005420:	bf08      	it	eq
 8005422:	6143      	streq	r3, [r0, #20]
 8005424:	e8bd 83f0 	ldmia.w	sp!, {r4, r5, r6, r7, r8, r9, pc}
 8005428:	f8dc c000 	ldr.w	ip, [ip]
 800542c:	fa0c fc08 	lsl.w	ip, ip, r8
 8005430:	ea4c 0707 	orr.w	r7, ip, r7
 8005434:	f849 7b04 	str.w	r7, [r9], #4
 8005438:	f85e 7b04 	ldr.w	r7, [lr], #4
 800543c:	40cf      	lsrs	r7, r1
 800543e:	e7d9      	b.n	80053f4 <rshift+0x4c>
 8005440:	f851 cb04 	ldr.w	ip, [r1], #4
 8005444:	f847 cf04 	str.w	ip, [r7, #4]!
 8005448:	e7c2      	b.n	80053d0 <rshift+0x28>
 800544a:	4623      	mov	r3, r4
 800544c:	e7e0      	b.n	8005410 <rshift+0x68>

0800544e <__hexdig_fun>:
 800544e:	f1a0 0330 	sub.w	r3, r0, #48	; 0x30
 8005452:	2b09      	cmp	r3, #9
 8005454:	d802      	bhi.n	800545c <__hexdig_fun+0xe>
 8005456:	3820      	subs	r0, #32
 8005458:	b2c0      	uxtb	r0, r0
 800545a:	4770      	bx	lr
 800545c:	f1a0 0361 	sub.w	r3, r0, #97	; 0x61
 8005460:	2b05      	cmp	r3, #5
 8005462:	d801      	bhi.n	8005468 <__hexdig_fun+0x1a>
 8005464:	3847      	subs	r0, #71	; 0x47
 8005466:	e7f7      	b.n	8005458 <__hexdig_fun+0xa>
 8005468:	f1a0 0341 	sub.w	r3, r0, #65	; 0x41
 800546c:	2b05      	cmp	r3, #5
 800546e:	d801      	bhi.n	8005474 <__hexdig_fun+0x26>
 8005470:	3827      	subs	r0, #39	; 0x27
 8005472:	e7f1      	b.n	8005458 <__hexdig_fun+0xa>
 8005474:	2000      	movs	r0, #0
 8005476:	4770      	bx	lr

08005478 <__gethex>:
 8005478:	e92d 4ff0 	stmdb	sp!, {r4, r5, r6, r7, r8, r9, sl, fp, lr}
 800547c:	b08b      	sub	sp, #44	; 0x2c
 800547e:	9306      	str	r3, [sp, #24]
 8005480:	4bb9      	ldr	r3, [pc, #740]	; (8005768 <__gethex+0x2f0>)
 8005482:	9002      	str	r0, [sp, #8]
 8005484:	681b      	ldr	r3, [r3, #0]
 8005486:	468b      	mov	fp, r1
 8005488:	4618      	mov	r0, r3
 800548a:	4690      	mov	r8, r2
 800548c:	9303      	str	r3, [sp, #12]
 800548e:	f7fa fe5f 	bl	8000150 <strlen>
 8005492:	4682      	mov	sl, r0
 8005494:	9b03      	ldr	r3, [sp, #12]
 8005496:	f8db 2000 	ldr.w	r2, [fp]
 800549a:	4403      	add	r3, r0
 800549c:	f813 3c01 	ldrb.w	r3, [r3, #-1]
 80054a0:	9307      	str	r3, [sp, #28]
 80054a2:	1c93      	adds	r3, r2, #2
 80054a4:	f1c2 22ff 	rsb	r2, r2, #4278255360	; 0xff00ff00
 80054a8:	f502 027f 	add.w	r2, r2, #16711680	; 0xff0000
 80054ac:	32fe      	adds	r2, #254	; 0xfe
 80054ae:	18d1      	adds	r1, r2, r3
 80054b0:	461f      	mov	r7, r3
 80054b2:	f813 0b01 	ldrb.w	r0, [r3], #1
 80054b6:	9101      	str	r1, [sp, #4]
 80054b8:	2830      	cmp	r0, #48	; 0x30
 80054ba:	d0f8      	beq.n	80054ae <__gethex+0x36>
 80054bc:	f7ff ffc7 	bl	800544e <__hexdig_fun>
 80054c0:	4604      	mov	r4, r0
 80054c2:	2800      	cmp	r0, #0
 80054c4:	d13a      	bne.n	800553c <__gethex+0xc4>
 80054c6:	4652      	mov	r2, sl
 80054c8:	4638      	mov	r0, r7
 80054ca:	9903      	ldr	r1, [sp, #12]
 80054cc:	f001 f828 	bl	8006520 <strncmp>
 80054d0:	4605      	mov	r5, r0
 80054d2:	2800      	cmp	r0, #0
 80054d4:	d166      	bne.n	80055a4 <__gethex+0x12c>
 80054d6:	f817 000a 	ldrb.w	r0, [r7, sl]
 80054da:	eb07 060a 	add.w	r6, r7, sl
 80054de:	f7ff ffb6 	bl	800544e <__hexdig_fun>
 80054e2:	2800      	cmp	r0, #0
 80054e4:	d060      	beq.n	80055a8 <__gethex+0x130>
 80054e6:	4633      	mov	r3, r6
 80054e8:	7818      	ldrb	r0, [r3, #0]
 80054ea:	461f      	mov	r7, r3
 80054ec:	2830      	cmp	r0, #48	; 0x30
 80054ee:	f103 0301 	add.w	r3, r3, #1
 80054f2:	d0f9      	beq.n	80054e8 <__gethex+0x70>
 80054f4:	f7ff ffab 	bl	800544e <__hexdig_fun>
 80054f8:	2301      	movs	r3, #1
 80054fa:	fab0 f480 	clz	r4, r0
 80054fe:	4635      	mov	r5, r6
 8005500:	0964      	lsrs	r4, r4, #5
 8005502:	9301      	str	r3, [sp, #4]
 8005504:	463a      	mov	r2, r7
 8005506:	4616      	mov	r6, r2
 8005508:	7830      	ldrb	r0, [r6, #0]
 800550a:	3201      	adds	r2, #1
 800550c:	f7ff ff9f 	bl	800544e <__hexdig_fun>
 8005510:	2800      	cmp	r0, #0
 8005512:	d1f8      	bne.n	8005506 <__gethex+0x8e>
 8005514:	4652      	mov	r2, sl
 8005516:	4630      	mov	r0, r6
 8005518:	9903      	ldr	r1, [sp, #12]
 800551a:	f001 f801 	bl	8006520 <strncmp>
 800551e:	b980      	cbnz	r0, 8005542 <__gethex+0xca>
 8005520:	b94d      	cbnz	r5, 8005536 <__gethex+0xbe>
 8005522:	eb06 050a 	add.w	r5, r6, sl
 8005526:	462a      	mov	r2, r5
 8005528:	4616      	mov	r6, r2
 800552a:	7830      	ldrb	r0, [r6, #0]
 800552c:	3201      	adds	r2, #1
 800552e:	f7ff ff8e 	bl	800544e <__hexdig_fun>
 8005532:	2800      	cmp	r0, #0
 8005534:	d1f8      	bne.n	8005528 <__gethex+0xb0>
 8005536:	1bad      	subs	r5, r5, r6
 8005538:	00ad      	lsls	r5, r5, #2
 800553a:	e004      	b.n	8005546 <__gethex+0xce>
 800553c:	2400      	movs	r4, #0
 800553e:	4625      	mov	r5, r4
 8005540:	e7e0      	b.n	8005504 <__gethex+0x8c>
 8005542:	2d00      	cmp	r5, #0
 8005544:	d1f7      	bne.n	8005536 <__gethex+0xbe>
 8005546:	7833      	ldrb	r3, [r6, #0]
 8005548:	f003 03df 	and.w	r3, r3, #223	; 0xdf
 800554c:	2b50      	cmp	r3, #80	; 0x50
 800554e:	d139      	bne.n	80055c4 <__gethex+0x14c>
 8005550:	7873      	ldrb	r3, [r6, #1]
 8005552:	2b2b      	cmp	r3, #43	; 0x2b
 8005554:	d02a      	beq.n	80055ac <__gethex+0x134>
 8005556:	2b2d      	cmp	r3, #45	; 0x2d
 8005558:	d02c      	beq.n	80055b4 <__gethex+0x13c>
 800555a:	f04f 0900 	mov.w	r9, #0
 800555e:	1c71      	adds	r1, r6, #1
 8005560:	7808      	ldrb	r0, [r1, #0]
 8005562:	f7ff ff74 	bl	800544e <__hexdig_fun>
 8005566:	1e43      	subs	r3, r0, #1
 8005568:	b2db      	uxtb	r3, r3
 800556a:	2b18      	cmp	r3, #24
 800556c:	d82a      	bhi.n	80055c4 <__gethex+0x14c>
 800556e:	f1a0 0210 	sub.w	r2, r0, #16
 8005572:	f811 0f01 	ldrb.w	r0, [r1, #1]!
 8005576:	f7ff ff6a 	bl	800544e <__hexdig_fun>
 800557a:	1e43      	subs	r3, r0, #1
 800557c:	b2db      	uxtb	r3, r3
 800557e:	2b18      	cmp	r3, #24
 8005580:	d91b      	bls.n	80055ba <__gethex+0x142>
 8005582:	f1b9 0f00 	cmp.w	r9, #0
 8005586:	d000      	beq.n	800558a <__gethex+0x112>
 8005588:	4252      	negs	r2, r2
 800558a:	4415      	add	r5, r2
 800558c:	f8cb 1000 	str.w	r1, [fp]
 8005590:	b1d4      	cbz	r4, 80055c8 <__gethex+0x150>
 8005592:	9b01      	ldr	r3, [sp, #4]
 8005594:	2b00      	cmp	r3, #0
 8005596:	bf14      	ite	ne
 8005598:	2700      	movne	r7, #0
 800559a:	2706      	moveq	r7, #6
 800559c:	4638      	mov	r0, r7
 800559e:	b00b      	add	sp, #44	; 0x2c
 80055a0:	e8bd 8ff0 	ldmia.w	sp!, {r4, r5, r6, r7, r8, r9, sl, fp, pc}
 80055a4:	463e      	mov	r6, r7
 80055a6:	4625      	mov	r5, r4
 80055a8:	2401      	movs	r4, #1
 80055aa:	e7cc      	b.n	8005546 <__gethex+0xce>
 80055ac:	f04f 0900 	mov.w	r9, #0
 80055b0:	1cb1      	adds	r1, r6, #2
 80055b2:	e7d5      	b.n	8005560 <__gethex+0xe8>
 80055b4:	f04f 0901 	mov.w	r9, #1
 80055b8:	e7fa      	b.n	80055b0 <__gethex+0x138>
 80055ba:	230a      	movs	r3, #10
 80055bc:	fb03 0202 	mla	r2, r3, r2, r0
 80055c0:	3a10      	subs	r2, #16
 80055c2:	e7d6      	b.n	8005572 <__gethex+0xfa>
 80055c4:	4631      	mov	r1, r6
 80055c6:	e7e1      	b.n	800558c <__gethex+0x114>
 80055c8:	4621      	mov	r1, r4
 80055ca:	1bf3      	subs	r3, r6, r7
 80055cc:	3b01      	subs	r3, #1
 80055ce:	2b07      	cmp	r3, #7
 80055d0:	dc0a      	bgt.n	80055e8 <__gethex+0x170>
 80055d2:	9802      	ldr	r0, [sp, #8]
 80055d4:	f000 fa6e 	bl	8005ab4 <_Balloc>
 80055d8:	4604      	mov	r4, r0
 80055da:	b940      	cbnz	r0, 80055ee <__gethex+0x176>
 80055dc:	4602      	mov	r2, r0
 80055de:	21de      	movs	r1, #222	; 0xde
 80055e0:	4b62      	ldr	r3, [pc, #392]	; (800576c <__gethex+0x2f4>)
 80055e2:	4863      	ldr	r0, [pc, #396]	; (8005770 <__gethex+0x2f8>)
 80055e4:	f000 ffbc 	bl	8006560 <__assert_func>
 80055e8:	3101      	adds	r1, #1
 80055ea:	105b      	asrs	r3, r3, #1
 80055ec:	e7ef      	b.n	80055ce <__gethex+0x156>
 80055ee:	f04f 0b00 	mov.w	fp, #0
 80055f2:	f100 0914 	add.w	r9, r0, #20
 80055f6:	f1ca 0301 	rsb	r3, sl, #1
 80055fa:	f8cd 9010 	str.w	r9, [sp, #16]
 80055fe:	f8cd b004 	str.w	fp, [sp, #4]
 8005602:	9308      	str	r3, [sp, #32]
 8005604:	42b7      	cmp	r7, r6
 8005606:	d33f      	bcc.n	8005688 <__gethex+0x210>
 8005608:	9f04      	ldr	r7, [sp, #16]
 800560a:	9b01      	ldr	r3, [sp, #4]
 800560c:	f847 3b04 	str.w	r3, [r7], #4
 8005610:	eba7 0709 	sub.w	r7, r7, r9
 8005614:	10bf      	asrs	r7, r7, #2
 8005616:	6127      	str	r7, [r4, #16]
 8005618:	4618      	mov	r0, r3
 800561a:	f000 fb41 	bl	8005ca0 <__hi0bits>
 800561e:	017f      	lsls	r7, r7, #5
 8005620:	f8d8 6000 	ldr.w	r6, [r8]
 8005624:	1a3f      	subs	r7, r7, r0
 8005626:	42b7      	cmp	r7, r6
 8005628:	dd62      	ble.n	80056f0 <__gethex+0x278>
 800562a:	1bbf      	subs	r7, r7, r6
 800562c:	4639      	mov	r1, r7
 800562e:	4620      	mov	r0, r4
 8005630:	f000 fed7 	bl	80063e2 <__any_on>
 8005634:	4682      	mov	sl, r0
 8005636:	b1a8      	cbz	r0, 8005664 <__gethex+0x1ec>
 8005638:	f04f 0a01 	mov.w	sl, #1
 800563c:	1e7b      	subs	r3, r7, #1
 800563e:	1159      	asrs	r1, r3, #5
 8005640:	f859 1021 	ldr.w	r1, [r9, r1, lsl #2]
 8005644:	f003 021f 	and.w	r2, r3, #31
 8005648:	fa0a f202 	lsl.w	r2, sl, r2
 800564c:	420a      	tst	r2, r1
 800564e:	d009      	beq.n	8005664 <__gethex+0x1ec>
 8005650:	4553      	cmp	r3, sl
 8005652:	dd05      	ble.n	8005660 <__gethex+0x1e8>
 8005654:	4620      	mov	r0, r4
 8005656:	1eb9      	subs	r1, r7, #2
 8005658:	f000 fec3 	bl	80063e2 <__any_on>
 800565c:	2800      	cmp	r0, #0
 800565e:	d144      	bne.n	80056ea <__gethex+0x272>
 8005660:	f04f 0a02 	mov.w	sl, #2
 8005664:	4639      	mov	r1, r7
 8005666:	4620      	mov	r0, r4
 8005668:	f7ff fe9e 	bl	80053a8 <rshift>
 800566c:	443d      	add	r5, r7
 800566e:	f8d8 3008 	ldr.w	r3, [r8, #8]
 8005672:	42ab      	cmp	r3, r5
 8005674:	da4a      	bge.n	800570c <__gethex+0x294>
 8005676:	4621      	mov	r1, r4
 8005678:	9802      	ldr	r0, [sp, #8]
 800567a:	f000 fa5b 	bl	8005b34 <_Bfree>
 800567e:	2300      	movs	r3, #0
 8005680:	9a14      	ldr	r2, [sp, #80]	; 0x50
 8005682:	27a3      	movs	r7, #163	; 0xa3
 8005684:	6013      	str	r3, [r2, #0]
 8005686:	e789      	b.n	800559c <__gethex+0x124>
 8005688:	1e73      	subs	r3, r6, #1
 800568a:	9a07      	ldr	r2, [sp, #28]
 800568c:	9305      	str	r3, [sp, #20]
 800568e:	f816 3c01 	ldrb.w	r3, [r6, #-1]
 8005692:	4293      	cmp	r3, r2
 8005694:	d019      	beq.n	80056ca <__gethex+0x252>
 8005696:	f1bb 0f20 	cmp.w	fp, #32
 800569a:	d107      	bne.n	80056ac <__gethex+0x234>
 800569c:	9b04      	ldr	r3, [sp, #16]
 800569e:	9a01      	ldr	r2, [sp, #4]
 80056a0:	f843 2b04 	str.w	r2, [r3], #4
 80056a4:	9304      	str	r3, [sp, #16]
 80056a6:	2300      	movs	r3, #0
 80056a8:	469b      	mov	fp, r3
 80056aa:	9301      	str	r3, [sp, #4]
 80056ac:	f816 0c01 	ldrb.w	r0, [r6, #-1]
 80056b0:	f7ff fecd 	bl	800544e <__hexdig_fun>
 80056b4:	9b01      	ldr	r3, [sp, #4]
 80056b6:	f000 000f 	and.w	r0, r0, #15
 80056ba:	fa00 f00b 	lsl.w	r0, r0, fp
 80056be:	4303      	orrs	r3, r0
 80056c0:	9301      	str	r3, [sp, #4]
 80056c2:	f10b 0b04 	add.w	fp, fp, #4
 80056c6:	9b05      	ldr	r3, [sp, #20]
 80056c8:	e00d      	b.n	80056e6 <__gethex+0x26e>
 80056ca:	9b05      	ldr	r3, [sp, #20]
 80056cc:	9a08      	ldr	r2, [sp, #32]
 80056ce:	4413      	add	r3, r2
 80056d0:	42bb      	cmp	r3, r7
 80056d2:	d3e0      	bcc.n	8005696 <__gethex+0x21e>
 80056d4:	4618      	mov	r0, r3
 80056d6:	4652      	mov	r2, sl
 80056d8:	9903      	ldr	r1, [sp, #12]
 80056da:	9309      	str	r3, [sp, #36]	; 0x24
 80056dc:	f000 ff20 	bl	8006520 <strncmp>
 80056e0:	9b09      	ldr	r3, [sp, #36]	; 0x24
 80056e2:	2800      	cmp	r0, #0
 80056e4:	d1d7      	bne.n	8005696 <__gethex+0x21e>
 80056e6:	461e      	mov	r6, r3
 80056e8:	e78c      	b.n	8005604 <__gethex+0x18c>
 80056ea:	f04f 0a03 	mov.w	sl, #3
 80056ee:	e7b9      	b.n	8005664 <__gethex+0x1ec>
 80056f0:	da09      	bge.n	8005706 <__gethex+0x28e>
 80056f2:	1bf7      	subs	r7, r6, r7
 80056f4:	4621      	mov	r1, r4
 80056f6:	463a      	mov	r2, r7
 80056f8:	9802      	ldr	r0, [sp, #8]
 80056fa:	f000 fc33 	bl	8005f64 <__lshift>
 80056fe:	4604      	mov	r4, r0
 8005700:	1bed      	subs	r5, r5, r7
 8005702:	f100 0914 	add.w	r9, r0, #20
 8005706:	f04f 0a00 	mov.w	sl, #0
 800570a:	e7b0      	b.n	800566e <__gethex+0x1f6>
 800570c:	f8d8 0004 	ldr.w	r0, [r8, #4]
 8005710:	42a8      	cmp	r0, r5
 8005712:	dd71      	ble.n	80057f8 <__gethex+0x380>
 8005714:	1b45      	subs	r5, r0, r5
 8005716:	42ae      	cmp	r6, r5
 8005718:	dc34      	bgt.n	8005784 <__gethex+0x30c>
 800571a:	f8d8 300c 	ldr.w	r3, [r8, #12]
 800571e:	2b02      	cmp	r3, #2
 8005720:	d028      	beq.n	8005774 <__gethex+0x2fc>
 8005722:	2b03      	cmp	r3, #3
 8005724:	d02a      	beq.n	800577c <__gethex+0x304>
 8005726:	2b01      	cmp	r3, #1
 8005728:	d115      	bne.n	8005756 <__gethex+0x2de>
 800572a:	42ae      	cmp	r6, r5
 800572c:	d113      	bne.n	8005756 <__gethex+0x2de>
 800572e:	2e01      	cmp	r6, #1
 8005730:	d10b      	bne.n	800574a <__gethex+0x2d2>
 8005732:	f8d8 3004 	ldr.w	r3, [r8, #4]
 8005736:	9a06      	ldr	r2, [sp, #24]
 8005738:	2762      	movs	r7, #98	; 0x62
 800573a:	6013      	str	r3, [r2, #0]
 800573c:	2301      	movs	r3, #1
 800573e:	6123      	str	r3, [r4, #16]
 8005740:	f8c9 3000 	str.w	r3, [r9]
 8005744:	9b14      	ldr	r3, [sp, #80]	; 0x50
 8005746:	601c      	str	r4, [r3, #0]
 8005748:	e728      	b.n	800559c <__gethex+0x124>
 800574a:	4620      	mov	r0, r4
 800574c:	1e71      	subs	r1, r6, #1
 800574e:	f000 fe48 	bl	80063e2 <__any_on>
 8005752:	2800      	cmp	r0, #0
 8005754:	d1ed      	bne.n	8005732 <__gethex+0x2ba>
 8005756:	4621      	mov	r1, r4
 8005758:	9802      	ldr	r0, [sp, #8]
 800575a:	f000 f9eb 	bl	8005b34 <_Bfree>
 800575e:	2300      	movs	r3, #0
 8005760:	9a14      	ldr	r2, [sp, #80]	; 0x50
 8005762:	2750      	movs	r7, #80	; 0x50
 8005764:	6013      	str	r3, [r2, #0]
 8005766:	e719      	b.n	800559c <__gethex+0x124>
 8005768:	08008d04 	.word	0x08008d04
 800576c:	08008c88 	.word	0x08008c88
 8005770:	08008c99 	.word	0x08008c99
 8005774:	9b15      	ldr	r3, [sp, #84]	; 0x54
 8005776:	2b00      	cmp	r3, #0
 8005778:	d1ed      	bne.n	8005756 <__gethex+0x2de>
 800577a:	e7da      	b.n	8005732 <__gethex+0x2ba>
 800577c:	9b15      	ldr	r3, [sp, #84]	; 0x54
 800577e:	2b00      	cmp	r3, #0
 8005780:	d1d7      	bne.n	8005732 <__gethex+0x2ba>
 8005782:	e7e8      	b.n	8005756 <__gethex+0x2de>
 8005784:	1e6f      	subs	r7, r5, #1
 8005786:	f1ba 0f00 	cmp.w	sl, #0
 800578a:	d132      	bne.n	80057f2 <__gethex+0x37a>
 800578c:	b127      	cbz	r7, 8005798 <__gethex+0x320>
 800578e:	4639      	mov	r1, r7
 8005790:	4620      	mov	r0, r4
 8005792:	f000 fe26 	bl	80063e2 <__any_on>
 8005796:	4682      	mov	sl, r0
 8005798:	2101      	movs	r1, #1
 800579a:	117b      	asrs	r3, r7, #5
 800579c:	f859 3023 	ldr.w	r3, [r9, r3, lsl #2]
 80057a0:	f007 071f 	and.w	r7, r7, #31
 80057a4:	fa01 f707 	lsl.w	r7, r1, r7
 80057a8:	421f      	tst	r7, r3
 80057aa:	f04f 0702 	mov.w	r7, #2
 80057ae:	4629      	mov	r1, r5
 80057b0:	4620      	mov	r0, r4
 80057b2:	bf18      	it	ne
 80057b4:	f04a 0a02 	orrne.w	sl, sl, #2
 80057b8:	1b76      	subs	r6, r6, r5
 80057ba:	f7ff fdf5 	bl	80053a8 <rshift>
 80057be:	f8d8 5004 	ldr.w	r5, [r8, #4]
 80057c2:	f1ba 0f00 	cmp.w	sl, #0
 80057c6:	d048      	beq.n	800585a <__gethex+0x3e2>
 80057c8:	f8d8 300c 	ldr.w	r3, [r8, #12]
 80057cc:	2b02      	cmp	r3, #2
 80057ce:	d015      	beq.n	80057fc <__gethex+0x384>
 80057d0:	2b03      	cmp	r3, #3
 80057d2:	d017      	beq.n	8005804 <__gethex+0x38c>
 80057d4:	2b01      	cmp	r3, #1
 80057d6:	d109      	bne.n	80057ec <__gethex+0x374>
 80057d8:	f01a 0f02 	tst.w	sl, #2
 80057dc:	d006      	beq.n	80057ec <__gethex+0x374>
 80057de:	f8d9 0000 	ldr.w	r0, [r9]
 80057e2:	ea4a 0a00 	orr.w	sl, sl, r0
 80057e6:	f01a 0f01 	tst.w	sl, #1
 80057ea:	d10e      	bne.n	800580a <__gethex+0x392>
 80057ec:	f047 0710 	orr.w	r7, r7, #16
 80057f0:	e033      	b.n	800585a <__gethex+0x3e2>
 80057f2:	f04f 0a01 	mov.w	sl, #1
 80057f6:	e7cf      	b.n	8005798 <__gethex+0x320>
 80057f8:	2701      	movs	r7, #1
 80057fa:	e7e2      	b.n	80057c2 <__gethex+0x34a>
 80057fc:	9b15      	ldr	r3, [sp, #84]	; 0x54
 80057fe:	f1c3 0301 	rsb	r3, r3, #1
 8005802:	9315      	str	r3, [sp, #84]	; 0x54
 8005804:	9b15      	ldr	r3, [sp, #84]	; 0x54
 8005806:	2b00      	cmp	r3, #0
 8005808:	d0f0      	beq.n	80057ec <__gethex+0x374>
 800580a:	f04f 0c00 	mov.w	ip, #0
 800580e:	f8d4 b010 	ldr.w	fp, [r4, #16]
 8005812:	f104 0314 	add.w	r3, r4, #20
 8005816:	ea4f 0a8b 	mov.w	sl, fp, lsl #2
 800581a:	eb03 018b 	add.w	r1, r3, fp, lsl #2
 800581e:	4618      	mov	r0, r3
 8005820:	f853 2b04 	ldr.w	r2, [r3], #4
 8005824:	f1b2 3fff 	cmp.w	r2, #4294967295	; 0xffffffff
 8005828:	d01c      	beq.n	8005864 <__gethex+0x3ec>
 800582a:	3201      	adds	r2, #1
 800582c:	6002      	str	r2, [r0, #0]
 800582e:	2f02      	cmp	r7, #2
 8005830:	f104 0314 	add.w	r3, r4, #20
 8005834:	d13d      	bne.n	80058b2 <__gethex+0x43a>
 8005836:	f8d8 2000 	ldr.w	r2, [r8]
 800583a:	3a01      	subs	r2, #1
 800583c:	42b2      	cmp	r2, r6
 800583e:	d10a      	bne.n	8005856 <__gethex+0x3de>
 8005840:	2201      	movs	r2, #1
 8005842:	1171      	asrs	r1, r6, #5
 8005844:	f853 3021 	ldr.w	r3, [r3, r1, lsl #2]
 8005848:	f006 061f 	and.w	r6, r6, #31
 800584c:	fa02 f606 	lsl.w	r6, r2, r6
 8005850:	421e      	tst	r6, r3
 8005852:	bf18      	it	ne
 8005854:	4617      	movne	r7, r2
 8005856:	f047 0720 	orr.w	r7, r7, #32
 800585a:	9b14      	ldr	r3, [sp, #80]	; 0x50
 800585c:	601c      	str	r4, [r3, #0]
 800585e:	9b06      	ldr	r3, [sp, #24]
 8005860:	601d      	str	r5, [r3, #0]
 8005862:	e69b      	b.n	800559c <__gethex+0x124>
 8005864:	4299      	cmp	r1, r3
 8005866:	f843 cc04 	str.w	ip, [r3, #-4]
 800586a:	d8d8      	bhi.n	800581e <__gethex+0x3a6>
 800586c:	68a3      	ldr	r3, [r4, #8]
 800586e:	459b      	cmp	fp, r3
 8005870:	db17      	blt.n	80058a2 <__gethex+0x42a>
 8005872:	6861      	ldr	r1, [r4, #4]
 8005874:	9802      	ldr	r0, [sp, #8]
 8005876:	3101      	adds	r1, #1
 8005878:	f000 f91c 	bl	8005ab4 <_Balloc>
 800587c:	4681      	mov	r9, r0
 800587e:	b918      	cbnz	r0, 8005888 <__gethex+0x410>
 8005880:	4602      	mov	r2, r0
 8005882:	2184      	movs	r1, #132	; 0x84
 8005884:	4b19      	ldr	r3, [pc, #100]	; (80058ec <__gethex+0x474>)
 8005886:	e6ac      	b.n	80055e2 <__gethex+0x16a>
 8005888:	6922      	ldr	r2, [r4, #16]
 800588a:	f104 010c 	add.w	r1, r4, #12
 800588e:	3202      	adds	r2, #2
 8005890:	0092      	lsls	r2, r2, #2
 8005892:	300c      	adds	r0, #12
 8005894:	f000 f900 	bl	8005a98 <memcpy>
 8005898:	4621      	mov	r1, r4
 800589a:	9802      	ldr	r0, [sp, #8]
 800589c:	f000 f94a 	bl	8005b34 <_Bfree>
 80058a0:	464c      	mov	r4, r9
 80058a2:	6923      	ldr	r3, [r4, #16]
 80058a4:	1c5a      	adds	r2, r3, #1
 80058a6:	6122      	str	r2, [r4, #16]
 80058a8:	2201      	movs	r2, #1
 80058aa:	eb04 0383 	add.w	r3, r4, r3, lsl #2
 80058ae:	615a      	str	r2, [r3, #20]
 80058b0:	e7bd      	b.n	800582e <__gethex+0x3b6>
 80058b2:	6922      	ldr	r2, [r4, #16]
 80058b4:	455a      	cmp	r2, fp
 80058b6:	dd0b      	ble.n	80058d0 <__gethex+0x458>
 80058b8:	2101      	movs	r1, #1
 80058ba:	4620      	mov	r0, r4
 80058bc:	f7ff fd74 	bl	80053a8 <rshift>
 80058c0:	f8d8 3008 	ldr.w	r3, [r8, #8]
 80058c4:	3501      	adds	r5, #1
 80058c6:	42ab      	cmp	r3, r5
 80058c8:	f6ff aed5 	blt.w	8005676 <__gethex+0x1fe>
 80058cc:	2701      	movs	r7, #1
 80058ce:	e7c2      	b.n	8005856 <__gethex+0x3de>
 80058d0:	f016 061f 	ands.w	r6, r6, #31
 80058d4:	d0fa      	beq.n	80058cc <__gethex+0x454>
 80058d6:	449a      	add	sl, r3
 80058d8:	f85a 0c04 	ldr.w	r0, [sl, #-4]
 80058dc:	f000 f9e0 	bl	8005ca0 <__hi0bits>
 80058e0:	f1c6 0620 	rsb	r6, r6, #32
 80058e4:	42b0      	cmp	r0, r6
 80058e6:	dbe7      	blt.n	80058b8 <__gethex+0x440>
 80058e8:	e7f0      	b.n	80058cc <__gethex+0x454>
 80058ea:	bf00      	nop
 80058ec:	08008c88 	.word	0x08008c88

080058f0 <L_shift>:
 80058f0:	f1c2 0208 	rsb	r2, r2, #8
 80058f4:	0092      	lsls	r2, r2, #2
 80058f6:	b570      	push	{r4, r5, r6, lr}
 80058f8:	f1c2 0620 	rsb	r6, r2, #32
 80058fc:	6843      	ldr	r3, [r0, #4]
 80058fe:	6804      	ldr	r4, [r0, #0]
 8005900:	fa03 f506 	lsl.w	r5, r3, r6
 8005904:	432c      	orrs	r4, r5
 8005906:	40d3      	lsrs	r3, r2
 8005908:	6004      	str	r4, [r0, #0]
 800590a:	f840 3f04 	str.w	r3, [r0, #4]!
 800590e:	4288      	cmp	r0, r1
 8005910:	d3f4      	bcc.n	80058fc <L_shift+0xc>
 8005912:	bd70      	pop	{r4, r5, r6, pc}

08005914 <__match>:
 8005914:	b530      	push	{r4, r5, lr}
 8005916:	6803      	ldr	r3, [r0, #0]
 8005918:	3301      	adds	r3, #1
 800591a:	f811 4b01 	ldrb.w	r4, [r1], #1
 800591e:	b914      	cbnz	r4, 8005926 <__match+0x12>
 8005920:	6003      	str	r3, [r0, #0]
 8005922:	2001      	movs	r0, #1
 8005924:	bd30      	pop	{r4, r5, pc}
 8005926:	f813 2b01 	ldrb.w	r2, [r3], #1
 800592a:	f1a2 0541 	sub.w	r5, r2, #65	; 0x41
 800592e:	2d19      	cmp	r5, #25
 8005930:	bf98      	it	ls
 8005932:	3220      	addls	r2, #32
 8005934:	42a2      	cmp	r2, r4
 8005936:	d0f0      	beq.n	800591a <__match+0x6>
 8005938:	2000      	movs	r0, #0
 800593a:	e7f3      	b.n	8005924 <__match+0x10>

0800593c <__hexnan>:
 800593c:	e92d 4ff0 	stmdb	sp!, {r4, r5, r6, r7, r8, r9, sl, fp, lr}
 8005940:	2500      	movs	r5, #0
 8005942:	680b      	ldr	r3, [r1, #0]
 8005944:	4682      	mov	sl, r0
 8005946:	115e      	asrs	r6, r3, #5
 8005948:	eb02 0686 	add.w	r6, r2, r6, lsl #2
 800594c:	f013 031f 	ands.w	r3, r3, #31
 8005950:	bf18      	it	ne
 8005952:	3604      	addne	r6, #4
 8005954:	1f37      	subs	r7, r6, #4
 8005956:	4690      	mov	r8, r2
 8005958:	46b9      	mov	r9, r7
 800595a:	463c      	mov	r4, r7
 800595c:	46ab      	mov	fp, r5
 800595e:	b087      	sub	sp, #28
 8005960:	6801      	ldr	r1, [r0, #0]
 8005962:	9301      	str	r3, [sp, #4]
 8005964:	f846 5c04 	str.w	r5, [r6, #-4]
 8005968:	9502      	str	r5, [sp, #8]
 800596a:	784a      	ldrb	r2, [r1, #1]
 800596c:	1c4b      	adds	r3, r1, #1
 800596e:	9303      	str	r3, [sp, #12]
 8005970:	b342      	cbz	r2, 80059c4 <__hexnan+0x88>
 8005972:	4610      	mov	r0, r2
 8005974:	9105      	str	r1, [sp, #20]
 8005976:	9204      	str	r2, [sp, #16]
 8005978:	f7ff fd69 	bl	800544e <__hexdig_fun>
 800597c:	2800      	cmp	r0, #0
 800597e:	d14f      	bne.n	8005a20 <__hexnan+0xe4>
 8005980:	9a04      	ldr	r2, [sp, #16]
 8005982:	9905      	ldr	r1, [sp, #20]
 8005984:	2a20      	cmp	r2, #32
 8005986:	d818      	bhi.n	80059ba <__hexnan+0x7e>
 8005988:	9b02      	ldr	r3, [sp, #8]
 800598a:	459b      	cmp	fp, r3
 800598c:	dd13      	ble.n	80059b6 <__hexnan+0x7a>
 800598e:	454c      	cmp	r4, r9
 8005990:	d206      	bcs.n	80059a0 <__hexnan+0x64>
 8005992:	2d07      	cmp	r5, #7
 8005994:	dc04      	bgt.n	80059a0 <__hexnan+0x64>
 8005996:	462a      	mov	r2, r5
 8005998:	4649      	mov	r1, r9
 800599a:	4620      	mov	r0, r4
 800599c:	f7ff ffa8 	bl	80058f0 <L_shift>
 80059a0:	4544      	cmp	r4, r8
 80059a2:	d950      	bls.n	8005a46 <__hexnan+0x10a>
 80059a4:	2300      	movs	r3, #0
 80059a6:	f1a4 0904 	sub.w	r9, r4, #4
 80059aa:	f844 3c04 	str.w	r3, [r4, #-4]
 80059ae:	461d      	mov	r5, r3
 80059b0:	464c      	mov	r4, r9
 80059b2:	f8cd b008 	str.w	fp, [sp, #8]
 80059b6:	9903      	ldr	r1, [sp, #12]
 80059b8:	e7d7      	b.n	800596a <__hexnan+0x2e>
 80059ba:	2a29      	cmp	r2, #41	; 0x29
 80059bc:	d156      	bne.n	8005a6c <__hexnan+0x130>
 80059be:	3102      	adds	r1, #2
 80059c0:	f8ca 1000 	str.w	r1, [sl]
 80059c4:	f1bb 0f00 	cmp.w	fp, #0
 80059c8:	d050      	beq.n	8005a6c <__hexnan+0x130>
 80059ca:	454c      	cmp	r4, r9
 80059cc:	d206      	bcs.n	80059dc <__hexnan+0xa0>
 80059ce:	2d07      	cmp	r5, #7
 80059d0:	dc04      	bgt.n	80059dc <__hexnan+0xa0>
 80059d2:	462a      	mov	r2, r5
 80059d4:	4649      	mov	r1, r9
 80059d6:	4620      	mov	r0, r4
 80059d8:	f7ff ff8a 	bl	80058f0 <L_shift>
 80059dc:	4544      	cmp	r4, r8
 80059de:	d934      	bls.n	8005a4a <__hexnan+0x10e>
 80059e0:	4623      	mov	r3, r4
 80059e2:	f1a8 0204 	sub.w	r2, r8, #4
 80059e6:	f853 1b04 	ldr.w	r1, [r3], #4
 80059ea:	429f      	cmp	r7, r3
 80059ec:	f842 1f04 	str.w	r1, [r2, #4]!
 80059f0:	d2f9      	bcs.n	80059e6 <__hexnan+0xaa>
 80059f2:	1b3b      	subs	r3, r7, r4
 80059f4:	f023 0303 	bic.w	r3, r3, #3
 80059f8:	3304      	adds	r3, #4
 80059fa:	3401      	adds	r4, #1
 80059fc:	3e03      	subs	r6, #3
 80059fe:	42b4      	cmp	r4, r6
 8005a00:	bf88      	it	hi
 8005a02:	2304      	movhi	r3, #4
 8005a04:	2200      	movs	r2, #0
 8005a06:	4443      	add	r3, r8
 8005a08:	f843 2b04 	str.w	r2, [r3], #4
 8005a0c:	429f      	cmp	r7, r3
 8005a0e:	d2fb      	bcs.n	8005a08 <__hexnan+0xcc>
 8005a10:	683b      	ldr	r3, [r7, #0]
 8005a12:	b91b      	cbnz	r3, 8005a1c <__hexnan+0xe0>
 8005a14:	4547      	cmp	r7, r8
 8005a16:	d127      	bne.n	8005a68 <__hexnan+0x12c>
 8005a18:	2301      	movs	r3, #1
 8005a1a:	603b      	str	r3, [r7, #0]
 8005a1c:	2005      	movs	r0, #5
 8005a1e:	e026      	b.n	8005a6e <__hexnan+0x132>
 8005a20:	3501      	adds	r5, #1
 8005a22:	2d08      	cmp	r5, #8
 8005a24:	f10b 0b01 	add.w	fp, fp, #1
 8005a28:	dd06      	ble.n	8005a38 <__hexnan+0xfc>
 8005a2a:	4544      	cmp	r4, r8
 8005a2c:	d9c3      	bls.n	80059b6 <__hexnan+0x7a>
 8005a2e:	2300      	movs	r3, #0
 8005a30:	2501      	movs	r5, #1
 8005a32:	f844 3c04 	str.w	r3, [r4, #-4]
 8005a36:	3c04      	subs	r4, #4
 8005a38:	6822      	ldr	r2, [r4, #0]
 8005a3a:	f000 000f 	and.w	r0, r0, #15
 8005a3e:	ea40 1202 	orr.w	r2, r0, r2, lsl #4
 8005a42:	6022      	str	r2, [r4, #0]
 8005a44:	e7b7      	b.n	80059b6 <__hexnan+0x7a>
 8005a46:	2508      	movs	r5, #8
 8005a48:	e7b5      	b.n	80059b6 <__hexnan+0x7a>
 8005a4a:	9b01      	ldr	r3, [sp, #4]
 8005a4c:	2b00      	cmp	r3, #0
 8005a4e:	d0df      	beq.n	8005a10 <__hexnan+0xd4>
 8005a50:	f04f 32ff 	mov.w	r2, #4294967295	; 0xffffffff
 8005a54:	f1c3 0320 	rsb	r3, r3, #32
 8005a58:	fa22 f303 	lsr.w	r3, r2, r3
 8005a5c:	f856 2c04 	ldr.w	r2, [r6, #-4]
 8005a60:	401a      	ands	r2, r3
 8005a62:	f846 2c04 	str.w	r2, [r6, #-4]
 8005a66:	e7d3      	b.n	8005a10 <__hexnan+0xd4>
 8005a68:	3f04      	subs	r7, #4
 8005a6a:	e7d1      	b.n	8005a10 <__hexnan+0xd4>
 8005a6c:	2004      	movs	r0, #4
 8005a6e:	b007      	add	sp, #28
 8005a70:	e8bd 8ff0 	ldmia.w	sp!, {r4, r5, r6, r7, r8, r9, sl, fp, pc}

08005a74 <__ascii_mbtowc>:
 8005a74:	b082      	sub	sp, #8
 8005a76:	b901      	cbnz	r1, 8005a7a <__ascii_mbtowc+0x6>
 8005a78:	a901      	add	r1, sp, #4
 8005a7a:	b142      	cbz	r2, 8005a8e <__ascii_mbtowc+0x1a>
 8005a7c:	b14b      	cbz	r3, 8005a92 <__ascii_mbtowc+0x1e>
 8005a7e:	7813      	ldrb	r3, [r2, #0]
 8005a80:	600b      	str	r3, [r1, #0]
 8005a82:	7812      	ldrb	r2, [r2, #0]
 8005a84:	1e10      	subs	r0, r2, #0
 8005a86:	bf18      	it	ne
 8005a88:	2001      	movne	r0, #1
 8005a8a:	b002      	add	sp, #8
 8005a8c:	4770      	bx	lr
 8005a8e:	4610      	mov	r0, r2
 8005a90:	e7fb      	b.n	8005a8a <__ascii_mbtowc+0x16>
 8005a92:	f06f 0001 	mvn.w	r0, #1
 8005a96:	e7f8      	b.n	8005a8a <__ascii_mbtowc+0x16>

08005a98 <memcpy>:
 8005a98:	440a      	add	r2, r1
 8005a9a:	4291      	cmp	r1, r2
 8005a9c:	f100 33ff 	add.w	r3, r0, #4294967295	; 0xffffffff
 8005aa0:	d100      	bne.n	8005aa4 <memcpy+0xc>
 8005aa2:	4770      	bx	lr
 8005aa4:	b510      	push	{r4, lr}
 8005aa6:	f811 4b01 	ldrb.w	r4, [r1], #1
 8005aaa:	4291      	cmp	r1, r2
 8005aac:	f803 4f01 	strb.w	r4, [r3, #1]!
 8005ab0:	d1f9      	bne.n	8005aa6 <memcpy+0xe>
 8005ab2:	bd10      	pop	{r4, pc}

08005ab4 <_Balloc>:
 8005ab4:	b570      	push	{r4, r5, r6, lr}
 8005ab6:	6a46      	ldr	r6, [r0, #36]	; 0x24
 8005ab8:	4604      	mov	r4, r0
 8005aba:	460d      	mov	r5, r1
 8005abc:	b976      	cbnz	r6, 8005adc <_Balloc+0x28>
 8005abe:	2010      	movs	r0, #16
 8005ac0:	f000 fd7e 	bl	80065c0 <malloc>
 8005ac4:	4602      	mov	r2, r0
 8005ac6:	6260      	str	r0, [r4, #36]	; 0x24
 8005ac8:	b920      	cbnz	r0, 8005ad4 <_Balloc+0x20>
 8005aca:	2166      	movs	r1, #102	; 0x66
 8005acc:	4b17      	ldr	r3, [pc, #92]	; (8005b2c <_Balloc+0x78>)
 8005ace:	4818      	ldr	r0, [pc, #96]	; (8005b30 <_Balloc+0x7c>)
 8005ad0:	f000 fd46 	bl	8006560 <__assert_func>
 8005ad4:	e9c0 6601 	strd	r6, r6, [r0, #4]
 8005ad8:	6006      	str	r6, [r0, #0]
 8005ada:	60c6      	str	r6, [r0, #12]
 8005adc:	6a66      	ldr	r6, [r4, #36]	; 0x24
 8005ade:	68f3      	ldr	r3, [r6, #12]
 8005ae0:	b183      	cbz	r3, 8005b04 <_Balloc+0x50>
 8005ae2:	6a63      	ldr	r3, [r4, #36]	; 0x24
 8005ae4:	68db      	ldr	r3, [r3, #12]
 8005ae6:	f853 0025 	ldr.w	r0, [r3, r5, lsl #2]
 8005aea:	b9b8      	cbnz	r0, 8005b1c <_Balloc+0x68>
 8005aec:	2101      	movs	r1, #1
 8005aee:	fa01 f605 	lsl.w	r6, r1, r5
 8005af2:	1d72      	adds	r2, r6, #5
 8005af4:	4620      	mov	r0, r4
 8005af6:	0092      	lsls	r2, r2, #2
 8005af8:	f000 fc94 	bl	8006424 <_calloc_r>
 8005afc:	b160      	cbz	r0, 8005b18 <_Balloc+0x64>
 8005afe:	e9c0 5601 	strd	r5, r6, [r0, #4]
 8005b02:	e00e      	b.n	8005b22 <_Balloc+0x6e>
 8005b04:	2221      	movs	r2, #33	; 0x21
 8005b06:	2104      	movs	r1, #4
 8005b08:	4620      	mov	r0, r4
 8005b0a:	f000 fc8b 	bl	8006424 <_calloc_r>
 8005b0e:	6a63      	ldr	r3, [r4, #36]	; 0x24
 8005b10:	60f0      	str	r0, [r6, #12]
 8005b12:	68db      	ldr	r3, [r3, #12]
 8005b14:	2b00      	cmp	r3, #0
 8005b16:	d1e4      	bne.n	8005ae2 <_Balloc+0x2e>
 8005b18:	2000      	movs	r0, #0
 8005b1a:	bd70      	pop	{r4, r5, r6, pc}
 8005b1c:	6802      	ldr	r2, [r0, #0]
 8005b1e:	f843 2025 	str.w	r2, [r3, r5, lsl #2]
 8005b22:	2300      	movs	r3, #0
 8005b24:	e9c0 3303 	strd	r3, r3, [r0, #12]
 8005b28:	e7f7      	b.n	8005b1a <_Balloc+0x66>
 8005b2a:	bf00      	nop
 8005b2c:	08008d18 	.word	0x08008d18
 8005b30:	08008d2f 	.word	0x08008d2f

08005b34 <_Bfree>:
 8005b34:	b570      	push	{r4, r5, r6, lr}
 8005b36:	6a46      	ldr	r6, [r0, #36]	; 0x24
 8005b38:	4605      	mov	r5, r0
 8005b3a:	460c      	mov	r4, r1
 8005b3c:	b976      	cbnz	r6, 8005b5c <_Bfree+0x28>
 8005b3e:	2010      	movs	r0, #16
 8005b40:	f000 fd3e 	bl	80065c0 <malloc>
 8005b44:	4602      	mov	r2, r0
 8005b46:	6268      	str	r0, [r5, #36]	; 0x24
 8005b48:	b920      	cbnz	r0, 8005b54 <_Bfree+0x20>
 8005b4a:	218a      	movs	r1, #138	; 0x8a
 8005b4c:	4b08      	ldr	r3, [pc, #32]	; (8005b70 <_Bfree+0x3c>)
 8005b4e:	4809      	ldr	r0, [pc, #36]	; (8005b74 <_Bfree+0x40>)
 8005b50:	f000 fd06 	bl	8006560 <__assert_func>
 8005b54:	e9c0 6601 	strd	r6, r6, [r0, #4]
 8005b58:	6006      	str	r6, [r0, #0]
 8005b5a:	60c6      	str	r6, [r0, #12]
 8005b5c:	b13c      	cbz	r4, 8005b6e <_Bfree+0x3a>
 8005b5e:	6a6b      	ldr	r3, [r5, #36]	; 0x24
 8005b60:	6862      	ldr	r2, [r4, #4]
 8005b62:	68db      	ldr	r3, [r3, #12]
 8005b64:	f853 1022 	ldr.w	r1, [r3, r2, lsl #2]
 8005b68:	6021      	str	r1, [r4, #0]
 8005b6a:	f843 4022 	str.w	r4, [r3, r2, lsl #2]
 8005b6e:	bd70      	pop	{r4, r5, r6, pc}
 8005b70:	08008d18 	.word	0x08008d18
 8005b74:	08008d2f 	.word	0x08008d2f

08005b78 <__multadd>:
 8005b78:	e92d 41f0 	stmdb	sp!, {r4, r5, r6, r7, r8, lr}
 8005b7c:	4698      	mov	r8, r3
 8005b7e:	460c      	mov	r4, r1
 8005b80:	2300      	movs	r3, #0
 8005b82:	690e      	ldr	r6, [r1, #16]
 8005b84:	4607      	mov	r7, r0
 8005b86:	f101 0014 	add.w	r0, r1, #20
 8005b8a:	6805      	ldr	r5, [r0, #0]
 8005b8c:	3301      	adds	r3, #1
 8005b8e:	b2a9      	uxth	r1, r5
 8005b90:	fb02 8101 	mla	r1, r2, r1, r8
 8005b94:	0c2d      	lsrs	r5, r5, #16
 8005b96:	ea4f 4c11 	mov.w	ip, r1, lsr #16
 8005b9a:	fb02 c505 	mla	r5, r2, r5, ip
 8005b9e:	b289      	uxth	r1, r1
 8005ba0:	eb01 4105 	add.w	r1, r1, r5, lsl #16
 8005ba4:	429e      	cmp	r6, r3
 8005ba6:	ea4f 4815 	mov.w	r8, r5, lsr #16
 8005baa:	f840 1b04 	str.w	r1, [r0], #4
 8005bae:	dcec      	bgt.n	8005b8a <__multadd+0x12>
 8005bb0:	f1b8 0f00 	cmp.w	r8, #0
 8005bb4:	d022      	beq.n	8005bfc <__multadd+0x84>
 8005bb6:	68a3      	ldr	r3, [r4, #8]
 8005bb8:	42b3      	cmp	r3, r6
 8005bba:	dc19      	bgt.n	8005bf0 <__multadd+0x78>
 8005bbc:	6861      	ldr	r1, [r4, #4]
 8005bbe:	4638      	mov	r0, r7
 8005bc0:	3101      	adds	r1, #1
 8005bc2:	f7ff ff77 	bl	8005ab4 <_Balloc>
 8005bc6:	4605      	mov	r5, r0
 8005bc8:	b928      	cbnz	r0, 8005bd6 <__multadd+0x5e>
 8005bca:	4602      	mov	r2, r0
 8005bcc:	21b5      	movs	r1, #181	; 0xb5
 8005bce:	4b0d      	ldr	r3, [pc, #52]	; (8005c04 <__multadd+0x8c>)
 8005bd0:	480d      	ldr	r0, [pc, #52]	; (8005c08 <__multadd+0x90>)
 8005bd2:	f000 fcc5 	bl	8006560 <__assert_func>
 8005bd6:	6922      	ldr	r2, [r4, #16]
 8005bd8:	f104 010c 	add.w	r1, r4, #12
 8005bdc:	3202      	adds	r2, #2
 8005bde:	0092      	lsls	r2, r2, #2
 8005be0:	300c      	adds	r0, #12
 8005be2:	f7ff ff59 	bl	8005a98 <memcpy>
 8005be6:	4621      	mov	r1, r4
 8005be8:	4638      	mov	r0, r7
 8005bea:	f7ff ffa3 	bl	8005b34 <_Bfree>
 8005bee:	462c      	mov	r4, r5
 8005bf0:	eb04 0386 	add.w	r3, r4, r6, lsl #2
 8005bf4:	3601      	adds	r6, #1
 8005bf6:	f8c3 8014 	str.w	r8, [r3, #20]
 8005bfa:	6126      	str	r6, [r4, #16]
 8005bfc:	4620      	mov	r0, r4
 8005bfe:	e8bd 81f0 	ldmia.w	sp!, {r4, r5, r6, r7, r8, pc}
 8005c02:	bf00      	nop
 8005c04:	08008c88 	.word	0x08008c88
 8005c08:	08008d2f 	.word	0x08008d2f

08005c0c <__s2b>:
 8005c0c:	e92d 43f8 	stmdb	sp!, {r3, r4, r5, r6, r7, r8, r9, lr}
 8005c10:	4615      	mov	r5, r2
 8005c12:	2209      	movs	r2, #9
 8005c14:	461f      	mov	r7, r3
 8005c16:	3308      	adds	r3, #8
 8005c18:	460c      	mov	r4, r1
 8005c1a:	fb93 f3f2 	sdiv	r3, r3, r2
 8005c1e:	4606      	mov	r6, r0
 8005c20:	2201      	movs	r2, #1
 8005c22:	2100      	movs	r1, #0
 8005c24:	429a      	cmp	r2, r3
 8005c26:	db09      	blt.n	8005c3c <__s2b+0x30>
 8005c28:	4630      	mov	r0, r6
 8005c2a:	f7ff ff43 	bl	8005ab4 <_Balloc>
 8005c2e:	b940      	cbnz	r0, 8005c42 <__s2b+0x36>
 8005c30:	4602      	mov	r2, r0
 8005c32:	21ce      	movs	r1, #206	; 0xce
 8005c34:	4b18      	ldr	r3, [pc, #96]	; (8005c98 <__s2b+0x8c>)
 8005c36:	4819      	ldr	r0, [pc, #100]	; (8005c9c <__s2b+0x90>)
 8005c38:	f000 fc92 	bl	8006560 <__assert_func>
 8005c3c:	0052      	lsls	r2, r2, #1
 8005c3e:	3101      	adds	r1, #1
 8005c40:	e7f0      	b.n	8005c24 <__s2b+0x18>
 8005c42:	9b08      	ldr	r3, [sp, #32]
 8005c44:	2d09      	cmp	r5, #9
 8005c46:	6143      	str	r3, [r0, #20]
 8005c48:	f04f 0301 	mov.w	r3, #1
 8005c4c:	6103      	str	r3, [r0, #16]
 8005c4e:	dd16      	ble.n	8005c7e <__s2b+0x72>
 8005c50:	f104 0909 	add.w	r9, r4, #9
 8005c54:	46c8      	mov	r8, r9
 8005c56:	442c      	add	r4, r5
 8005c58:	f818 3b01 	ldrb.w	r3, [r8], #1
 8005c5c:	4601      	mov	r1, r0
 8005c5e:	220a      	movs	r2, #10
 8005c60:	4630      	mov	r0, r6
 8005c62:	3b30      	subs	r3, #48	; 0x30
 8005c64:	f7ff ff88 	bl	8005b78 <__multadd>
 8005c68:	45a0      	cmp	r8, r4
 8005c6a:	d1f5      	bne.n	8005c58 <__s2b+0x4c>
 8005c6c:	f1a5 0408 	sub.w	r4, r5, #8
 8005c70:	444c      	add	r4, r9
 8005c72:	1b2d      	subs	r5, r5, r4
 8005c74:	1963      	adds	r3, r4, r5
 8005c76:	42bb      	cmp	r3, r7
 8005c78:	db04      	blt.n	8005c84 <__s2b+0x78>
 8005c7a:	e8bd 83f8 	ldmia.w	sp!, {r3, r4, r5, r6, r7, r8, r9, pc}
 8005c7e:	2509      	movs	r5, #9
 8005c80:	340a      	adds	r4, #10
 8005c82:	e7f6      	b.n	8005c72 <__s2b+0x66>
 8005c84:	f814 3b01 	ldrb.w	r3, [r4], #1
 8005c88:	4601      	mov	r1, r0
 8005c8a:	220a      	movs	r2, #10
 8005c8c:	4630      	mov	r0, r6
 8005c8e:	3b30      	subs	r3, #48	; 0x30
 8005c90:	f7ff ff72 	bl	8005b78 <__multadd>
 8005c94:	e7ee      	b.n	8005c74 <__s2b+0x68>
 8005c96:	bf00      	nop
 8005c98:	08008c88 	.word	0x08008c88
 8005c9c:	08008d2f 	.word	0x08008d2f

08005ca0 <__hi0bits>:
 8005ca0:	0c02      	lsrs	r2, r0, #16
 8005ca2:	0412      	lsls	r2, r2, #16
 8005ca4:	4603      	mov	r3, r0
 8005ca6:	b9ca      	cbnz	r2, 8005cdc <__hi0bits+0x3c>
 8005ca8:	0403      	lsls	r3, r0, #16
 8005caa:	2010      	movs	r0, #16
 8005cac:	f013 4f7f 	tst.w	r3, #4278190080	; 0xff000000
 8005cb0:	bf04      	itt	eq
 8005cb2:	021b      	lsleq	r3, r3, #8
 8005cb4:	3008      	addeq	r0, #8
 8005cb6:	f013 4f70 	tst.w	r3, #4026531840	; 0xf0000000
 8005cba:	bf04      	itt	eq
 8005cbc:	011b      	lsleq	r3, r3, #4
 8005cbe:	3004      	addeq	r0, #4
 8005cc0:	f013 4f40 	tst.w	r3, #3221225472	; 0xc0000000
 8005cc4:	bf04      	itt	eq
 8005cc6:	009b      	lsleq	r3, r3, #2
 8005cc8:	3002      	addeq	r0, #2
 8005cca:	2b00      	cmp	r3, #0
 8005ccc:	db05      	blt.n	8005cda <__hi0bits+0x3a>
 8005cce:	f013 4f80 	tst.w	r3, #1073741824	; 0x40000000
 8005cd2:	f100 0001 	add.w	r0, r0, #1
 8005cd6:	bf08      	it	eq
 8005cd8:	2020      	moveq	r0, #32
 8005cda:	4770      	bx	lr
 8005cdc:	2000      	movs	r0, #0
 8005cde:	e7e5      	b.n	8005cac <__hi0bits+0xc>

08005ce0 <__lo0bits>:
 8005ce0:	6803      	ldr	r3, [r0, #0]
 8005ce2:	4602      	mov	r2, r0
 8005ce4:	f013 0007 	ands.w	r0, r3, #7
 8005ce8:	d00b      	beq.n	8005d02 <__lo0bits+0x22>
 8005cea:	07d9      	lsls	r1, r3, #31
 8005cec:	d422      	bmi.n	8005d34 <__lo0bits+0x54>
 8005cee:	0798      	lsls	r0, r3, #30
 8005cf0:	bf49      	itett	mi
 8005cf2:	085b      	lsrmi	r3, r3, #1
 8005cf4:	089b      	lsrpl	r3, r3, #2
 8005cf6:	2001      	movmi	r0, #1
 8005cf8:	6013      	strmi	r3, [r2, #0]
 8005cfa:	bf5c      	itt	pl
 8005cfc:	2002      	movpl	r0, #2
 8005cfe:	6013      	strpl	r3, [r2, #0]
 8005d00:	4770      	bx	lr
 8005d02:	b299      	uxth	r1, r3
 8005d04:	b909      	cbnz	r1, 8005d0a <__lo0bits+0x2a>
 8005d06:	2010      	movs	r0, #16
 8005d08:	0c1b      	lsrs	r3, r3, #16
 8005d0a:	f013 0fff 	tst.w	r3, #255	; 0xff
 8005d0e:	bf04      	itt	eq
 8005d10:	0a1b      	lsreq	r3, r3, #8
 8005d12:	3008      	addeq	r0, #8
 8005d14:	0719      	lsls	r1, r3, #28
 8005d16:	bf04      	itt	eq
 8005d18:	091b      	lsreq	r3, r3, #4
 8005d1a:	3004      	addeq	r0, #4
 8005d1c:	0799      	lsls	r1, r3, #30
 8005d1e:	bf04      	itt	eq
 8005d20:	089b      	lsreq	r3, r3, #2
 8005d22:	3002      	addeq	r0, #2
 8005d24:	07d9      	lsls	r1, r3, #31
 8005d26:	d403      	bmi.n	8005d30 <__lo0bits+0x50>
 8005d28:	085b      	lsrs	r3, r3, #1
 8005d2a:	f100 0001 	add.w	r0, r0, #1
 8005d2e:	d003      	beq.n	8005d38 <__lo0bits+0x58>
 8005d30:	6013      	str	r3, [r2, #0]
 8005d32:	4770      	bx	lr
 8005d34:	2000      	movs	r0, #0
 8005d36:	4770      	bx	lr
 8005d38:	2020      	movs	r0, #32
 8005d3a:	4770      	bx	lr

08005d3c <__i2b>:
 8005d3c:	b510      	push	{r4, lr}
 8005d3e:	460c      	mov	r4, r1
 8005d40:	2101      	movs	r1, #1
 8005d42:	f7ff feb7 	bl	8005ab4 <_Balloc>
 8005d46:	4602      	mov	r2, r0
 8005d48:	b928      	cbnz	r0, 8005d56 <__i2b+0x1a>
 8005d4a:	f44f 71a0 	mov.w	r1, #320	; 0x140
 8005d4e:	4b04      	ldr	r3, [pc, #16]	; (8005d60 <__i2b+0x24>)
 8005d50:	4804      	ldr	r0, [pc, #16]	; (8005d64 <__i2b+0x28>)
 8005d52:	f000 fc05 	bl	8006560 <__assert_func>
 8005d56:	2301      	movs	r3, #1
 8005d58:	6144      	str	r4, [r0, #20]
 8005d5a:	6103      	str	r3, [r0, #16]
 8005d5c:	bd10      	pop	{r4, pc}
 8005d5e:	bf00      	nop
 8005d60:	08008c88 	.word	0x08008c88
 8005d64:	08008d2f 	.word	0x08008d2f

08005d68 <__multiply>:
 8005d68:	e92d 4ff0 	stmdb	sp!, {r4, r5, r6, r7, r8, r9, sl, fp, lr}
 8005d6c:	4614      	mov	r4, r2
 8005d6e:	690a      	ldr	r2, [r1, #16]
 8005d70:	6923      	ldr	r3, [r4, #16]
 8005d72:	460d      	mov	r5, r1
 8005d74:	429a      	cmp	r2, r3
 8005d76:	bfbe      	ittt	lt
 8005d78:	460b      	movlt	r3, r1
 8005d7a:	4625      	movlt	r5, r4
 8005d7c:	461c      	movlt	r4, r3
 8005d7e:	f8d5 a010 	ldr.w	sl, [r5, #16]
 8005d82:	f8d4 9010 	ldr.w	r9, [r4, #16]
 8005d86:	68ab      	ldr	r3, [r5, #8]
 8005d88:	6869      	ldr	r1, [r5, #4]
 8005d8a:	eb0a 0709 	add.w	r7, sl, r9
 8005d8e:	42bb      	cmp	r3, r7
 8005d90:	b085      	sub	sp, #20
 8005d92:	bfb8      	it	lt
 8005d94:	3101      	addlt	r1, #1
 8005d96:	f7ff fe8d 	bl	8005ab4 <_Balloc>
 8005d9a:	b930      	cbnz	r0, 8005daa <__multiply+0x42>
 8005d9c:	4602      	mov	r2, r0
 8005d9e:	f240 115d 	movw	r1, #349	; 0x15d
 8005da2:	4b41      	ldr	r3, [pc, #260]	; (8005ea8 <__multiply+0x140>)
 8005da4:	4841      	ldr	r0, [pc, #260]	; (8005eac <__multiply+0x144>)
 8005da6:	f000 fbdb 	bl	8006560 <__assert_func>
 8005daa:	f100 0614 	add.w	r6, r0, #20
 8005dae:	4633      	mov	r3, r6
 8005db0:	2200      	movs	r2, #0
 8005db2:	eb06 0887 	add.w	r8, r6, r7, lsl #2
 8005db6:	4543      	cmp	r3, r8
 8005db8:	d31e      	bcc.n	8005df8 <__multiply+0x90>
 8005dba:	f105 0c14 	add.w	ip, r5, #20
 8005dbe:	f104 0314 	add.w	r3, r4, #20
 8005dc2:	eb0c 0c8a 	add.w	ip, ip, sl, lsl #2
 8005dc6:	eb03 0289 	add.w	r2, r3, r9, lsl #2
 8005dca:	9202      	str	r2, [sp, #8]
 8005dcc:	ebac 0205 	sub.w	r2, ip, r5
 8005dd0:	3a15      	subs	r2, #21
 8005dd2:	f022 0203 	bic.w	r2, r2, #3
 8005dd6:	3204      	adds	r2, #4
 8005dd8:	f105 0115 	add.w	r1, r5, #21
 8005ddc:	458c      	cmp	ip, r1
 8005dde:	bf38      	it	cc
 8005de0:	2204      	movcc	r2, #4
 8005de2:	9201      	str	r2, [sp, #4]
 8005de4:	9a02      	ldr	r2, [sp, #8]
 8005de6:	9303      	str	r3, [sp, #12]
 8005de8:	429a      	cmp	r2, r3
 8005dea:	d808      	bhi.n	8005dfe <__multiply+0x96>
 8005dec:	2f00      	cmp	r7, #0
 8005dee:	dc55      	bgt.n	8005e9c <__multiply+0x134>
 8005df0:	6107      	str	r7, [r0, #16]
 8005df2:	b005      	add	sp, #20
 8005df4:	e8bd 8ff0 	ldmia.w	sp!, {r4, r5, r6, r7, r8, r9, sl, fp, pc}
 8005df8:	f843 2b04 	str.w	r2, [r3], #4
 8005dfc:	e7db      	b.n	8005db6 <__multiply+0x4e>
 8005dfe:	f8b3 a000 	ldrh.w	sl, [r3]
 8005e02:	f1ba 0f00 	cmp.w	sl, #0
 8005e06:	d020      	beq.n	8005e4a <__multiply+0xe2>
 8005e08:	46b1      	mov	r9, r6
 8005e0a:	2200      	movs	r2, #0
 8005e0c:	f105 0e14 	add.w	lr, r5, #20
 8005e10:	f85e 4b04 	ldr.w	r4, [lr], #4
 8005e14:	f8d9 b000 	ldr.w	fp, [r9]
 8005e18:	b2a1      	uxth	r1, r4
 8005e1a:	fa1f fb8b 	uxth.w	fp, fp
 8005e1e:	fb0a b101 	mla	r1, sl, r1, fp
 8005e22:	4411      	add	r1, r2
 8005e24:	f8d9 2000 	ldr.w	r2, [r9]
 8005e28:	0c24      	lsrs	r4, r4, #16
 8005e2a:	0c12      	lsrs	r2, r2, #16
 8005e2c:	fb0a 2404 	mla	r4, sl, r4, r2
 8005e30:	eb04 4411 	add.w	r4, r4, r1, lsr #16
 8005e34:	b289      	uxth	r1, r1
 8005e36:	ea41 4104 	orr.w	r1, r1, r4, lsl #16
 8005e3a:	45f4      	cmp	ip, lr
 8005e3c:	ea4f 4214 	mov.w	r2, r4, lsr #16
 8005e40:	f849 1b04 	str.w	r1, [r9], #4
 8005e44:	d8e4      	bhi.n	8005e10 <__multiply+0xa8>
 8005e46:	9901      	ldr	r1, [sp, #4]
 8005e48:	5072      	str	r2, [r6, r1]
 8005e4a:	9a03      	ldr	r2, [sp, #12]
 8005e4c:	3304      	adds	r3, #4
 8005e4e:	f8b2 9002 	ldrh.w	r9, [r2, #2]
 8005e52:	f1b9 0f00 	cmp.w	r9, #0
 8005e56:	d01f      	beq.n	8005e98 <__multiply+0x130>
 8005e58:	46b6      	mov	lr, r6
 8005e5a:	f04f 0a00 	mov.w	sl, #0
 8005e5e:	6834      	ldr	r4, [r6, #0]
 8005e60:	f105 0114 	add.w	r1, r5, #20
 8005e64:	880a      	ldrh	r2, [r1, #0]
 8005e66:	f8be b002 	ldrh.w	fp, [lr, #2]
 8005e6a:	b2a4      	uxth	r4, r4
 8005e6c:	fb09 b202 	mla	r2, r9, r2, fp
 8005e70:	4492      	add	sl, r2
 8005e72:	ea44 440a 	orr.w	r4, r4, sl, lsl #16
 8005e76:	f84e 4b04 	str.w	r4, [lr], #4
 8005e7a:	f851 4b04 	ldr.w	r4, [r1], #4
 8005e7e:	f8be 2000 	ldrh.w	r2, [lr]
 8005e82:	0c24      	lsrs	r4, r4, #16
 8005e84:	fb09 2404 	mla	r4, r9, r4, r2
 8005e88:	458c      	cmp	ip, r1
 8005e8a:	eb04 441a 	add.w	r4, r4, sl, lsr #16
 8005e8e:	ea4f 4a14 	mov.w	sl, r4, lsr #16
 8005e92:	d8e7      	bhi.n	8005e64 <__multiply+0xfc>
 8005e94:	9a01      	ldr	r2, [sp, #4]
 8005e96:	50b4      	str	r4, [r6, r2]
 8005e98:	3604      	adds	r6, #4
 8005e9a:	e7a3      	b.n	8005de4 <__multiply+0x7c>
 8005e9c:	f858 3d04 	ldr.w	r3, [r8, #-4]!
 8005ea0:	2b00      	cmp	r3, #0
 8005ea2:	d1a5      	bne.n	8005df0 <__multiply+0x88>
 8005ea4:	3f01      	subs	r7, #1
 8005ea6:	e7a1      	b.n	8005dec <__multiply+0x84>
 8005ea8:	08008c88 	.word	0x08008c88
 8005eac:	08008d2f 	.word	0x08008d2f

08005eb0 <__pow5mult>:
 8005eb0:	e92d 43f8 	stmdb	sp!, {r3, r4, r5, r6, r7, r8, r9, lr}
 8005eb4:	4615      	mov	r5, r2
 8005eb6:	f012 0203 	ands.w	r2, r2, #3
 8005eba:	4606      	mov	r6, r0
 8005ebc:	460f      	mov	r7, r1
 8005ebe:	d007      	beq.n	8005ed0 <__pow5mult+0x20>
 8005ec0:	4c25      	ldr	r4, [pc, #148]	; (8005f58 <__pow5mult+0xa8>)
 8005ec2:	3a01      	subs	r2, #1
 8005ec4:	2300      	movs	r3, #0
 8005ec6:	f854 2022 	ldr.w	r2, [r4, r2, lsl #2]
 8005eca:	f7ff fe55 	bl	8005b78 <__multadd>
 8005ece:	4607      	mov	r7, r0
 8005ed0:	10ad      	asrs	r5, r5, #2
 8005ed2:	d03d      	beq.n	8005f50 <__pow5mult+0xa0>
 8005ed4:	6a74      	ldr	r4, [r6, #36]	; 0x24
 8005ed6:	b97c      	cbnz	r4, 8005ef8 <__pow5mult+0x48>
 8005ed8:	2010      	movs	r0, #16
 8005eda:	f000 fb71 	bl	80065c0 <malloc>
 8005ede:	4602      	mov	r2, r0
 8005ee0:	6270      	str	r0, [r6, #36]	; 0x24
 8005ee2:	b928      	cbnz	r0, 8005ef0 <__pow5mult+0x40>
 8005ee4:	f44f 71d7 	mov.w	r1, #430	; 0x1ae
 8005ee8:	4b1c      	ldr	r3, [pc, #112]	; (8005f5c <__pow5mult+0xac>)
 8005eea:	481d      	ldr	r0, [pc, #116]	; (8005f60 <__pow5mult+0xb0>)
 8005eec:	f000 fb38 	bl	8006560 <__assert_func>
 8005ef0:	e9c0 4401 	strd	r4, r4, [r0, #4]
 8005ef4:	6004      	str	r4, [r0, #0]
 8005ef6:	60c4      	str	r4, [r0, #12]
 8005ef8:	f8d6 8024 	ldr.w	r8, [r6, #36]	; 0x24
 8005efc:	f8d8 4008 	ldr.w	r4, [r8, #8]
 8005f00:	b94c      	cbnz	r4, 8005f16 <__pow5mult+0x66>
 8005f02:	f240 2171 	movw	r1, #625	; 0x271
 8005f06:	4630      	mov	r0, r6
 8005f08:	f7ff ff18 	bl	8005d3c <__i2b>
 8005f0c:	2300      	movs	r3, #0
 8005f0e:	4604      	mov	r4, r0
 8005f10:	f8c8 0008 	str.w	r0, [r8, #8]
 8005f14:	6003      	str	r3, [r0, #0]
 8005f16:	f04f 0900 	mov.w	r9, #0
 8005f1a:	07eb      	lsls	r3, r5, #31
 8005f1c:	d50a      	bpl.n	8005f34 <__pow5mult+0x84>
 8005f1e:	4639      	mov	r1, r7
 8005f20:	4622      	mov	r2, r4
 8005f22:	4630      	mov	r0, r6
 8005f24:	f7ff ff20 	bl	8005d68 <__multiply>
 8005f28:	4680      	mov	r8, r0
 8005f2a:	4639      	mov	r1, r7
 8005f2c:	4630      	mov	r0, r6
 8005f2e:	f7ff fe01 	bl	8005b34 <_Bfree>
 8005f32:	4647      	mov	r7, r8
 8005f34:	106d      	asrs	r5, r5, #1
 8005f36:	d00b      	beq.n	8005f50 <__pow5mult+0xa0>
 8005f38:	6820      	ldr	r0, [r4, #0]
 8005f3a:	b938      	cbnz	r0, 8005f4c <__pow5mult+0x9c>
 8005f3c:	4622      	mov	r2, r4
 8005f3e:	4621      	mov	r1, r4
 8005f40:	4630      	mov	r0, r6
 8005f42:	f7ff ff11 	bl	8005d68 <__multiply>
 8005f46:	6020      	str	r0, [r4, #0]
 8005f48:	f8c0 9000 	str.w	r9, [r0]
 8005f4c:	4604      	mov	r4, r0
 8005f4e:	e7e4      	b.n	8005f1a <__pow5mult+0x6a>
 8005f50:	4638      	mov	r0, r7
 8005f52:	e8bd 83f8 	ldmia.w	sp!, {r3, r4, r5, r6, r7, r8, r9, pc}
 8005f56:	bf00      	nop
 8005f58:	08008e80 	.word	0x08008e80
 8005f5c:	08008d18 	.word	0x08008d18
 8005f60:	08008d2f 	.word	0x08008d2f

08005f64 <__lshift>:
 8005f64:	e92d 47f0 	stmdb	sp!, {r4, r5, r6, r7, r8, r9, sl, lr}
 8005f68:	460c      	mov	r4, r1
 8005f6a:	4607      	mov	r7, r0
 8005f6c:	4691      	mov	r9, r2
 8005f6e:	6923      	ldr	r3, [r4, #16]
 8005f70:	6849      	ldr	r1, [r1, #4]
 8005f72:	eb03 1862 	add.w	r8, r3, r2, asr #5
 8005f76:	68a3      	ldr	r3, [r4, #8]
 8005f78:	ea4f 1a62 	mov.w	sl, r2, asr #5
 8005f7c:	f108 0601 	add.w	r6, r8, #1
 8005f80:	42b3      	cmp	r3, r6
 8005f82:	db0b      	blt.n	8005f9c <__lshift+0x38>
 8005f84:	4638      	mov	r0, r7
 8005f86:	f7ff fd95 	bl	8005ab4 <_Balloc>
 8005f8a:	4605      	mov	r5, r0
 8005f8c:	b948      	cbnz	r0, 8005fa2 <__lshift+0x3e>
 8005f8e:	4602      	mov	r2, r0
 8005f90:	f240 11d9 	movw	r1, #473	; 0x1d9
 8005f94:	4b27      	ldr	r3, [pc, #156]	; (8006034 <__lshift+0xd0>)
 8005f96:	4828      	ldr	r0, [pc, #160]	; (8006038 <__lshift+0xd4>)
 8005f98:	f000 fae2 	bl	8006560 <__assert_func>
 8005f9c:	3101      	adds	r1, #1
 8005f9e:	005b      	lsls	r3, r3, #1
 8005fa0:	e7ee      	b.n	8005f80 <__lshift+0x1c>
 8005fa2:	2300      	movs	r3, #0
 8005fa4:	f100 0114 	add.w	r1, r0, #20
 8005fa8:	f100 0210 	add.w	r2, r0, #16
 8005fac:	4618      	mov	r0, r3
 8005fae:	4553      	cmp	r3, sl
 8005fb0:	db33      	blt.n	800601a <__lshift+0xb6>
 8005fb2:	6920      	ldr	r0, [r4, #16]
 8005fb4:	ea2a 7aea 	bic.w	sl, sl, sl, asr #31
 8005fb8:	f104 0314 	add.w	r3, r4, #20
 8005fbc:	f019 091f 	ands.w	r9, r9, #31
 8005fc0:	eb01 018a 	add.w	r1, r1, sl, lsl #2
 8005fc4:	eb03 0c80 	add.w	ip, r3, r0, lsl #2
 8005fc8:	d02b      	beq.n	8006022 <__lshift+0xbe>
 8005fca:	468a      	mov	sl, r1
 8005fcc:	2200      	movs	r2, #0
 8005fce:	f1c9 0e20 	rsb	lr, r9, #32
 8005fd2:	6818      	ldr	r0, [r3, #0]
 8005fd4:	fa00 f009 	lsl.w	r0, r0, r9
 8005fd8:	4302      	orrs	r2, r0
 8005fda:	f84a 2b04 	str.w	r2, [sl], #4
 8005fde:	f853 2b04 	ldr.w	r2, [r3], #4
 8005fe2:	459c      	cmp	ip, r3
 8005fe4:	fa22 f20e 	lsr.w	r2, r2, lr
 8005fe8:	d8f3      	bhi.n	8005fd2 <__lshift+0x6e>
 8005fea:	ebac 0304 	sub.w	r3, ip, r4
 8005fee:	3b15      	subs	r3, #21
 8005ff0:	f023 0303 	bic.w	r3, r3, #3
 8005ff4:	3304      	adds	r3, #4
 8005ff6:	f104 0015 	add.w	r0, r4, #21
 8005ffa:	4584      	cmp	ip, r0
 8005ffc:	bf38      	it	cc
 8005ffe:	2304      	movcc	r3, #4
 8006000:	50ca      	str	r2, [r1, r3]
 8006002:	b10a      	cbz	r2, 8006008 <__lshift+0xa4>
 8006004:	f108 0602 	add.w	r6, r8, #2
 8006008:	3e01      	subs	r6, #1
 800600a:	4638      	mov	r0, r7
 800600c:	4621      	mov	r1, r4
 800600e:	612e      	str	r6, [r5, #16]
 8006010:	f7ff fd90 	bl	8005b34 <_Bfree>
 8006014:	4628      	mov	r0, r5
 8006016:	e8bd 87f0 	ldmia.w	sp!, {r4, r5, r6, r7, r8, r9, sl, pc}
 800601a:	f842 0f04 	str.w	r0, [r2, #4]!
 800601e:	3301      	adds	r3, #1
 8006020:	e7c5      	b.n	8005fae <__lshift+0x4a>
 8006022:	3904      	subs	r1, #4
 8006024:	f853 2b04 	ldr.w	r2, [r3], #4
 8006028:	459c      	cmp	ip, r3
 800602a:	f841 2f04 	str.w	r2, [r1, #4]!
 800602e:	d8f9      	bhi.n	8006024 <__lshift+0xc0>
 8006030:	e7ea      	b.n	8006008 <__lshift+0xa4>
 8006032:	bf00      	nop
 8006034:	08008c88 	.word	0x08008c88
 8006038:	08008d2f 	.word	0x08008d2f

0800603c <__mcmp>:
 800603c:	4603      	mov	r3, r0
 800603e:	690a      	ldr	r2, [r1, #16]
 8006040:	6900      	ldr	r0, [r0, #16]
 8006042:	b530      	push	{r4, r5, lr}
 8006044:	1a80      	subs	r0, r0, r2
 8006046:	d10d      	bne.n	8006064 <__mcmp+0x28>
 8006048:	3314      	adds	r3, #20
 800604a:	3114      	adds	r1, #20
 800604c:	eb03 0482 	add.w	r4, r3, r2, lsl #2
 8006050:	eb01 0182 	add.w	r1, r1, r2, lsl #2
 8006054:	f854 5d04 	ldr.w	r5, [r4, #-4]!
 8006058:	f851 2d04 	ldr.w	r2, [r1, #-4]!
 800605c:	4295      	cmp	r5, r2
 800605e:	d002      	beq.n	8006066 <__mcmp+0x2a>
 8006060:	d304      	bcc.n	800606c <__mcmp+0x30>
 8006062:	2001      	movs	r0, #1
 8006064:	bd30      	pop	{r4, r5, pc}
 8006066:	42a3      	cmp	r3, r4
 8006068:	d3f4      	bcc.n	8006054 <__mcmp+0x18>
 800606a:	e7fb      	b.n	8006064 <__mcmp+0x28>
 800606c:	f04f 30ff 	mov.w	r0, #4294967295	; 0xffffffff
 8006070:	e7f8      	b.n	8006064 <__mcmp+0x28>
	...

08006074 <__mdiff>:
 8006074:	e92d 4ff8 	stmdb	sp!, {r3, r4, r5, r6, r7, r8, r9, sl, fp, lr}
 8006078:	460c      	mov	r4, r1
 800607a:	4606      	mov	r6, r0
 800607c:	4611      	mov	r1, r2
 800607e:	4620      	mov	r0, r4
 8006080:	4692      	mov	sl, r2
 8006082:	f7ff ffdb 	bl	800603c <__mcmp>
 8006086:	1e05      	subs	r5, r0, #0
 8006088:	d111      	bne.n	80060ae <__mdiff+0x3a>
 800608a:	4629      	mov	r1, r5
 800608c:	4630      	mov	r0, r6
 800608e:	f7ff fd11 	bl	8005ab4 <_Balloc>
 8006092:	4602      	mov	r2, r0
 8006094:	b928      	cbnz	r0, 80060a2 <__mdiff+0x2e>
 8006096:	f240 2132 	movw	r1, #562	; 0x232
 800609a:	4b3c      	ldr	r3, [pc, #240]	; (800618c <__mdiff+0x118>)
 800609c:	483c      	ldr	r0, [pc, #240]	; (8006190 <__mdiff+0x11c>)
 800609e:	f000 fa5f 	bl	8006560 <__assert_func>
 80060a2:	2301      	movs	r3, #1
 80060a4:	e9c0 3504 	strd	r3, r5, [r0, #16]
 80060a8:	4610      	mov	r0, r2
 80060aa:	e8bd 8ff8 	ldmia.w	sp!, {r3, r4, r5, r6, r7, r8, r9, sl, fp, pc}
 80060ae:	bfa4      	itt	ge
 80060b0:	4653      	movge	r3, sl
 80060b2:	46a2      	movge	sl, r4
 80060b4:	4630      	mov	r0, r6
 80060b6:	f8da 1004 	ldr.w	r1, [sl, #4]
 80060ba:	bfa6      	itte	ge
 80060bc:	461c      	movge	r4, r3
 80060be:	2500      	movge	r5, #0
 80060c0:	2501      	movlt	r5, #1
 80060c2:	f7ff fcf7 	bl	8005ab4 <_Balloc>
 80060c6:	4602      	mov	r2, r0
 80060c8:	b918      	cbnz	r0, 80060d2 <__mdiff+0x5e>
 80060ca:	f44f 7110 	mov.w	r1, #576	; 0x240
 80060ce:	4b2f      	ldr	r3, [pc, #188]	; (800618c <__mdiff+0x118>)
 80060d0:	e7e4      	b.n	800609c <__mdiff+0x28>
 80060d2:	f100 0814 	add.w	r8, r0, #20
 80060d6:	f8da 7010 	ldr.w	r7, [sl, #16]
 80060da:	60c5      	str	r5, [r0, #12]
 80060dc:	f04f 0c00 	mov.w	ip, #0
 80060e0:	f10a 0514 	add.w	r5, sl, #20
 80060e4:	f10a 0010 	add.w	r0, sl, #16
 80060e8:	46c2      	mov	sl, r8
 80060ea:	6926      	ldr	r6, [r4, #16]
 80060ec:	f104 0914 	add.w	r9, r4, #20
 80060f0:	eb05 0e87 	add.w	lr, r5, r7, lsl #2
 80060f4:	eb09 0686 	add.w	r6, r9, r6, lsl #2
 80060f8:	f850 bf04 	ldr.w	fp, [r0, #4]!
 80060fc:	f859 3b04 	ldr.w	r3, [r9], #4
 8006100:	fa1f f18b 	uxth.w	r1, fp
 8006104:	4461      	add	r1, ip
 8006106:	fa1f fc83 	uxth.w	ip, r3
 800610a:	0c1b      	lsrs	r3, r3, #16
 800610c:	eba1 010c 	sub.w	r1, r1, ip
 8006110:	ebc3 431b 	rsb	r3, r3, fp, lsr #16
 8006114:	eb03 4321 	add.w	r3, r3, r1, asr #16
 8006118:	b289      	uxth	r1, r1
 800611a:	ea4f 4c23 	mov.w	ip, r3, asr #16
 800611e:	454e      	cmp	r6, r9
 8006120:	ea41 4303 	orr.w	r3, r1, r3, lsl #16
 8006124:	f84a 3b04 	str.w	r3, [sl], #4
 8006128:	d8e6      	bhi.n	80060f8 <__mdiff+0x84>
 800612a:	1b33      	subs	r3, r6, r4
 800612c:	3b15      	subs	r3, #21
 800612e:	f023 0303 	bic.w	r3, r3, #3
 8006132:	3415      	adds	r4, #21
 8006134:	3304      	adds	r3, #4
 8006136:	42a6      	cmp	r6, r4
 8006138:	bf38      	it	cc
 800613a:	2304      	movcc	r3, #4
 800613c:	441d      	add	r5, r3
 800613e:	4443      	add	r3, r8
 8006140:	461e      	mov	r6, r3
 8006142:	462c      	mov	r4, r5
 8006144:	4574      	cmp	r4, lr
 8006146:	d30e      	bcc.n	8006166 <__mdiff+0xf2>
 8006148:	f10e 0103 	add.w	r1, lr, #3
 800614c:	1b49      	subs	r1, r1, r5
 800614e:	f021 0103 	bic.w	r1, r1, #3
 8006152:	3d03      	subs	r5, #3
 8006154:	45ae      	cmp	lr, r5
 8006156:	bf38      	it	cc
 8006158:	2100      	movcc	r1, #0
 800615a:	4419      	add	r1, r3
 800615c:	f851 3d04 	ldr.w	r3, [r1, #-4]!
 8006160:	b18b      	cbz	r3, 8006186 <__mdiff+0x112>
 8006162:	6117      	str	r7, [r2, #16]
 8006164:	e7a0      	b.n	80060a8 <__mdiff+0x34>
 8006166:	f854 8b04 	ldr.w	r8, [r4], #4
 800616a:	fa1f f188 	uxth.w	r1, r8
 800616e:	4461      	add	r1, ip
 8006170:	1408      	asrs	r0, r1, #16
 8006172:	eb00 4018 	add.w	r0, r0, r8, lsr #16
 8006176:	b289      	uxth	r1, r1
 8006178:	ea41 4100 	orr.w	r1, r1, r0, lsl #16
 800617c:	ea4f 4c20 	mov.w	ip, r0, asr #16
 8006180:	f846 1b04 	str.w	r1, [r6], #4
 8006184:	e7de      	b.n	8006144 <__mdiff+0xd0>
 8006186:	3f01      	subs	r7, #1
 8006188:	e7e8      	b.n	800615c <__mdiff+0xe8>
 800618a:	bf00      	nop
 800618c:	08008c88 	.word	0x08008c88
 8006190:	08008d2f 	.word	0x08008d2f

08006194 <__ulp>:
 8006194:	4b11      	ldr	r3, [pc, #68]	; (80061dc <__ulp+0x48>)
 8006196:	400b      	ands	r3, r1
 8006198:	f1a3 7350 	sub.w	r3, r3, #54525952	; 0x3400000
 800619c:	2b00      	cmp	r3, #0
 800619e:	dd02      	ble.n	80061a6 <__ulp+0x12>
 80061a0:	2000      	movs	r0, #0
 80061a2:	4619      	mov	r1, r3
 80061a4:	4770      	bx	lr
 80061a6:	425b      	negs	r3, r3
 80061a8:	f1b3 7fa0 	cmp.w	r3, #20971520	; 0x1400000
 80061ac:	f04f 0000 	mov.w	r0, #0
 80061b0:	f04f 0100 	mov.w	r1, #0
 80061b4:	ea4f 5223 	mov.w	r2, r3, asr #20
 80061b8:	da04      	bge.n	80061c4 <__ulp+0x30>
 80061ba:	f44f 2300 	mov.w	r3, #524288	; 0x80000
 80061be:	fa43 f102 	asr.w	r1, r3, r2
 80061c2:	4770      	bx	lr
 80061c4:	f1a2 0314 	sub.w	r3, r2, #20
 80061c8:	2b1e      	cmp	r3, #30
 80061ca:	bfd6      	itet	le
 80061cc:	f04f 4200 	movle.w	r2, #2147483648	; 0x80000000
 80061d0:	2301      	movgt	r3, #1
 80061d2:	fa22 f303 	lsrle.w	r3, r2, r3
 80061d6:	4618      	mov	r0, r3
 80061d8:	4770      	bx	lr
 80061da:	bf00      	nop
 80061dc:	7ff00000 	.word	0x7ff00000

080061e0 <__b2d>:
 80061e0:	e92d 43f8 	stmdb	sp!, {r3, r4, r5, r6, r7, r8, r9, lr}
 80061e4:	6907      	ldr	r7, [r0, #16]
 80061e6:	f100 0914 	add.w	r9, r0, #20
 80061ea:	eb09 0787 	add.w	r7, r9, r7, lsl #2
 80061ee:	f857 6c04 	ldr.w	r6, [r7, #-4]
 80061f2:	f1a7 0804 	sub.w	r8, r7, #4
 80061f6:	4630      	mov	r0, r6
 80061f8:	f7ff fd52 	bl	8005ca0 <__hi0bits>
 80061fc:	f1c0 0320 	rsb	r3, r0, #32
 8006200:	280a      	cmp	r0, #10
 8006202:	600b      	str	r3, [r1, #0]
 8006204:	491f      	ldr	r1, [pc, #124]	; (8006284 <__b2d+0xa4>)
 8006206:	dc17      	bgt.n	8006238 <__b2d+0x58>
 8006208:	45c1      	cmp	r9, r8
 800620a:	bf28      	it	cs
 800620c:	2200      	movcs	r2, #0
 800620e:	f1c0 0c0b 	rsb	ip, r0, #11
 8006212:	fa26 f30c 	lsr.w	r3, r6, ip
 8006216:	bf38      	it	cc
 8006218:	f857 2c08 	ldrcc.w	r2, [r7, #-8]
 800621c:	ea43 0501 	orr.w	r5, r3, r1
 8006220:	f100 0315 	add.w	r3, r0, #21
 8006224:	fa06 f303 	lsl.w	r3, r6, r3
 8006228:	fa22 f20c 	lsr.w	r2, r2, ip
 800622c:	ea43 0402 	orr.w	r4, r3, r2
 8006230:	4620      	mov	r0, r4
 8006232:	4629      	mov	r1, r5
 8006234:	e8bd 83f8 	ldmia.w	sp!, {r3, r4, r5, r6, r7, r8, r9, pc}
 8006238:	45c1      	cmp	r9, r8
 800623a:	bf2e      	itee	cs
 800623c:	2200      	movcs	r2, #0
 800623e:	f857 2c08 	ldrcc.w	r2, [r7, #-8]
 8006242:	f1a7 0808 	subcc.w	r8, r7, #8
 8006246:	f1b0 030b 	subs.w	r3, r0, #11
 800624a:	d016      	beq.n	800627a <__b2d+0x9a>
 800624c:	f1c3 0720 	rsb	r7, r3, #32
 8006250:	fa22 f107 	lsr.w	r1, r2, r7
 8006254:	45c8      	cmp	r8, r9
 8006256:	fa06 f603 	lsl.w	r6, r6, r3
 800625a:	ea46 0601 	orr.w	r6, r6, r1
 800625e:	bf94      	ite	ls
 8006260:	2100      	movls	r1, #0
 8006262:	f858 1c04 	ldrhi.w	r1, [r8, #-4]
 8006266:	f046 557f 	orr.w	r5, r6, #1069547520	; 0x3fc00000
 800626a:	fa02 f003 	lsl.w	r0, r2, r3
 800626e:	40f9      	lsrs	r1, r7
 8006270:	f445 1540 	orr.w	r5, r5, #3145728	; 0x300000
 8006274:	ea40 0401 	orr.w	r4, r0, r1
 8006278:	e7da      	b.n	8006230 <__b2d+0x50>
 800627a:	4614      	mov	r4, r2
 800627c:	ea46 0501 	orr.w	r5, r6, r1
 8006280:	e7d6      	b.n	8006230 <__b2d+0x50>
 8006282:	bf00      	nop
 8006284:	3ff00000 	.word	0x3ff00000

08006288 <__d2b>:
 8006288:	e92d 41f3 	stmdb	sp!, {r0, r1, r4, r5, r6, r7, r8, lr}
 800628c:	2101      	movs	r1, #1
 800628e:	e9dd 7608 	ldrd	r7, r6, [sp, #32]
 8006292:	4690      	mov	r8, r2
 8006294:	461d      	mov	r5, r3
 8006296:	f7ff fc0d 	bl	8005ab4 <_Balloc>
 800629a:	4604      	mov	r4, r0
 800629c:	b930      	cbnz	r0, 80062ac <__d2b+0x24>
 800629e:	4602      	mov	r2, r0
 80062a0:	f240 310a 	movw	r1, #778	; 0x30a
 80062a4:	4b24      	ldr	r3, [pc, #144]	; (8006338 <__d2b+0xb0>)
 80062a6:	4825      	ldr	r0, [pc, #148]	; (800633c <__d2b+0xb4>)
 80062a8:	f000 f95a 	bl	8006560 <__assert_func>
 80062ac:	f3c5 0313 	ubfx	r3, r5, #0, #20
 80062b0:	f3c5 550a 	ubfx	r5, r5, #20, #11
 80062b4:	bb2d      	cbnz	r5, 8006302 <__d2b+0x7a>
 80062b6:	9301      	str	r3, [sp, #4]
 80062b8:	f1b8 0300 	subs.w	r3, r8, #0
 80062bc:	d026      	beq.n	800630c <__d2b+0x84>
 80062be:	4668      	mov	r0, sp
 80062c0:	9300      	str	r3, [sp, #0]
 80062c2:	f7ff fd0d 	bl	8005ce0 <__lo0bits>
 80062c6:	9900      	ldr	r1, [sp, #0]
 80062c8:	b1f0      	cbz	r0, 8006308 <__d2b+0x80>
 80062ca:	9a01      	ldr	r2, [sp, #4]
 80062cc:	f1c0 0320 	rsb	r3, r0, #32
 80062d0:	fa02 f303 	lsl.w	r3, r2, r3
 80062d4:	430b      	orrs	r3, r1
 80062d6:	40c2      	lsrs	r2, r0
 80062d8:	6163      	str	r3, [r4, #20]
 80062da:	9201      	str	r2, [sp, #4]
 80062dc:	9b01      	ldr	r3, [sp, #4]
 80062de:	2b00      	cmp	r3, #0
 80062e0:	bf14      	ite	ne
 80062e2:	2102      	movne	r1, #2
 80062e4:	2101      	moveq	r1, #1
 80062e6:	61a3      	str	r3, [r4, #24]
 80062e8:	6121      	str	r1, [r4, #16]
 80062ea:	b1c5      	cbz	r5, 800631e <__d2b+0x96>
 80062ec:	f2a5 4533 	subw	r5, r5, #1075	; 0x433
 80062f0:	4405      	add	r5, r0
 80062f2:	f1c0 0035 	rsb	r0, r0, #53	; 0x35
 80062f6:	603d      	str	r5, [r7, #0]
 80062f8:	6030      	str	r0, [r6, #0]
 80062fa:	4620      	mov	r0, r4
 80062fc:	b002      	add	sp, #8
 80062fe:	e8bd 81f0 	ldmia.w	sp!, {r4, r5, r6, r7, r8, pc}
 8006302:	f443 1380 	orr.w	r3, r3, #1048576	; 0x100000
 8006306:	e7d6      	b.n	80062b6 <__d2b+0x2e>
 8006308:	6161      	str	r1, [r4, #20]
 800630a:	e7e7      	b.n	80062dc <__d2b+0x54>
 800630c:	a801      	add	r0, sp, #4
 800630e:	f7ff fce7 	bl	8005ce0 <__lo0bits>
 8006312:	2101      	movs	r1, #1
 8006314:	9b01      	ldr	r3, [sp, #4]
 8006316:	6121      	str	r1, [r4, #16]
 8006318:	6163      	str	r3, [r4, #20]
 800631a:	3020      	adds	r0, #32
 800631c:	e7e5      	b.n	80062ea <__d2b+0x62>
 800631e:	eb04 0381 	add.w	r3, r4, r1, lsl #2
 8006322:	f2a0 4032 	subw	r0, r0, #1074	; 0x432
 8006326:	6038      	str	r0, [r7, #0]
 8006328:	6918      	ldr	r0, [r3, #16]
 800632a:	f7ff fcb9 	bl	8005ca0 <__hi0bits>
 800632e:	ebc0 1141 	rsb	r1, r0, r1, lsl #5
 8006332:	6031      	str	r1, [r6, #0]
 8006334:	e7e1      	b.n	80062fa <__d2b+0x72>
 8006336:	bf00      	nop
 8006338:	08008c88 	.word	0x08008c88
 800633c:	08008d2f 	.word	0x08008d2f

08006340 <__ratio>:
 8006340:	e92d 4ff7 	stmdb	sp!, {r0, r1, r2, r4, r5, r6, r7, r8, r9, sl, fp, lr}
 8006344:	4688      	mov	r8, r1
 8006346:	4669      	mov	r1, sp
 8006348:	4681      	mov	r9, r0
 800634a:	f7ff ff49 	bl	80061e0 <__b2d>
 800634e:	460f      	mov	r7, r1
 8006350:	4604      	mov	r4, r0
 8006352:	460d      	mov	r5, r1
 8006354:	4640      	mov	r0, r8
 8006356:	a901      	add	r1, sp, #4
 8006358:	f7ff ff42 	bl	80061e0 <__b2d>
 800635c:	f8d9 3010 	ldr.w	r3, [r9, #16]
 8006360:	f8d8 2010 	ldr.w	r2, [r8, #16]
 8006364:	468b      	mov	fp, r1
 8006366:	eba3 0c02 	sub.w	ip, r3, r2
 800636a:	e9dd 3200 	ldrd	r3, r2, [sp]
 800636e:	1a9b      	subs	r3, r3, r2
 8006370:	eb03 134c 	add.w	r3, r3, ip, lsl #5
 8006374:	2b00      	cmp	r3, #0
 8006376:	bfd5      	itete	le
 8006378:	460a      	movle	r2, r1
 800637a:	462a      	movgt	r2, r5
 800637c:	ebc3 3303 	rsble	r3, r3, r3, lsl #12
 8006380:	eb02 5703 	addgt.w	r7, r2, r3, lsl #20
 8006384:	bfd8      	it	le
 8006386:	eb02 5b03 	addle.w	fp, r2, r3, lsl #20
 800638a:	465b      	mov	r3, fp
 800638c:	4602      	mov	r2, r0
 800638e:	4639      	mov	r1, r7
 8006390:	4620      	mov	r0, r4
 8006392:	f7fa f9cb 	bl	800072c <__aeabi_ddiv>
 8006396:	b003      	add	sp, #12
 8006398:	e8bd 8ff0 	ldmia.w	sp!, {r4, r5, r6, r7, r8, r9, sl, fp, pc}

0800639c <__copybits>:
 800639c:	3901      	subs	r1, #1
 800639e:	b570      	push	{r4, r5, r6, lr}
 80063a0:	1149      	asrs	r1, r1, #5
 80063a2:	6914      	ldr	r4, [r2, #16]
 80063a4:	3101      	adds	r1, #1
 80063a6:	f102 0314 	add.w	r3, r2, #20
 80063aa:	eb00 0181 	add.w	r1, r0, r1, lsl #2
 80063ae:	eb03 0484 	add.w	r4, r3, r4, lsl #2
 80063b2:	1f05      	subs	r5, r0, #4
 80063b4:	42a3      	cmp	r3, r4
 80063b6:	d30c      	bcc.n	80063d2 <__copybits+0x36>
 80063b8:	1aa3      	subs	r3, r4, r2
 80063ba:	3b11      	subs	r3, #17
 80063bc:	f023 0303 	bic.w	r3, r3, #3
 80063c0:	3211      	adds	r2, #17
 80063c2:	42a2      	cmp	r2, r4
 80063c4:	bf88      	it	hi
 80063c6:	2300      	movhi	r3, #0
 80063c8:	4418      	add	r0, r3
 80063ca:	2300      	movs	r3, #0
 80063cc:	4288      	cmp	r0, r1
 80063ce:	d305      	bcc.n	80063dc <__copybits+0x40>
 80063d0:	bd70      	pop	{r4, r5, r6, pc}
 80063d2:	f853 6b04 	ldr.w	r6, [r3], #4
 80063d6:	f845 6f04 	str.w	r6, [r5, #4]!
 80063da:	e7eb      	b.n	80063b4 <__copybits+0x18>
 80063dc:	f840 3b04 	str.w	r3, [r0], #4
 80063e0:	e7f4      	b.n	80063cc <__copybits+0x30>

080063e2 <__any_on>:
 80063e2:	f100 0214 	add.w	r2, r0, #20
 80063e6:	6900      	ldr	r0, [r0, #16]
 80063e8:	114b      	asrs	r3, r1, #5
 80063ea:	4298      	cmp	r0, r3
 80063ec:	b510      	push	{r4, lr}
 80063ee:	db11      	blt.n	8006414 <__any_on+0x32>
 80063f0:	dd0a      	ble.n	8006408 <__any_on+0x26>
 80063f2:	f011 011f 	ands.w	r1, r1, #31
 80063f6:	d007      	beq.n	8006408 <__any_on+0x26>
 80063f8:	f852 4023 	ldr.w	r4, [r2, r3, lsl #2]
 80063fc:	fa24 f001 	lsr.w	r0, r4, r1
 8006400:	fa00 f101 	lsl.w	r1, r0, r1
 8006404:	428c      	cmp	r4, r1
 8006406:	d10b      	bne.n	8006420 <__any_on+0x3e>
 8006408:	eb02 0383 	add.w	r3, r2, r3, lsl #2
 800640c:	4293      	cmp	r3, r2
 800640e:	d803      	bhi.n	8006418 <__any_on+0x36>
 8006410:	2000      	movs	r0, #0
 8006412:	bd10      	pop	{r4, pc}
 8006414:	4603      	mov	r3, r0
 8006416:	e7f7      	b.n	8006408 <__any_on+0x26>
 8006418:	f853 1d04 	ldr.w	r1, [r3, #-4]!
 800641c:	2900      	cmp	r1, #0
 800641e:	d0f5      	beq.n	800640c <__any_on+0x2a>
 8006420:	2001      	movs	r0, #1
 8006422:	e7f6      	b.n	8006412 <__any_on+0x30>

08006424 <_calloc_r>:
 8006424:	b538      	push	{r3, r4, r5, lr}
 8006426:	fb02 f501 	mul.w	r5, r2, r1
 800642a:	4629      	mov	r1, r5
 800642c:	f000 f808 	bl	8006440 <_malloc_r>
 8006430:	4604      	mov	r4, r0
 8006432:	b118      	cbz	r0, 800643c <_calloc_r+0x18>
 8006434:	462a      	mov	r2, r5
 8006436:	2100      	movs	r1, #0
 8006438:	f7fe f98a 	bl	8004750 <memset>
 800643c:	4620      	mov	r0, r4
 800643e:	bd38      	pop	{r3, r4, r5, pc}

08006440 <_malloc_r>:
 8006440:	b5f8      	push	{r3, r4, r5, r6, r7, lr}
 8006442:	1ccd      	adds	r5, r1, #3
 8006444:	f025 0503 	bic.w	r5, r5, #3
 8006448:	3508      	adds	r5, #8
 800644a:	2d0c      	cmp	r5, #12
 800644c:	bf38      	it	cc
 800644e:	250c      	movcc	r5, #12
 8006450:	2d00      	cmp	r5, #0
 8006452:	4606      	mov	r6, r0
 8006454:	db01      	blt.n	800645a <_malloc_r+0x1a>
 8006456:	42a9      	cmp	r1, r5
 8006458:	d903      	bls.n	8006462 <_malloc_r+0x22>
 800645a:	230c      	movs	r3, #12
 800645c:	6033      	str	r3, [r6, #0]
 800645e:	2000      	movs	r0, #0
 8006460:	bdf8      	pop	{r3, r4, r5, r6, r7, pc}
 8006462:	f000 f8b5 	bl	80065d0 <__malloc_lock>
 8006466:	4921      	ldr	r1, [pc, #132]	; (80064ec <_malloc_r+0xac>)
 8006468:	680a      	ldr	r2, [r1, #0]
 800646a:	4614      	mov	r4, r2
 800646c:	b99c      	cbnz	r4, 8006496 <_malloc_r+0x56>
 800646e:	4f20      	ldr	r7, [pc, #128]	; (80064f0 <_malloc_r+0xb0>)
 8006470:	683b      	ldr	r3, [r7, #0]
 8006472:	b923      	cbnz	r3, 800647e <_malloc_r+0x3e>
 8006474:	4621      	mov	r1, r4
 8006476:	4630      	mov	r0, r6
 8006478:	f000 f842 	bl	8006500 <_sbrk_r>
 800647c:	6038      	str	r0, [r7, #0]
 800647e:	4629      	mov	r1, r5
 8006480:	4630      	mov	r0, r6
 8006482:	f000 f83d 	bl	8006500 <_sbrk_r>
 8006486:	1c43      	adds	r3, r0, #1
 8006488:	d123      	bne.n	80064d2 <_malloc_r+0x92>
 800648a:	230c      	movs	r3, #12
 800648c:	4630      	mov	r0, r6
 800648e:	6033      	str	r3, [r6, #0]
 8006490:	f000 f8a4 	bl	80065dc <__malloc_unlock>
 8006494:	e7e3      	b.n	800645e <_malloc_r+0x1e>
 8006496:	6823      	ldr	r3, [r4, #0]
 8006498:	1b5b      	subs	r3, r3, r5
 800649a:	d417      	bmi.n	80064cc <_malloc_r+0x8c>
 800649c:	2b0b      	cmp	r3, #11
 800649e:	d903      	bls.n	80064a8 <_malloc_r+0x68>
 80064a0:	6023      	str	r3, [r4, #0]
 80064a2:	441c      	add	r4, r3
 80064a4:	6025      	str	r5, [r4, #0]
 80064a6:	e004      	b.n	80064b2 <_malloc_r+0x72>
 80064a8:	6863      	ldr	r3, [r4, #4]
 80064aa:	42a2      	cmp	r2, r4
 80064ac:	bf0c      	ite	eq
 80064ae:	600b      	streq	r3, [r1, #0]
 80064b0:	6053      	strne	r3, [r2, #4]
 80064b2:	4630      	mov	r0, r6
 80064b4:	f000 f892 	bl	80065dc <__malloc_unlock>
 80064b8:	f104 000b 	add.w	r0, r4, #11
 80064bc:	1d23      	adds	r3, r4, #4
 80064be:	f020 0007 	bic.w	r0, r0, #7
 80064c2:	1ac2      	subs	r2, r0, r3
 80064c4:	d0cc      	beq.n	8006460 <_malloc_r+0x20>
 80064c6:	1a1b      	subs	r3, r3, r0
 80064c8:	50a3      	str	r3, [r4, r2]
 80064ca:	e7c9      	b.n	8006460 <_malloc_r+0x20>
 80064cc:	4622      	mov	r2, r4
 80064ce:	6864      	ldr	r4, [r4, #4]
 80064d0:	e7cc      	b.n	800646c <_malloc_r+0x2c>
 80064d2:	1cc4      	adds	r4, r0, #3
 80064d4:	f024 0403 	bic.w	r4, r4, #3
 80064d8:	42a0      	cmp	r0, r4
 80064da:	d0e3      	beq.n	80064a4 <_malloc_r+0x64>
 80064dc:	1a21      	subs	r1, r4, r0
 80064de:	4630      	mov	r0, r6
 80064e0:	f000 f80e 	bl	8006500 <_sbrk_r>
 80064e4:	3001      	adds	r0, #1
 80064e6:	d1dd      	bne.n	80064a4 <_malloc_r+0x64>
 80064e8:	e7cf      	b.n	800648a <_malloc_r+0x4a>
 80064ea:	bf00      	nop
 80064ec:	200002a4 	.word	0x200002a4
 80064f0:	200002a8 	.word	0x200002a8

080064f4 <nan>:
 80064f4:	2000      	movs	r0, #0
 80064f6:	4901      	ldr	r1, [pc, #4]	; (80064fc <nan+0x8>)
 80064f8:	4770      	bx	lr
 80064fa:	bf00      	nop
 80064fc:	7ff80000 	.word	0x7ff80000

08006500 <_sbrk_r>:
 8006500:	b538      	push	{r3, r4, r5, lr}
 8006502:	2300      	movs	r3, #0
 8006504:	4d05      	ldr	r5, [pc, #20]	; (800651c <_sbrk_r+0x1c>)
 8006506:	4604      	mov	r4, r0
 8006508:	4608      	mov	r0, r1
 800650a:	602b      	str	r3, [r5, #0]
 800650c:	f7fc fa54 	bl	80029b8 <_sbrk>
 8006510:	1c43      	adds	r3, r0, #1
 8006512:	d102      	bne.n	800651a <_sbrk_r+0x1a>
 8006514:	682b      	ldr	r3, [r5, #0]
 8006516:	b103      	cbz	r3, 800651a <_sbrk_r+0x1a>
 8006518:	6023      	str	r3, [r4, #0]
 800651a:	bd38      	pop	{r3, r4, r5, pc}
 800651c:	20000424 	.word	0x20000424

08006520 <strncmp>:
 8006520:	b510      	push	{r4, lr}
 8006522:	b16a      	cbz	r2, 8006540 <strncmp+0x20>
 8006524:	3901      	subs	r1, #1
 8006526:	1884      	adds	r4, r0, r2
 8006528:	f810 3b01 	ldrb.w	r3, [r0], #1
 800652c:	f811 2f01 	ldrb.w	r2, [r1, #1]!
 8006530:	4293      	cmp	r3, r2
 8006532:	d103      	bne.n	800653c <strncmp+0x1c>
 8006534:	42a0      	cmp	r0, r4
 8006536:	d001      	beq.n	800653c <strncmp+0x1c>
 8006538:	2b00      	cmp	r3, #0
 800653a:	d1f5      	bne.n	8006528 <strncmp+0x8>
 800653c:	1a98      	subs	r0, r3, r2
 800653e:	bd10      	pop	{r4, pc}
 8006540:	4610      	mov	r0, r2
 8006542:	e7fc      	b.n	800653e <strncmp+0x1e>

08006544 <__ascii_wctomb>:
 8006544:	4603      	mov	r3, r0
 8006546:	4608      	mov	r0, r1
 8006548:	b141      	cbz	r1, 800655c <__ascii_wctomb+0x18>
 800654a:	2aff      	cmp	r2, #255	; 0xff
 800654c:	d904      	bls.n	8006558 <__ascii_wctomb+0x14>
 800654e:	228a      	movs	r2, #138	; 0x8a
 8006550:	f04f 30ff 	mov.w	r0, #4294967295	; 0xffffffff
 8006554:	601a      	str	r2, [r3, #0]
 8006556:	4770      	bx	lr
 8006558:	2001      	movs	r0, #1
 800655a:	700a      	strb	r2, [r1, #0]
 800655c:	4770      	bx	lr
	...

08006560 <__assert_func>:
 8006560:	b51f      	push	{r0, r1, r2, r3, r4, lr}
 8006562:	4614      	mov	r4, r2
 8006564:	461a      	mov	r2, r3
 8006566:	4b09      	ldr	r3, [pc, #36]	; (800658c <__assert_func+0x2c>)
 8006568:	4605      	mov	r5, r0
 800656a:	681b      	ldr	r3, [r3, #0]
 800656c:	68d8      	ldr	r0, [r3, #12]
 800656e:	b14c      	cbz	r4, 8006584 <__assert_func+0x24>
 8006570:	4b07      	ldr	r3, [pc, #28]	; (8006590 <__assert_func+0x30>)
 8006572:	e9cd 3401 	strd	r3, r4, [sp, #4]
 8006576:	9100      	str	r1, [sp, #0]
 8006578:	462b      	mov	r3, r5
 800657a:	4906      	ldr	r1, [pc, #24]	; (8006594 <__assert_func+0x34>)
 800657c:	f000 f80e 	bl	800659c <fiprintf>
 8006580:	f000 fc2c 	bl	8006ddc <abort>
 8006584:	4b04      	ldr	r3, [pc, #16]	; (8006598 <__assert_func+0x38>)
 8006586:	461c      	mov	r4, r3
 8006588:	e7f3      	b.n	8006572 <__assert_func+0x12>
 800658a:	bf00      	nop
 800658c:	200000ac 	.word	0x200000ac
 8006590:	08008e8c 	.word	0x08008e8c
 8006594:	08008e99 	.word	0x08008e99
 8006598:	08008ec7 	.word	0x08008ec7

0800659c <fiprintf>:
 800659c:	b40e      	push	{r1, r2, r3}
 800659e:	b503      	push	{r0, r1, lr}
 80065a0:	4601      	mov	r1, r0
 80065a2:	ab03      	add	r3, sp, #12
 80065a4:	4805      	ldr	r0, [pc, #20]	; (80065bc <fiprintf+0x20>)
 80065a6:	f853 2b04 	ldr.w	r2, [r3], #4
 80065aa:	6800      	ldr	r0, [r0, #0]
 80065ac:	9301      	str	r3, [sp, #4]
 80065ae:	f000 f88f 	bl	80066d0 <_vfiprintf_r>
 80065b2:	b002      	add	sp, #8
 80065b4:	f85d eb04 	ldr.w	lr, [sp], #4
 80065b8:	b003      	add	sp, #12
 80065ba:	4770      	bx	lr
 80065bc:	200000ac 	.word	0x200000ac

080065c0 <malloc>:
 80065c0:	4b02      	ldr	r3, [pc, #8]	; (80065cc <malloc+0xc>)
 80065c2:	4601      	mov	r1, r0
 80065c4:	6818      	ldr	r0, [r3, #0]
 80065c6:	f7ff bf3b 	b.w	8006440 <_malloc_r>
 80065ca:	bf00      	nop
 80065cc:	200000ac 	.word	0x200000ac

080065d0 <__malloc_lock>:
 80065d0:	4801      	ldr	r0, [pc, #4]	; (80065d8 <__malloc_lock+0x8>)
 80065d2:	f000 bdc3 	b.w	800715c <__retarget_lock_acquire_recursive>
 80065d6:	bf00      	nop
 80065d8:	2000042c 	.word	0x2000042c

080065dc <__malloc_unlock>:
 80065dc:	4801      	ldr	r0, [pc, #4]	; (80065e4 <__malloc_unlock+0x8>)
 80065de:	f000 bdbe 	b.w	800715e <__retarget_lock_release_recursive>
 80065e2:	bf00      	nop
 80065e4:	2000042c 	.word	0x2000042c

080065e8 <_free_r>:
 80065e8:	b538      	push	{r3, r4, r5, lr}
 80065ea:	4605      	mov	r5, r0
 80065ec:	2900      	cmp	r1, #0
 80065ee:	d043      	beq.n	8006678 <_free_r+0x90>
 80065f0:	f851 3c04 	ldr.w	r3, [r1, #-4]
 80065f4:	1f0c      	subs	r4, r1, #4
 80065f6:	2b00      	cmp	r3, #0
 80065f8:	bfb8      	it	lt
 80065fa:	18e4      	addlt	r4, r4, r3
 80065fc:	f7ff ffe8 	bl	80065d0 <__malloc_lock>
 8006600:	4a1e      	ldr	r2, [pc, #120]	; (800667c <_free_r+0x94>)
 8006602:	6813      	ldr	r3, [r2, #0]
 8006604:	4610      	mov	r0, r2
 8006606:	b933      	cbnz	r3, 8006616 <_free_r+0x2e>
 8006608:	6063      	str	r3, [r4, #4]
 800660a:	6014      	str	r4, [r2, #0]
 800660c:	4628      	mov	r0, r5
 800660e:	e8bd 4038 	ldmia.w	sp!, {r3, r4, r5, lr}
 8006612:	f7ff bfe3 	b.w	80065dc <__malloc_unlock>
 8006616:	42a3      	cmp	r3, r4
 8006618:	d90a      	bls.n	8006630 <_free_r+0x48>
 800661a:	6821      	ldr	r1, [r4, #0]
 800661c:	1862      	adds	r2, r4, r1
 800661e:	4293      	cmp	r3, r2
 8006620:	bf01      	itttt	eq
 8006622:	681a      	ldreq	r2, [r3, #0]
 8006624:	685b      	ldreq	r3, [r3, #4]
 8006626:	1852      	addeq	r2, r2, r1
 8006628:	6022      	streq	r2, [r4, #0]
 800662a:	6063      	str	r3, [r4, #4]
 800662c:	6004      	str	r4, [r0, #0]
 800662e:	e7ed      	b.n	800660c <_free_r+0x24>
 8006630:	461a      	mov	r2, r3
 8006632:	685b      	ldr	r3, [r3, #4]
 8006634:	b10b      	cbz	r3, 800663a <_free_r+0x52>
 8006636:	42a3      	cmp	r3, r4
 8006638:	d9fa      	bls.n	8006630 <_free_r+0x48>
 800663a:	6811      	ldr	r1, [r2, #0]
 800663c:	1850      	adds	r0, r2, r1
 800663e:	42a0      	cmp	r0, r4
 8006640:	d10b      	bne.n	800665a <_free_r+0x72>
 8006642:	6820      	ldr	r0, [r4, #0]
 8006644:	4401      	add	r1, r0
 8006646:	1850      	adds	r0, r2, r1
 8006648:	4283      	cmp	r3, r0
 800664a:	6011      	str	r1, [r2, #0]
 800664c:	d1de      	bne.n	800660c <_free_r+0x24>
 800664e:	6818      	ldr	r0, [r3, #0]
 8006650:	685b      	ldr	r3, [r3, #4]
 8006652:	4401      	add	r1, r0
 8006654:	6011      	str	r1, [r2, #0]
 8006656:	6053      	str	r3, [r2, #4]
 8006658:	e7d8      	b.n	800660c <_free_r+0x24>
 800665a:	d902      	bls.n	8006662 <_free_r+0x7a>
 800665c:	230c      	movs	r3, #12
 800665e:	602b      	str	r3, [r5, #0]
 8006660:	e7d4      	b.n	800660c <_free_r+0x24>
 8006662:	6820      	ldr	r0, [r4, #0]
 8006664:	1821      	adds	r1, r4, r0
 8006666:	428b      	cmp	r3, r1
 8006668:	bf01      	itttt	eq
 800666a:	6819      	ldreq	r1, [r3, #0]
 800666c:	685b      	ldreq	r3, [r3, #4]
 800666e:	1809      	addeq	r1, r1, r0
 8006670:	6021      	streq	r1, [r4, #0]
 8006672:	6063      	str	r3, [r4, #4]
 8006674:	6054      	str	r4, [r2, #4]
 8006676:	e7c9      	b.n	800660c <_free_r+0x24>
 8006678:	bd38      	pop	{r3, r4, r5, pc}
 800667a:	bf00      	nop
 800667c:	200002a4 	.word	0x200002a4

08006680 <__sfputc_r>:
 8006680:	6893      	ldr	r3, [r2, #8]
 8006682:	b410      	push	{r4}
 8006684:	3b01      	subs	r3, #1
 8006686:	2b00      	cmp	r3, #0
 8006688:	6093      	str	r3, [r2, #8]
 800668a:	da07      	bge.n	800669c <__sfputc_r+0x1c>
 800668c:	6994      	ldr	r4, [r2, #24]
 800668e:	42a3      	cmp	r3, r4
 8006690:	db01      	blt.n	8006696 <__sfputc_r+0x16>
 8006692:	290a      	cmp	r1, #10
 8006694:	d102      	bne.n	800669c <__sfputc_r+0x1c>
 8006696:	bc10      	pop	{r4}
 8006698:	f000 bae0 	b.w	8006c5c <__swbuf_r>
 800669c:	6813      	ldr	r3, [r2, #0]
 800669e:	1c58      	adds	r0, r3, #1
 80066a0:	6010      	str	r0, [r2, #0]
 80066a2:	7019      	strb	r1, [r3, #0]
 80066a4:	4608      	mov	r0, r1
 80066a6:	bc10      	pop	{r4}
 80066a8:	4770      	bx	lr

080066aa <__sfputs_r>:
 80066aa:	b5f8      	push	{r3, r4, r5, r6, r7, lr}
 80066ac:	4606      	mov	r6, r0
 80066ae:	460f      	mov	r7, r1
 80066b0:	4614      	mov	r4, r2
 80066b2:	18d5      	adds	r5, r2, r3
 80066b4:	42ac      	cmp	r4, r5
 80066b6:	d101      	bne.n	80066bc <__sfputs_r+0x12>
 80066b8:	2000      	movs	r0, #0
 80066ba:	e007      	b.n	80066cc <__sfputs_r+0x22>
 80066bc:	463a      	mov	r2, r7
 80066be:	4630      	mov	r0, r6
 80066c0:	f814 1b01 	ldrb.w	r1, [r4], #1
 80066c4:	f7ff ffdc 	bl	8006680 <__sfputc_r>
 80066c8:	1c43      	adds	r3, r0, #1
 80066ca:	d1f3      	bne.n	80066b4 <__sfputs_r+0xa>
 80066cc:	bdf8      	pop	{r3, r4, r5, r6, r7, pc}
	...

080066d0 <_vfiprintf_r>:
 80066d0:	e92d 4ff0 	stmdb	sp!, {r4, r5, r6, r7, r8, r9, sl, fp, lr}
 80066d4:	460d      	mov	r5, r1
 80066d6:	4614      	mov	r4, r2
 80066d8:	4698      	mov	r8, r3
 80066da:	4606      	mov	r6, r0
 80066dc:	b09d      	sub	sp, #116	; 0x74
 80066de:	b118      	cbz	r0, 80066e8 <_vfiprintf_r+0x18>
 80066e0:	6983      	ldr	r3, [r0, #24]
 80066e2:	b90b      	cbnz	r3, 80066e8 <_vfiprintf_r+0x18>
 80066e4:	f000 fc9c 	bl	8007020 <__sinit>
 80066e8:	4b89      	ldr	r3, [pc, #548]	; (8006910 <_vfiprintf_r+0x240>)
 80066ea:	429d      	cmp	r5, r3
 80066ec:	d11b      	bne.n	8006726 <_vfiprintf_r+0x56>
 80066ee:	6875      	ldr	r5, [r6, #4]
 80066f0:	6e6b      	ldr	r3, [r5, #100]	; 0x64
 80066f2:	07d9      	lsls	r1, r3, #31
 80066f4:	d405      	bmi.n	8006702 <_vfiprintf_r+0x32>
 80066f6:	89ab      	ldrh	r3, [r5, #12]
 80066f8:	059a      	lsls	r2, r3, #22
 80066fa:	d402      	bmi.n	8006702 <_vfiprintf_r+0x32>
 80066fc:	6da8      	ldr	r0, [r5, #88]	; 0x58
 80066fe:	f000 fd2d 	bl	800715c <__retarget_lock_acquire_recursive>
 8006702:	89ab      	ldrh	r3, [r5, #12]
 8006704:	071b      	lsls	r3, r3, #28
 8006706:	d501      	bpl.n	800670c <_vfiprintf_r+0x3c>
 8006708:	692b      	ldr	r3, [r5, #16]
 800670a:	b9eb      	cbnz	r3, 8006748 <_vfiprintf_r+0x78>
 800670c:	4629      	mov	r1, r5
 800670e:	4630      	mov	r0, r6
 8006710:	f000 faf6 	bl	8006d00 <__swsetup_r>
 8006714:	b1c0      	cbz	r0, 8006748 <_vfiprintf_r+0x78>
 8006716:	6e6b      	ldr	r3, [r5, #100]	; 0x64
 8006718:	07dc      	lsls	r4, r3, #31
 800671a:	d50e      	bpl.n	800673a <_vfiprintf_r+0x6a>
 800671c:	f04f 30ff 	mov.w	r0, #4294967295	; 0xffffffff
 8006720:	b01d      	add	sp, #116	; 0x74
 8006722:	e8bd 8ff0 	ldmia.w	sp!, {r4, r5, r6, r7, r8, r9, sl, fp, pc}
 8006726:	4b7b      	ldr	r3, [pc, #492]	; (8006914 <_vfiprintf_r+0x244>)
 8006728:	429d      	cmp	r5, r3
 800672a:	d101      	bne.n	8006730 <_vfiprintf_r+0x60>
 800672c:	68b5      	ldr	r5, [r6, #8]
 800672e:	e7df      	b.n	80066f0 <_vfiprintf_r+0x20>
 8006730:	4b79      	ldr	r3, [pc, #484]	; (8006918 <_vfiprintf_r+0x248>)
 8006732:	429d      	cmp	r5, r3
 8006734:	bf08      	it	eq
 8006736:	68f5      	ldreq	r5, [r6, #12]
 8006738:	e7da      	b.n	80066f0 <_vfiprintf_r+0x20>
 800673a:	89ab      	ldrh	r3, [r5, #12]
 800673c:	0598      	lsls	r0, r3, #22
 800673e:	d4ed      	bmi.n	800671c <_vfiprintf_r+0x4c>
 8006740:	6da8      	ldr	r0, [r5, #88]	; 0x58
 8006742:	f000 fd0c 	bl	800715e <__retarget_lock_release_recursive>
 8006746:	e7e9      	b.n	800671c <_vfiprintf_r+0x4c>
 8006748:	2300      	movs	r3, #0
 800674a:	9309      	str	r3, [sp, #36]	; 0x24
 800674c:	2320      	movs	r3, #32
 800674e:	f88d 3029 	strb.w	r3, [sp, #41]	; 0x29
 8006752:	2330      	movs	r3, #48	; 0x30
 8006754:	f04f 0901 	mov.w	r9, #1
 8006758:	f8cd 800c 	str.w	r8, [sp, #12]
 800675c:	f8df 81bc 	ldr.w	r8, [pc, #444]	; 800691c <_vfiprintf_r+0x24c>
 8006760:	f88d 302a 	strb.w	r3, [sp, #42]	; 0x2a
 8006764:	4623      	mov	r3, r4
 8006766:	469a      	mov	sl, r3
 8006768:	f813 2b01 	ldrb.w	r2, [r3], #1
 800676c:	b10a      	cbz	r2, 8006772 <_vfiprintf_r+0xa2>
 800676e:	2a25      	cmp	r2, #37	; 0x25
 8006770:	d1f9      	bne.n	8006766 <_vfiprintf_r+0x96>
 8006772:	ebba 0b04 	subs.w	fp, sl, r4
 8006776:	d00b      	beq.n	8006790 <_vfiprintf_r+0xc0>
 8006778:	465b      	mov	r3, fp
 800677a:	4622      	mov	r2, r4
 800677c:	4629      	mov	r1, r5
 800677e:	4630      	mov	r0, r6
 8006780:	f7ff ff93 	bl	80066aa <__sfputs_r>
 8006784:	3001      	adds	r0, #1
 8006786:	f000 80aa 	beq.w	80068de <_vfiprintf_r+0x20e>
 800678a:	9a09      	ldr	r2, [sp, #36]	; 0x24
 800678c:	445a      	add	r2, fp
 800678e:	9209      	str	r2, [sp, #36]	; 0x24
 8006790:	f89a 3000 	ldrb.w	r3, [sl]
 8006794:	2b00      	cmp	r3, #0
 8006796:	f000 80a2 	beq.w	80068de <_vfiprintf_r+0x20e>
 800679a:	2300      	movs	r3, #0
 800679c:	f04f 32ff 	mov.w	r2, #4294967295	; 0xffffffff
 80067a0:	e9cd 2305 	strd	r2, r3, [sp, #20]
 80067a4:	f10a 0a01 	add.w	sl, sl, #1
 80067a8:	9304      	str	r3, [sp, #16]
 80067aa:	9307      	str	r3, [sp, #28]
 80067ac:	f88d 3053 	strb.w	r3, [sp, #83]	; 0x53
 80067b0:	931a      	str	r3, [sp, #104]	; 0x68
 80067b2:	4654      	mov	r4, sl
 80067b4:	2205      	movs	r2, #5
 80067b6:	f814 1b01 	ldrb.w	r1, [r4], #1
 80067ba:	4858      	ldr	r0, [pc, #352]	; (800691c <_vfiprintf_r+0x24c>)
 80067bc:	f000 fd34 	bl	8007228 <memchr>
 80067c0:	9a04      	ldr	r2, [sp, #16]
 80067c2:	b9d8      	cbnz	r0, 80067fc <_vfiprintf_r+0x12c>
 80067c4:	06d1      	lsls	r1, r2, #27
 80067c6:	bf44      	itt	mi
 80067c8:	2320      	movmi	r3, #32
 80067ca:	f88d 3053 	strbmi.w	r3, [sp, #83]	; 0x53
 80067ce:	0713      	lsls	r3, r2, #28
 80067d0:	bf44      	itt	mi
 80067d2:	232b      	movmi	r3, #43	; 0x2b
 80067d4:	f88d 3053 	strbmi.w	r3, [sp, #83]	; 0x53
 80067d8:	f89a 3000 	ldrb.w	r3, [sl]
 80067dc:	2b2a      	cmp	r3, #42	; 0x2a
 80067de:	d015      	beq.n	800680c <_vfiprintf_r+0x13c>
 80067e0:	4654      	mov	r4, sl
 80067e2:	2000      	movs	r0, #0
 80067e4:	f04f 0c0a 	mov.w	ip, #10
 80067e8:	9a07      	ldr	r2, [sp, #28]
 80067ea:	4621      	mov	r1, r4
 80067ec:	f811 3b01 	ldrb.w	r3, [r1], #1
 80067f0:	3b30      	subs	r3, #48	; 0x30
 80067f2:	2b09      	cmp	r3, #9
 80067f4:	d94e      	bls.n	8006894 <_vfiprintf_r+0x1c4>
 80067f6:	b1b0      	cbz	r0, 8006826 <_vfiprintf_r+0x156>
 80067f8:	9207      	str	r2, [sp, #28]
 80067fa:	e014      	b.n	8006826 <_vfiprintf_r+0x156>
 80067fc:	eba0 0308 	sub.w	r3, r0, r8
 8006800:	fa09 f303 	lsl.w	r3, r9, r3
 8006804:	4313      	orrs	r3, r2
 8006806:	46a2      	mov	sl, r4
 8006808:	9304      	str	r3, [sp, #16]
 800680a:	e7d2      	b.n	80067b2 <_vfiprintf_r+0xe2>
 800680c:	9b03      	ldr	r3, [sp, #12]
 800680e:	1d19      	adds	r1, r3, #4
 8006810:	681b      	ldr	r3, [r3, #0]
 8006812:	9103      	str	r1, [sp, #12]
 8006814:	2b00      	cmp	r3, #0
 8006816:	bfbb      	ittet	lt
 8006818:	425b      	neglt	r3, r3
 800681a:	f042 0202 	orrlt.w	r2, r2, #2
 800681e:	9307      	strge	r3, [sp, #28]
 8006820:	9307      	strlt	r3, [sp, #28]
 8006822:	bfb8      	it	lt
 8006824:	9204      	strlt	r2, [sp, #16]
 8006826:	7823      	ldrb	r3, [r4, #0]
 8006828:	2b2e      	cmp	r3, #46	; 0x2e
 800682a:	d10c      	bne.n	8006846 <_vfiprintf_r+0x176>
 800682c:	7863      	ldrb	r3, [r4, #1]
 800682e:	2b2a      	cmp	r3, #42	; 0x2a
 8006830:	d135      	bne.n	800689e <_vfiprintf_r+0x1ce>
 8006832:	9b03      	ldr	r3, [sp, #12]
 8006834:	3402      	adds	r4, #2
 8006836:	1d1a      	adds	r2, r3, #4
 8006838:	681b      	ldr	r3, [r3, #0]
 800683a:	9203      	str	r2, [sp, #12]
 800683c:	2b00      	cmp	r3, #0
 800683e:	bfb8      	it	lt
 8006840:	f04f 33ff 	movlt.w	r3, #4294967295	; 0xffffffff
 8006844:	9305      	str	r3, [sp, #20]
 8006846:	f8df a0e4 	ldr.w	sl, [pc, #228]	; 800692c <_vfiprintf_r+0x25c>
 800684a:	2203      	movs	r2, #3
 800684c:	4650      	mov	r0, sl
 800684e:	7821      	ldrb	r1, [r4, #0]
 8006850:	f000 fcea 	bl	8007228 <memchr>
 8006854:	b140      	cbz	r0, 8006868 <_vfiprintf_r+0x198>
 8006856:	2340      	movs	r3, #64	; 0x40
 8006858:	eba0 000a 	sub.w	r0, r0, sl
 800685c:	fa03 f000 	lsl.w	r0, r3, r0
 8006860:	9b04      	ldr	r3, [sp, #16]
 8006862:	3401      	adds	r4, #1
 8006864:	4303      	orrs	r3, r0
 8006866:	9304      	str	r3, [sp, #16]
 8006868:	f814 1b01 	ldrb.w	r1, [r4], #1
 800686c:	2206      	movs	r2, #6
 800686e:	482c      	ldr	r0, [pc, #176]	; (8006920 <_vfiprintf_r+0x250>)
 8006870:	f88d 1028 	strb.w	r1, [sp, #40]	; 0x28
 8006874:	f000 fcd8 	bl	8007228 <memchr>
 8006878:	2800      	cmp	r0, #0
 800687a:	d03f      	beq.n	80068fc <_vfiprintf_r+0x22c>
 800687c:	4b29      	ldr	r3, [pc, #164]	; (8006924 <_vfiprintf_r+0x254>)
 800687e:	bb1b      	cbnz	r3, 80068c8 <_vfiprintf_r+0x1f8>
 8006880:	9b03      	ldr	r3, [sp, #12]
 8006882:	3307      	adds	r3, #7
 8006884:	f023 0307 	bic.w	r3, r3, #7
 8006888:	3308      	adds	r3, #8
 800688a:	9303      	str	r3, [sp, #12]
 800688c:	9b09      	ldr	r3, [sp, #36]	; 0x24
 800688e:	443b      	add	r3, r7
 8006890:	9309      	str	r3, [sp, #36]	; 0x24
 8006892:	e767      	b.n	8006764 <_vfiprintf_r+0x94>
 8006894:	460c      	mov	r4, r1
 8006896:	2001      	movs	r0, #1
 8006898:	fb0c 3202 	mla	r2, ip, r2, r3
 800689c:	e7a5      	b.n	80067ea <_vfiprintf_r+0x11a>
 800689e:	2300      	movs	r3, #0
 80068a0:	f04f 0c0a 	mov.w	ip, #10
 80068a4:	4619      	mov	r1, r3
 80068a6:	3401      	adds	r4, #1
 80068a8:	9305      	str	r3, [sp, #20]
 80068aa:	4620      	mov	r0, r4
 80068ac:	f810 2b01 	ldrb.w	r2, [r0], #1
 80068b0:	3a30      	subs	r2, #48	; 0x30
 80068b2:	2a09      	cmp	r2, #9
 80068b4:	d903      	bls.n	80068be <_vfiprintf_r+0x1ee>
 80068b6:	2b00      	cmp	r3, #0
 80068b8:	d0c5      	beq.n	8006846 <_vfiprintf_r+0x176>
 80068ba:	9105      	str	r1, [sp, #20]
 80068bc:	e7c3      	b.n	8006846 <_vfiprintf_r+0x176>
 80068be:	4604      	mov	r4, r0
 80068c0:	2301      	movs	r3, #1
 80068c2:	fb0c 2101 	mla	r1, ip, r1, r2
 80068c6:	e7f0      	b.n	80068aa <_vfiprintf_r+0x1da>
 80068c8:	ab03      	add	r3, sp, #12
 80068ca:	9300      	str	r3, [sp, #0]
 80068cc:	462a      	mov	r2, r5
 80068ce:	4630      	mov	r0, r6
 80068d0:	4b15      	ldr	r3, [pc, #84]	; (8006928 <_vfiprintf_r+0x258>)
 80068d2:	a904      	add	r1, sp, #16
 80068d4:	f3af 8000 	nop.w
 80068d8:	4607      	mov	r7, r0
 80068da:	1c78      	adds	r0, r7, #1
 80068dc:	d1d6      	bne.n	800688c <_vfiprintf_r+0x1bc>
 80068de:	6e6b      	ldr	r3, [r5, #100]	; 0x64
 80068e0:	07d9      	lsls	r1, r3, #31
 80068e2:	d405      	bmi.n	80068f0 <_vfiprintf_r+0x220>
 80068e4:	89ab      	ldrh	r3, [r5, #12]
 80068e6:	059a      	lsls	r2, r3, #22
 80068e8:	d402      	bmi.n	80068f0 <_vfiprintf_r+0x220>
 80068ea:	6da8      	ldr	r0, [r5, #88]	; 0x58
 80068ec:	f000 fc37 	bl	800715e <__retarget_lock_release_recursive>
 80068f0:	89ab      	ldrh	r3, [r5, #12]
 80068f2:	065b      	lsls	r3, r3, #25
 80068f4:	f53f af12 	bmi.w	800671c <_vfiprintf_r+0x4c>
 80068f8:	9809      	ldr	r0, [sp, #36]	; 0x24
 80068fa:	e711      	b.n	8006720 <_vfiprintf_r+0x50>
 80068fc:	ab03      	add	r3, sp, #12
 80068fe:	9300      	str	r3, [sp, #0]
 8006900:	462a      	mov	r2, r5
 8006902:	4630      	mov	r0, r6
 8006904:	4b08      	ldr	r3, [pc, #32]	; (8006928 <_vfiprintf_r+0x258>)
 8006906:	a904      	add	r1, sp, #16
 8006908:	f000 f882 	bl	8006a10 <_printf_i>
 800690c:	e7e4      	b.n	80068d8 <_vfiprintf_r+0x208>
 800690e:	bf00      	nop
 8006910:	0800901c 	.word	0x0800901c
 8006914:	0800903c 	.word	0x0800903c
 8006918:	08008ffc 	.word	0x08008ffc
 800691c:	08008fc9 	.word	0x08008fc9
 8006920:	08008fd3 	.word	0x08008fd3
 8006924:	00000000 	.word	0x00000000
 8006928:	080066ab 	.word	0x080066ab
 800692c:	08008fcf 	.word	0x08008fcf

08006930 <_printf_common>:
 8006930:	e92d 47f0 	stmdb	sp!, {r4, r5, r6, r7, r8, r9, sl, lr}
 8006934:	4616      	mov	r6, r2
 8006936:	4699      	mov	r9, r3
 8006938:	688a      	ldr	r2, [r1, #8]
 800693a:	690b      	ldr	r3, [r1, #16]
 800693c:	4607      	mov	r7, r0
 800693e:	4293      	cmp	r3, r2
 8006940:	bfb8      	it	lt
 8006942:	4613      	movlt	r3, r2
 8006944:	6033      	str	r3, [r6, #0]
 8006946:	f891 2043 	ldrb.w	r2, [r1, #67]	; 0x43
 800694a:	460c      	mov	r4, r1
 800694c:	f8dd 8020 	ldr.w	r8, [sp, #32]
 8006950:	b10a      	cbz	r2, 8006956 <_printf_common+0x26>
 8006952:	3301      	adds	r3, #1
 8006954:	6033      	str	r3, [r6, #0]
 8006956:	6823      	ldr	r3, [r4, #0]
 8006958:	0699      	lsls	r1, r3, #26
 800695a:	bf42      	ittt	mi
 800695c:	6833      	ldrmi	r3, [r6, #0]
 800695e:	3302      	addmi	r3, #2
 8006960:	6033      	strmi	r3, [r6, #0]
 8006962:	6825      	ldr	r5, [r4, #0]
 8006964:	f015 0506 	ands.w	r5, r5, #6
 8006968:	d106      	bne.n	8006978 <_printf_common+0x48>
 800696a:	f104 0a19 	add.w	sl, r4, #25
 800696e:	68e3      	ldr	r3, [r4, #12]
 8006970:	6832      	ldr	r2, [r6, #0]
 8006972:	1a9b      	subs	r3, r3, r2
 8006974:	42ab      	cmp	r3, r5
 8006976:	dc28      	bgt.n	80069ca <_printf_common+0x9a>
 8006978:	f894 2043 	ldrb.w	r2, [r4, #67]	; 0x43
 800697c:	1e13      	subs	r3, r2, #0
 800697e:	6822      	ldr	r2, [r4, #0]
 8006980:	bf18      	it	ne
 8006982:	2301      	movne	r3, #1
 8006984:	0692      	lsls	r2, r2, #26
 8006986:	d42d      	bmi.n	80069e4 <_printf_common+0xb4>
 8006988:	4649      	mov	r1, r9
 800698a:	4638      	mov	r0, r7
 800698c:	f104 0243 	add.w	r2, r4, #67	; 0x43
 8006990:	47c0      	blx	r8
 8006992:	3001      	adds	r0, #1
 8006994:	d020      	beq.n	80069d8 <_printf_common+0xa8>
 8006996:	6823      	ldr	r3, [r4, #0]
 8006998:	68e5      	ldr	r5, [r4, #12]
 800699a:	f003 0306 	and.w	r3, r3, #6
 800699e:	2b04      	cmp	r3, #4
 80069a0:	bf18      	it	ne
 80069a2:	2500      	movne	r5, #0
 80069a4:	6832      	ldr	r2, [r6, #0]
 80069a6:	f04f 0600 	mov.w	r6, #0
 80069aa:	68a3      	ldr	r3, [r4, #8]
 80069ac:	bf08      	it	eq
 80069ae:	1aad      	subeq	r5, r5, r2
 80069b0:	6922      	ldr	r2, [r4, #16]
 80069b2:	bf08      	it	eq
 80069b4:	ea25 75e5 	biceq.w	r5, r5, r5, asr #31
 80069b8:	4293      	cmp	r3, r2
 80069ba:	bfc4      	itt	gt
 80069bc:	1a9b      	subgt	r3, r3, r2
 80069be:	18ed      	addgt	r5, r5, r3
 80069c0:	341a      	adds	r4, #26
 80069c2:	42b5      	cmp	r5, r6
 80069c4:	d11a      	bne.n	80069fc <_printf_common+0xcc>
 80069c6:	2000      	movs	r0, #0
 80069c8:	e008      	b.n	80069dc <_printf_common+0xac>
 80069ca:	2301      	movs	r3, #1
 80069cc:	4652      	mov	r2, sl
 80069ce:	4649      	mov	r1, r9
 80069d0:	4638      	mov	r0, r7
 80069d2:	47c0      	blx	r8
 80069d4:	3001      	adds	r0, #1
 80069d6:	d103      	bne.n	80069e0 <_printf_common+0xb0>
 80069d8:	f04f 30ff 	mov.w	r0, #4294967295	; 0xffffffff
 80069dc:	e8bd 87f0 	ldmia.w	sp!, {r4, r5, r6, r7, r8, r9, sl, pc}
 80069e0:	3501      	adds	r5, #1
 80069e2:	e7c4      	b.n	800696e <_printf_common+0x3e>
 80069e4:	2030      	movs	r0, #48	; 0x30
 80069e6:	18e1      	adds	r1, r4, r3
 80069e8:	f881 0043 	strb.w	r0, [r1, #67]	; 0x43
 80069ec:	1c5a      	adds	r2, r3, #1
 80069ee:	f894 1045 	ldrb.w	r1, [r4, #69]	; 0x45
 80069f2:	4422      	add	r2, r4
 80069f4:	3302      	adds	r3, #2
 80069f6:	f882 1043 	strb.w	r1, [r2, #67]	; 0x43
 80069fa:	e7c5      	b.n	8006988 <_printf_common+0x58>
 80069fc:	2301      	movs	r3, #1
 80069fe:	4622      	mov	r2, r4
 8006a00:	4649      	mov	r1, r9
 8006a02:	4638      	mov	r0, r7
 8006a04:	47c0      	blx	r8
 8006a06:	3001      	adds	r0, #1
 8006a08:	d0e6      	beq.n	80069d8 <_printf_common+0xa8>
 8006a0a:	3601      	adds	r6, #1
 8006a0c:	e7d9      	b.n	80069c2 <_printf_common+0x92>
	...

08006a10 <_printf_i>:
 8006a10:	e92d 47ff 	stmdb	sp!, {r0, r1, r2, r3, r4, r5, r6, r7, r8, r9, sl, lr}
 8006a14:	460c      	mov	r4, r1
 8006a16:	7e27      	ldrb	r7, [r4, #24]
 8006a18:	4691      	mov	r9, r2
 8006a1a:	2f78      	cmp	r7, #120	; 0x78
 8006a1c:	4680      	mov	r8, r0
 8006a1e:	469a      	mov	sl, r3
 8006a20:	990c      	ldr	r1, [sp, #48]	; 0x30
 8006a22:	f104 0243 	add.w	r2, r4, #67	; 0x43
 8006a26:	d807      	bhi.n	8006a38 <_printf_i+0x28>
 8006a28:	2f62      	cmp	r7, #98	; 0x62
 8006a2a:	d80a      	bhi.n	8006a42 <_printf_i+0x32>
 8006a2c:	2f00      	cmp	r7, #0
 8006a2e:	f000 80d9 	beq.w	8006be4 <_printf_i+0x1d4>
 8006a32:	2f58      	cmp	r7, #88	; 0x58
 8006a34:	f000 80a4 	beq.w	8006b80 <_printf_i+0x170>
 8006a38:	f104 0642 	add.w	r6, r4, #66	; 0x42
 8006a3c:	f884 7042 	strb.w	r7, [r4, #66]	; 0x42
 8006a40:	e03a      	b.n	8006ab8 <_printf_i+0xa8>
 8006a42:	f1a7 0363 	sub.w	r3, r7, #99	; 0x63
 8006a46:	2b15      	cmp	r3, #21
 8006a48:	d8f6      	bhi.n	8006a38 <_printf_i+0x28>
 8006a4a:	a001      	add	r0, pc, #4	; (adr r0, 8006a50 <_printf_i+0x40>)
 8006a4c:	f850 f023 	ldr.w	pc, [r0, r3, lsl #2]
 8006a50:	08006aa9 	.word	0x08006aa9
 8006a54:	08006abd 	.word	0x08006abd
 8006a58:	08006a39 	.word	0x08006a39
 8006a5c:	08006a39 	.word	0x08006a39
 8006a60:	08006a39 	.word	0x08006a39
 8006a64:	08006a39 	.word	0x08006a39
 8006a68:	08006abd 	.word	0x08006abd
 8006a6c:	08006a39 	.word	0x08006a39
 8006a70:	08006a39 	.word	0x08006a39
 8006a74:	08006a39 	.word	0x08006a39
 8006a78:	08006a39 	.word	0x08006a39
 8006a7c:	08006bcb 	.word	0x08006bcb
 8006a80:	08006aed 	.word	0x08006aed
 8006a84:	08006bad 	.word	0x08006bad
 8006a88:	08006a39 	.word	0x08006a39
 8006a8c:	08006a39 	.word	0x08006a39
 8006a90:	08006bed 	.word	0x08006bed
 8006a94:	08006a39 	.word	0x08006a39
 8006a98:	08006aed 	.word	0x08006aed
 8006a9c:	08006a39 	.word	0x08006a39
 8006aa0:	08006a39 	.word	0x08006a39
 8006aa4:	08006bb5 	.word	0x08006bb5
 8006aa8:	680b      	ldr	r3, [r1, #0]
 8006aaa:	f104 0642 	add.w	r6, r4, #66	; 0x42
 8006aae:	1d1a      	adds	r2, r3, #4
 8006ab0:	681b      	ldr	r3, [r3, #0]
 8006ab2:	600a      	str	r2, [r1, #0]
 8006ab4:	f884 3042 	strb.w	r3, [r4, #66]	; 0x42
 8006ab8:	2301      	movs	r3, #1
 8006aba:	e0a4      	b.n	8006c06 <_printf_i+0x1f6>
 8006abc:	6825      	ldr	r5, [r4, #0]
 8006abe:	6808      	ldr	r0, [r1, #0]
 8006ac0:	062e      	lsls	r6, r5, #24
 8006ac2:	f100 0304 	add.w	r3, r0, #4
 8006ac6:	d50a      	bpl.n	8006ade <_printf_i+0xce>
 8006ac8:	6805      	ldr	r5, [r0, #0]
 8006aca:	600b      	str	r3, [r1, #0]
 8006acc:	2d00      	cmp	r5, #0
 8006ace:	da03      	bge.n	8006ad8 <_printf_i+0xc8>
 8006ad0:	232d      	movs	r3, #45	; 0x2d
 8006ad2:	426d      	negs	r5, r5
 8006ad4:	f884 3043 	strb.w	r3, [r4, #67]	; 0x43
 8006ad8:	230a      	movs	r3, #10
 8006ada:	485e      	ldr	r0, [pc, #376]	; (8006c54 <_printf_i+0x244>)
 8006adc:	e019      	b.n	8006b12 <_printf_i+0x102>
 8006ade:	f015 0f40 	tst.w	r5, #64	; 0x40
 8006ae2:	6805      	ldr	r5, [r0, #0]
 8006ae4:	600b      	str	r3, [r1, #0]
 8006ae6:	bf18      	it	ne
 8006ae8:	b22d      	sxthne	r5, r5
 8006aea:	e7ef      	b.n	8006acc <_printf_i+0xbc>
 8006aec:	680b      	ldr	r3, [r1, #0]
 8006aee:	6825      	ldr	r5, [r4, #0]
 8006af0:	1d18      	adds	r0, r3, #4
 8006af2:	6008      	str	r0, [r1, #0]
 8006af4:	0628      	lsls	r0, r5, #24
 8006af6:	d501      	bpl.n	8006afc <_printf_i+0xec>
 8006af8:	681d      	ldr	r5, [r3, #0]
 8006afa:	e002      	b.n	8006b02 <_printf_i+0xf2>
 8006afc:	0669      	lsls	r1, r5, #25
 8006afe:	d5fb      	bpl.n	8006af8 <_printf_i+0xe8>
 8006b00:	881d      	ldrh	r5, [r3, #0]
 8006b02:	2f6f      	cmp	r7, #111	; 0x6f
 8006b04:	bf0c      	ite	eq
 8006b06:	2308      	moveq	r3, #8
 8006b08:	230a      	movne	r3, #10
 8006b0a:	4852      	ldr	r0, [pc, #328]	; (8006c54 <_printf_i+0x244>)
 8006b0c:	2100      	movs	r1, #0
 8006b0e:	f884 1043 	strb.w	r1, [r4, #67]	; 0x43
 8006b12:	6866      	ldr	r6, [r4, #4]
 8006b14:	2e00      	cmp	r6, #0
 8006b16:	bfa8      	it	ge
 8006b18:	6821      	ldrge	r1, [r4, #0]
 8006b1a:	60a6      	str	r6, [r4, #8]
 8006b1c:	bfa4      	itt	ge
 8006b1e:	f021 0104 	bicge.w	r1, r1, #4
 8006b22:	6021      	strge	r1, [r4, #0]
 8006b24:	b90d      	cbnz	r5, 8006b2a <_printf_i+0x11a>
 8006b26:	2e00      	cmp	r6, #0
 8006b28:	d04d      	beq.n	8006bc6 <_printf_i+0x1b6>
 8006b2a:	4616      	mov	r6, r2
 8006b2c:	fbb5 f1f3 	udiv	r1, r5, r3
 8006b30:	fb03 5711 	mls	r7, r3, r1, r5
 8006b34:	5dc7      	ldrb	r7, [r0, r7]
 8006b36:	f806 7d01 	strb.w	r7, [r6, #-1]!
 8006b3a:	462f      	mov	r7, r5
 8006b3c:	42bb      	cmp	r3, r7
 8006b3e:	460d      	mov	r5, r1
 8006b40:	d9f4      	bls.n	8006b2c <_printf_i+0x11c>
 8006b42:	2b08      	cmp	r3, #8
 8006b44:	d10b      	bne.n	8006b5e <_printf_i+0x14e>
 8006b46:	6823      	ldr	r3, [r4, #0]
 8006b48:	07df      	lsls	r7, r3, #31
 8006b4a:	d508      	bpl.n	8006b5e <_printf_i+0x14e>
 8006b4c:	6923      	ldr	r3, [r4, #16]
 8006b4e:	6861      	ldr	r1, [r4, #4]
 8006b50:	4299      	cmp	r1, r3
 8006b52:	bfde      	ittt	le
 8006b54:	2330      	movle	r3, #48	; 0x30
 8006b56:	f806 3c01 	strble.w	r3, [r6, #-1]
 8006b5a:	f106 36ff 	addle.w	r6, r6, #4294967295	; 0xffffffff
 8006b5e:	1b92      	subs	r2, r2, r6
 8006b60:	6122      	str	r2, [r4, #16]
 8006b62:	464b      	mov	r3, r9
 8006b64:	4621      	mov	r1, r4
 8006b66:	4640      	mov	r0, r8
 8006b68:	f8cd a000 	str.w	sl, [sp]
 8006b6c:	aa03      	add	r2, sp, #12
 8006b6e:	f7ff fedf 	bl	8006930 <_printf_common>
 8006b72:	3001      	adds	r0, #1
 8006b74:	d14c      	bne.n	8006c10 <_printf_i+0x200>
 8006b76:	f04f 30ff 	mov.w	r0, #4294967295	; 0xffffffff
 8006b7a:	b004      	add	sp, #16
 8006b7c:	e8bd 87f0 	ldmia.w	sp!, {r4, r5, r6, r7, r8, r9, sl, pc}
 8006b80:	4834      	ldr	r0, [pc, #208]	; (8006c54 <_printf_i+0x244>)
 8006b82:	f884 7045 	strb.w	r7, [r4, #69]	; 0x45
 8006b86:	680e      	ldr	r6, [r1, #0]
 8006b88:	6823      	ldr	r3, [r4, #0]
 8006b8a:	f856 5b04 	ldr.w	r5, [r6], #4
 8006b8e:	061f      	lsls	r7, r3, #24
 8006b90:	600e      	str	r6, [r1, #0]
 8006b92:	d514      	bpl.n	8006bbe <_printf_i+0x1ae>
 8006b94:	07d9      	lsls	r1, r3, #31
 8006b96:	bf44      	itt	mi
 8006b98:	f043 0320 	orrmi.w	r3, r3, #32
 8006b9c:	6023      	strmi	r3, [r4, #0]
 8006b9e:	b91d      	cbnz	r5, 8006ba8 <_printf_i+0x198>
 8006ba0:	6823      	ldr	r3, [r4, #0]
 8006ba2:	f023 0320 	bic.w	r3, r3, #32
 8006ba6:	6023      	str	r3, [r4, #0]
 8006ba8:	2310      	movs	r3, #16
 8006baa:	e7af      	b.n	8006b0c <_printf_i+0xfc>
 8006bac:	6823      	ldr	r3, [r4, #0]
 8006bae:	f043 0320 	orr.w	r3, r3, #32
 8006bb2:	6023      	str	r3, [r4, #0]
 8006bb4:	2378      	movs	r3, #120	; 0x78
 8006bb6:	4828      	ldr	r0, [pc, #160]	; (8006c58 <_printf_i+0x248>)
 8006bb8:	f884 3045 	strb.w	r3, [r4, #69]	; 0x45
 8006bbc:	e7e3      	b.n	8006b86 <_printf_i+0x176>
 8006bbe:	065e      	lsls	r6, r3, #25
 8006bc0:	bf48      	it	mi
 8006bc2:	b2ad      	uxthmi	r5, r5
 8006bc4:	e7e6      	b.n	8006b94 <_printf_i+0x184>
 8006bc6:	4616      	mov	r6, r2
 8006bc8:	e7bb      	b.n	8006b42 <_printf_i+0x132>
 8006bca:	680b      	ldr	r3, [r1, #0]
 8006bcc:	6826      	ldr	r6, [r4, #0]
 8006bce:	1d1d      	adds	r5, r3, #4
 8006bd0:	6960      	ldr	r0, [r4, #20]
 8006bd2:	600d      	str	r5, [r1, #0]
 8006bd4:	0635      	lsls	r5, r6, #24
 8006bd6:	681b      	ldr	r3, [r3, #0]
 8006bd8:	d501      	bpl.n	8006bde <_printf_i+0x1ce>
 8006bda:	6018      	str	r0, [r3, #0]
 8006bdc:	e002      	b.n	8006be4 <_printf_i+0x1d4>
 8006bde:	0671      	lsls	r1, r6, #25
 8006be0:	d5fb      	bpl.n	8006bda <_printf_i+0x1ca>
 8006be2:	8018      	strh	r0, [r3, #0]
 8006be4:	2300      	movs	r3, #0
 8006be6:	4616      	mov	r6, r2
 8006be8:	6123      	str	r3, [r4, #16]
 8006bea:	e7ba      	b.n	8006b62 <_printf_i+0x152>
 8006bec:	680b      	ldr	r3, [r1, #0]
 8006bee:	1d1a      	adds	r2, r3, #4
 8006bf0:	600a      	str	r2, [r1, #0]
 8006bf2:	681e      	ldr	r6, [r3, #0]
 8006bf4:	2100      	movs	r1, #0
 8006bf6:	4630      	mov	r0, r6
 8006bf8:	6862      	ldr	r2, [r4, #4]
 8006bfa:	f000 fb15 	bl	8007228 <memchr>
 8006bfe:	b108      	cbz	r0, 8006c04 <_printf_i+0x1f4>
 8006c00:	1b80      	subs	r0, r0, r6
 8006c02:	6060      	str	r0, [r4, #4]
 8006c04:	6863      	ldr	r3, [r4, #4]
 8006c06:	6123      	str	r3, [r4, #16]
 8006c08:	2300      	movs	r3, #0
 8006c0a:	f884 3043 	strb.w	r3, [r4, #67]	; 0x43
 8006c0e:	e7a8      	b.n	8006b62 <_printf_i+0x152>
 8006c10:	4632      	mov	r2, r6
 8006c12:	4649      	mov	r1, r9
 8006c14:	4640      	mov	r0, r8
 8006c16:	6923      	ldr	r3, [r4, #16]
 8006c18:	47d0      	blx	sl
 8006c1a:	3001      	adds	r0, #1
 8006c1c:	d0ab      	beq.n	8006b76 <_printf_i+0x166>
 8006c1e:	6823      	ldr	r3, [r4, #0]
 8006c20:	079b      	lsls	r3, r3, #30
 8006c22:	d413      	bmi.n	8006c4c <_printf_i+0x23c>
 8006c24:	68e0      	ldr	r0, [r4, #12]
 8006c26:	9b03      	ldr	r3, [sp, #12]
 8006c28:	4298      	cmp	r0, r3
 8006c2a:	bfb8      	it	lt
 8006c2c:	4618      	movlt	r0, r3
 8006c2e:	e7a4      	b.n	8006b7a <_printf_i+0x16a>
 8006c30:	2301      	movs	r3, #1
 8006c32:	4632      	mov	r2, r6
 8006c34:	4649      	mov	r1, r9
 8006c36:	4640      	mov	r0, r8
 8006c38:	47d0      	blx	sl
 8006c3a:	3001      	adds	r0, #1
 8006c3c:	d09b      	beq.n	8006b76 <_printf_i+0x166>
 8006c3e:	3501      	adds	r5, #1
 8006c40:	68e3      	ldr	r3, [r4, #12]
 8006c42:	9903      	ldr	r1, [sp, #12]
 8006c44:	1a5b      	subs	r3, r3, r1
 8006c46:	42ab      	cmp	r3, r5
 8006c48:	dcf2      	bgt.n	8006c30 <_printf_i+0x220>
 8006c4a:	e7eb      	b.n	8006c24 <_printf_i+0x214>
 8006c4c:	2500      	movs	r5, #0
 8006c4e:	f104 0619 	add.w	r6, r4, #25
 8006c52:	e7f5      	b.n	8006c40 <_printf_i+0x230>
 8006c54:	08008fda 	.word	0x08008fda
 8006c58:	08008feb 	.word	0x08008feb

08006c5c <__swbuf_r>:
 8006c5c:	b5f8      	push	{r3, r4, r5, r6, r7, lr}
 8006c5e:	460e      	mov	r6, r1
 8006c60:	4614      	mov	r4, r2
 8006c62:	4605      	mov	r5, r0
 8006c64:	b118      	cbz	r0, 8006c6e <__swbuf_r+0x12>
 8006c66:	6983      	ldr	r3, [r0, #24]
 8006c68:	b90b      	cbnz	r3, 8006c6e <__swbuf_r+0x12>
 8006c6a:	f000 f9d9 	bl	8007020 <__sinit>
 8006c6e:	4b21      	ldr	r3, [pc, #132]	; (8006cf4 <__swbuf_r+0x98>)
 8006c70:	429c      	cmp	r4, r3
 8006c72:	d12b      	bne.n	8006ccc <__swbuf_r+0x70>
 8006c74:	686c      	ldr	r4, [r5, #4]
 8006c76:	69a3      	ldr	r3, [r4, #24]
 8006c78:	60a3      	str	r3, [r4, #8]
 8006c7a:	89a3      	ldrh	r3, [r4, #12]
 8006c7c:	071a      	lsls	r2, r3, #28
 8006c7e:	d52f      	bpl.n	8006ce0 <__swbuf_r+0x84>
 8006c80:	6923      	ldr	r3, [r4, #16]
 8006c82:	b36b      	cbz	r3, 8006ce0 <__swbuf_r+0x84>
 8006c84:	6923      	ldr	r3, [r4, #16]
 8006c86:	6820      	ldr	r0, [r4, #0]
 8006c88:	b2f6      	uxtb	r6, r6
 8006c8a:	1ac0      	subs	r0, r0, r3
 8006c8c:	6963      	ldr	r3, [r4, #20]
 8006c8e:	4637      	mov	r7, r6
 8006c90:	4283      	cmp	r3, r0
 8006c92:	dc04      	bgt.n	8006c9e <__swbuf_r+0x42>
 8006c94:	4621      	mov	r1, r4
 8006c96:	4628      	mov	r0, r5
 8006c98:	f000 f92e 	bl	8006ef8 <_fflush_r>
 8006c9c:	bb30      	cbnz	r0, 8006cec <__swbuf_r+0x90>
 8006c9e:	68a3      	ldr	r3, [r4, #8]
 8006ca0:	3001      	adds	r0, #1
 8006ca2:	3b01      	subs	r3, #1
 8006ca4:	60a3      	str	r3, [r4, #8]
 8006ca6:	6823      	ldr	r3, [r4, #0]
 8006ca8:	1c5a      	adds	r2, r3, #1
 8006caa:	6022      	str	r2, [r4, #0]
 8006cac:	701e      	strb	r6, [r3, #0]
 8006cae:	6963      	ldr	r3, [r4, #20]
 8006cb0:	4283      	cmp	r3, r0
 8006cb2:	d004      	beq.n	8006cbe <__swbuf_r+0x62>
 8006cb4:	89a3      	ldrh	r3, [r4, #12]
 8006cb6:	07db      	lsls	r3, r3, #31
 8006cb8:	d506      	bpl.n	8006cc8 <__swbuf_r+0x6c>
 8006cba:	2e0a      	cmp	r6, #10
 8006cbc:	d104      	bne.n	8006cc8 <__swbuf_r+0x6c>
 8006cbe:	4621      	mov	r1, r4
 8006cc0:	4628      	mov	r0, r5
 8006cc2:	f000 f919 	bl	8006ef8 <_fflush_r>
 8006cc6:	b988      	cbnz	r0, 8006cec <__swbuf_r+0x90>
 8006cc8:	4638      	mov	r0, r7
 8006cca:	bdf8      	pop	{r3, r4, r5, r6, r7, pc}
 8006ccc:	4b0a      	ldr	r3, [pc, #40]	; (8006cf8 <__swbuf_r+0x9c>)
 8006cce:	429c      	cmp	r4, r3
 8006cd0:	d101      	bne.n	8006cd6 <__swbuf_r+0x7a>
 8006cd2:	68ac      	ldr	r4, [r5, #8]
 8006cd4:	e7cf      	b.n	8006c76 <__swbuf_r+0x1a>
 8006cd6:	4b09      	ldr	r3, [pc, #36]	; (8006cfc <__swbuf_r+0xa0>)
 8006cd8:	429c      	cmp	r4, r3
 8006cda:	bf08      	it	eq
 8006cdc:	68ec      	ldreq	r4, [r5, #12]
 8006cde:	e7ca      	b.n	8006c76 <__swbuf_r+0x1a>
 8006ce0:	4621      	mov	r1, r4
 8006ce2:	4628      	mov	r0, r5
 8006ce4:	f000 f80c 	bl	8006d00 <__swsetup_r>
 8006ce8:	2800      	cmp	r0, #0
 8006cea:	d0cb      	beq.n	8006c84 <__swbuf_r+0x28>
 8006cec:	f04f 37ff 	mov.w	r7, #4294967295	; 0xffffffff
 8006cf0:	e7ea      	b.n	8006cc8 <__swbuf_r+0x6c>
 8006cf2:	bf00      	nop
 8006cf4:	0800901c 	.word	0x0800901c
 8006cf8:	0800903c 	.word	0x0800903c
 8006cfc:	08008ffc 	.word	0x08008ffc

08006d00 <__swsetup_r>:
 8006d00:	4b32      	ldr	r3, [pc, #200]	; (8006dcc <__swsetup_r+0xcc>)
 8006d02:	b570      	push	{r4, r5, r6, lr}
 8006d04:	681d      	ldr	r5, [r3, #0]
 8006d06:	4606      	mov	r6, r0
 8006d08:	460c      	mov	r4, r1
 8006d0a:	b125      	cbz	r5, 8006d16 <__swsetup_r+0x16>
 8006d0c:	69ab      	ldr	r3, [r5, #24]
 8006d0e:	b913      	cbnz	r3, 8006d16 <__swsetup_r+0x16>
 8006d10:	4628      	mov	r0, r5
 8006d12:	f000 f985 	bl	8007020 <__sinit>
 8006d16:	4b2e      	ldr	r3, [pc, #184]	; (8006dd0 <__swsetup_r+0xd0>)
 8006d18:	429c      	cmp	r4, r3
 8006d1a:	d10f      	bne.n	8006d3c <__swsetup_r+0x3c>
 8006d1c:	686c      	ldr	r4, [r5, #4]
 8006d1e:	89a3      	ldrh	r3, [r4, #12]
 8006d20:	f9b4 200c 	ldrsh.w	r2, [r4, #12]
 8006d24:	0719      	lsls	r1, r3, #28
 8006d26:	d42c      	bmi.n	8006d82 <__swsetup_r+0x82>
 8006d28:	06dd      	lsls	r5, r3, #27
 8006d2a:	d411      	bmi.n	8006d50 <__swsetup_r+0x50>
 8006d2c:	2309      	movs	r3, #9
 8006d2e:	6033      	str	r3, [r6, #0]
 8006d30:	f042 0340 	orr.w	r3, r2, #64	; 0x40
 8006d34:	f04f 30ff 	mov.w	r0, #4294967295	; 0xffffffff
 8006d38:	81a3      	strh	r3, [r4, #12]
 8006d3a:	e03e      	b.n	8006dba <__swsetup_r+0xba>
 8006d3c:	4b25      	ldr	r3, [pc, #148]	; (8006dd4 <__swsetup_r+0xd4>)
 8006d3e:	429c      	cmp	r4, r3
 8006d40:	d101      	bne.n	8006d46 <__swsetup_r+0x46>
 8006d42:	68ac      	ldr	r4, [r5, #8]
 8006d44:	e7eb      	b.n	8006d1e <__swsetup_r+0x1e>
 8006d46:	4b24      	ldr	r3, [pc, #144]	; (8006dd8 <__swsetup_r+0xd8>)
 8006d48:	429c      	cmp	r4, r3
 8006d4a:	bf08      	it	eq
 8006d4c:	68ec      	ldreq	r4, [r5, #12]
 8006d4e:	e7e6      	b.n	8006d1e <__swsetup_r+0x1e>
 8006d50:	0758      	lsls	r0, r3, #29
 8006d52:	d512      	bpl.n	8006d7a <__swsetup_r+0x7a>
 8006d54:	6b61      	ldr	r1, [r4, #52]	; 0x34
 8006d56:	b141      	cbz	r1, 8006d6a <__swsetup_r+0x6a>
 8006d58:	f104 0344 	add.w	r3, r4, #68	; 0x44
 8006d5c:	4299      	cmp	r1, r3
 8006d5e:	d002      	beq.n	8006d66 <__swsetup_r+0x66>
 8006d60:	4630      	mov	r0, r6
 8006d62:	f7ff fc41 	bl	80065e8 <_free_r>
 8006d66:	2300      	movs	r3, #0
 8006d68:	6363      	str	r3, [r4, #52]	; 0x34
 8006d6a:	89a3      	ldrh	r3, [r4, #12]
 8006d6c:	f023 0324 	bic.w	r3, r3, #36	; 0x24
 8006d70:	81a3      	strh	r3, [r4, #12]
 8006d72:	2300      	movs	r3, #0
 8006d74:	6063      	str	r3, [r4, #4]
 8006d76:	6923      	ldr	r3, [r4, #16]
 8006d78:	6023      	str	r3, [r4, #0]
 8006d7a:	89a3      	ldrh	r3, [r4, #12]
 8006d7c:	f043 0308 	orr.w	r3, r3, #8
 8006d80:	81a3      	strh	r3, [r4, #12]
 8006d82:	6923      	ldr	r3, [r4, #16]
 8006d84:	b94b      	cbnz	r3, 8006d9a <__swsetup_r+0x9a>
 8006d86:	89a3      	ldrh	r3, [r4, #12]
 8006d88:	f403 7320 	and.w	r3, r3, #640	; 0x280
 8006d8c:	f5b3 7f00 	cmp.w	r3, #512	; 0x200
 8006d90:	d003      	beq.n	8006d9a <__swsetup_r+0x9a>
 8006d92:	4621      	mov	r1, r4
 8006d94:	4630      	mov	r0, r6
 8006d96:	f000 fa07 	bl	80071a8 <__smakebuf_r>
 8006d9a:	89a0      	ldrh	r0, [r4, #12]
 8006d9c:	f9b4 200c 	ldrsh.w	r2, [r4, #12]
 8006da0:	f010 0301 	ands.w	r3, r0, #1
 8006da4:	d00a      	beq.n	8006dbc <__swsetup_r+0xbc>
 8006da6:	2300      	movs	r3, #0
 8006da8:	60a3      	str	r3, [r4, #8]
 8006daa:	6963      	ldr	r3, [r4, #20]
 8006dac:	425b      	negs	r3, r3
 8006dae:	61a3      	str	r3, [r4, #24]
 8006db0:	6923      	ldr	r3, [r4, #16]
 8006db2:	b943      	cbnz	r3, 8006dc6 <__swsetup_r+0xc6>
 8006db4:	f010 0080 	ands.w	r0, r0, #128	; 0x80
 8006db8:	d1ba      	bne.n	8006d30 <__swsetup_r+0x30>
 8006dba:	bd70      	pop	{r4, r5, r6, pc}
 8006dbc:	0781      	lsls	r1, r0, #30
 8006dbe:	bf58      	it	pl
 8006dc0:	6963      	ldrpl	r3, [r4, #20]
 8006dc2:	60a3      	str	r3, [r4, #8]
 8006dc4:	e7f4      	b.n	8006db0 <__swsetup_r+0xb0>
 8006dc6:	2000      	movs	r0, #0
 8006dc8:	e7f7      	b.n	8006dba <__swsetup_r+0xba>
 8006dca:	bf00      	nop
 8006dcc:	200000ac 	.word	0x200000ac
 8006dd0:	0800901c 	.word	0x0800901c
 8006dd4:	0800903c 	.word	0x0800903c
 8006dd8:	08008ffc 	.word	0x08008ffc

08006ddc <abort>:
 8006ddc:	2006      	movs	r0, #6
 8006dde:	b508      	push	{r3, lr}
 8006de0:	f000 fa58 	bl	8007294 <raise>
 8006de4:	2001      	movs	r0, #1
 8006de6:	f7fb fdbb 	bl	8002960 <_exit>
	...

08006dec <__sflush_r>:
 8006dec:	898a      	ldrh	r2, [r1, #12]
 8006dee:	e92d 41f0 	stmdb	sp!, {r4, r5, r6, r7, r8, lr}
 8006df2:	4605      	mov	r5, r0
 8006df4:	0710      	lsls	r0, r2, #28
 8006df6:	460c      	mov	r4, r1
 8006df8:	d458      	bmi.n	8006eac <__sflush_r+0xc0>
 8006dfa:	684b      	ldr	r3, [r1, #4]
 8006dfc:	2b00      	cmp	r3, #0
 8006dfe:	dc05      	bgt.n	8006e0c <__sflush_r+0x20>
 8006e00:	6c0b      	ldr	r3, [r1, #64]	; 0x40
 8006e02:	2b00      	cmp	r3, #0
 8006e04:	dc02      	bgt.n	8006e0c <__sflush_r+0x20>
 8006e06:	2000      	movs	r0, #0
 8006e08:	e8bd 81f0 	ldmia.w	sp!, {r4, r5, r6, r7, r8, pc}
 8006e0c:	6ae6      	ldr	r6, [r4, #44]	; 0x2c
 8006e0e:	2e00      	cmp	r6, #0
 8006e10:	d0f9      	beq.n	8006e06 <__sflush_r+0x1a>
 8006e12:	2300      	movs	r3, #0
 8006e14:	f412 5280 	ands.w	r2, r2, #4096	; 0x1000
 8006e18:	682f      	ldr	r7, [r5, #0]
 8006e1a:	602b      	str	r3, [r5, #0]
 8006e1c:	d032      	beq.n	8006e84 <__sflush_r+0x98>
 8006e1e:	6d60      	ldr	r0, [r4, #84]	; 0x54
 8006e20:	89a3      	ldrh	r3, [r4, #12]
 8006e22:	075a      	lsls	r2, r3, #29
 8006e24:	d505      	bpl.n	8006e32 <__sflush_r+0x46>
 8006e26:	6863      	ldr	r3, [r4, #4]
 8006e28:	1ac0      	subs	r0, r0, r3
 8006e2a:	6b63      	ldr	r3, [r4, #52]	; 0x34
 8006e2c:	b10b      	cbz	r3, 8006e32 <__sflush_r+0x46>
 8006e2e:	6c23      	ldr	r3, [r4, #64]	; 0x40
 8006e30:	1ac0      	subs	r0, r0, r3
 8006e32:	2300      	movs	r3, #0
 8006e34:	4602      	mov	r2, r0
 8006e36:	6ae6      	ldr	r6, [r4, #44]	; 0x2c
 8006e38:	4628      	mov	r0, r5
 8006e3a:	6a21      	ldr	r1, [r4, #32]
 8006e3c:	47b0      	blx	r6
 8006e3e:	1c43      	adds	r3, r0, #1
 8006e40:	89a3      	ldrh	r3, [r4, #12]
 8006e42:	d106      	bne.n	8006e52 <__sflush_r+0x66>
 8006e44:	6829      	ldr	r1, [r5, #0]
 8006e46:	291d      	cmp	r1, #29
 8006e48:	d82c      	bhi.n	8006ea4 <__sflush_r+0xb8>
 8006e4a:	4a2a      	ldr	r2, [pc, #168]	; (8006ef4 <__sflush_r+0x108>)
 8006e4c:	40ca      	lsrs	r2, r1
 8006e4e:	07d6      	lsls	r6, r2, #31
 8006e50:	d528      	bpl.n	8006ea4 <__sflush_r+0xb8>
 8006e52:	2200      	movs	r2, #0
 8006e54:	6062      	str	r2, [r4, #4]
 8006e56:	6922      	ldr	r2, [r4, #16]
 8006e58:	04d9      	lsls	r1, r3, #19
 8006e5a:	6022      	str	r2, [r4, #0]
 8006e5c:	d504      	bpl.n	8006e68 <__sflush_r+0x7c>
 8006e5e:	1c42      	adds	r2, r0, #1
 8006e60:	d101      	bne.n	8006e66 <__sflush_r+0x7a>
 8006e62:	682b      	ldr	r3, [r5, #0]
 8006e64:	b903      	cbnz	r3, 8006e68 <__sflush_r+0x7c>
 8006e66:	6560      	str	r0, [r4, #84]	; 0x54
 8006e68:	6b61      	ldr	r1, [r4, #52]	; 0x34
 8006e6a:	602f      	str	r7, [r5, #0]
 8006e6c:	2900      	cmp	r1, #0
 8006e6e:	d0ca      	beq.n	8006e06 <__sflush_r+0x1a>
 8006e70:	f104 0344 	add.w	r3, r4, #68	; 0x44
 8006e74:	4299      	cmp	r1, r3
 8006e76:	d002      	beq.n	8006e7e <__sflush_r+0x92>
 8006e78:	4628      	mov	r0, r5
 8006e7a:	f7ff fbb5 	bl	80065e8 <_free_r>
 8006e7e:	2000      	movs	r0, #0
 8006e80:	6360      	str	r0, [r4, #52]	; 0x34
 8006e82:	e7c1      	b.n	8006e08 <__sflush_r+0x1c>
 8006e84:	6a21      	ldr	r1, [r4, #32]
 8006e86:	2301      	movs	r3, #1
 8006e88:	4628      	mov	r0, r5
 8006e8a:	47b0      	blx	r6
 8006e8c:	1c41      	adds	r1, r0, #1
 8006e8e:	d1c7      	bne.n	8006e20 <__sflush_r+0x34>
 8006e90:	682b      	ldr	r3, [r5, #0]
 8006e92:	2b00      	cmp	r3, #0
 8006e94:	d0c4      	beq.n	8006e20 <__sflush_r+0x34>
 8006e96:	2b1d      	cmp	r3, #29
 8006e98:	d001      	beq.n	8006e9e <__sflush_r+0xb2>
 8006e9a:	2b16      	cmp	r3, #22
 8006e9c:	d101      	bne.n	8006ea2 <__sflush_r+0xb6>
 8006e9e:	602f      	str	r7, [r5, #0]
 8006ea0:	e7b1      	b.n	8006e06 <__sflush_r+0x1a>
 8006ea2:	89a3      	ldrh	r3, [r4, #12]
 8006ea4:	f043 0340 	orr.w	r3, r3, #64	; 0x40
 8006ea8:	81a3      	strh	r3, [r4, #12]
 8006eaa:	e7ad      	b.n	8006e08 <__sflush_r+0x1c>
 8006eac:	690f      	ldr	r7, [r1, #16]
 8006eae:	2f00      	cmp	r7, #0
 8006eb0:	d0a9      	beq.n	8006e06 <__sflush_r+0x1a>
 8006eb2:	0793      	lsls	r3, r2, #30
 8006eb4:	bf18      	it	ne
 8006eb6:	2300      	movne	r3, #0
 8006eb8:	680e      	ldr	r6, [r1, #0]
 8006eba:	bf08      	it	eq
 8006ebc:	694b      	ldreq	r3, [r1, #20]
 8006ebe:	eba6 0807 	sub.w	r8, r6, r7
 8006ec2:	600f      	str	r7, [r1, #0]
 8006ec4:	608b      	str	r3, [r1, #8]
 8006ec6:	f1b8 0f00 	cmp.w	r8, #0
 8006eca:	dd9c      	ble.n	8006e06 <__sflush_r+0x1a>
 8006ecc:	4643      	mov	r3, r8
 8006ece:	463a      	mov	r2, r7
 8006ed0:	4628      	mov	r0, r5
 8006ed2:	6a21      	ldr	r1, [r4, #32]
 8006ed4:	6aa6      	ldr	r6, [r4, #40]	; 0x28
 8006ed6:	47b0      	blx	r6
 8006ed8:	2800      	cmp	r0, #0
 8006eda:	dc06      	bgt.n	8006eea <__sflush_r+0xfe>
 8006edc:	89a3      	ldrh	r3, [r4, #12]
 8006ede:	f04f 30ff 	mov.w	r0, #4294967295	; 0xffffffff
 8006ee2:	f043 0340 	orr.w	r3, r3, #64	; 0x40
 8006ee6:	81a3      	strh	r3, [r4, #12]
 8006ee8:	e78e      	b.n	8006e08 <__sflush_r+0x1c>
 8006eea:	4407      	add	r7, r0
 8006eec:	eba8 0800 	sub.w	r8, r8, r0
 8006ef0:	e7e9      	b.n	8006ec6 <__sflush_r+0xda>
 8006ef2:	bf00      	nop
 8006ef4:	20400001 	.word	0x20400001

08006ef8 <_fflush_r>:
 8006ef8:	b538      	push	{r3, r4, r5, lr}
 8006efa:	690b      	ldr	r3, [r1, #16]
 8006efc:	4605      	mov	r5, r0
 8006efe:	460c      	mov	r4, r1
 8006f00:	b913      	cbnz	r3, 8006f08 <_fflush_r+0x10>
 8006f02:	2500      	movs	r5, #0
 8006f04:	4628      	mov	r0, r5
 8006f06:	bd38      	pop	{r3, r4, r5, pc}
 8006f08:	b118      	cbz	r0, 8006f12 <_fflush_r+0x1a>
 8006f0a:	6983      	ldr	r3, [r0, #24]
 8006f0c:	b90b      	cbnz	r3, 8006f12 <_fflush_r+0x1a>
 8006f0e:	f000 f887 	bl	8007020 <__sinit>
 8006f12:	4b14      	ldr	r3, [pc, #80]	; (8006f64 <_fflush_r+0x6c>)
 8006f14:	429c      	cmp	r4, r3
 8006f16:	d11b      	bne.n	8006f50 <_fflush_r+0x58>
 8006f18:	686c      	ldr	r4, [r5, #4]
 8006f1a:	f9b4 300c 	ldrsh.w	r3, [r4, #12]
 8006f1e:	2b00      	cmp	r3, #0
 8006f20:	d0ef      	beq.n	8006f02 <_fflush_r+0xa>
 8006f22:	6e62      	ldr	r2, [r4, #100]	; 0x64
 8006f24:	07d0      	lsls	r0, r2, #31
 8006f26:	d404      	bmi.n	8006f32 <_fflush_r+0x3a>
 8006f28:	0599      	lsls	r1, r3, #22
 8006f2a:	d402      	bmi.n	8006f32 <_fflush_r+0x3a>
 8006f2c:	6da0      	ldr	r0, [r4, #88]	; 0x58
 8006f2e:	f000 f915 	bl	800715c <__retarget_lock_acquire_recursive>
 8006f32:	4628      	mov	r0, r5
 8006f34:	4621      	mov	r1, r4
 8006f36:	f7ff ff59 	bl	8006dec <__sflush_r>
 8006f3a:	6e63      	ldr	r3, [r4, #100]	; 0x64
 8006f3c:	4605      	mov	r5, r0
 8006f3e:	07da      	lsls	r2, r3, #31
 8006f40:	d4e0      	bmi.n	8006f04 <_fflush_r+0xc>
 8006f42:	89a3      	ldrh	r3, [r4, #12]
 8006f44:	059b      	lsls	r3, r3, #22
 8006f46:	d4dd      	bmi.n	8006f04 <_fflush_r+0xc>
 8006f48:	6da0      	ldr	r0, [r4, #88]	; 0x58
 8006f4a:	f000 f908 	bl	800715e <__retarget_lock_release_recursive>
 8006f4e:	e7d9      	b.n	8006f04 <_fflush_r+0xc>
 8006f50:	4b05      	ldr	r3, [pc, #20]	; (8006f68 <_fflush_r+0x70>)
 8006f52:	429c      	cmp	r4, r3
 8006f54:	d101      	bne.n	8006f5a <_fflush_r+0x62>
 8006f56:	68ac      	ldr	r4, [r5, #8]
 8006f58:	e7df      	b.n	8006f1a <_fflush_r+0x22>
 8006f5a:	4b04      	ldr	r3, [pc, #16]	; (8006f6c <_fflush_r+0x74>)
 8006f5c:	429c      	cmp	r4, r3
 8006f5e:	bf08      	it	eq
 8006f60:	68ec      	ldreq	r4, [r5, #12]
 8006f62:	e7da      	b.n	8006f1a <_fflush_r+0x22>
 8006f64:	0800901c 	.word	0x0800901c
 8006f68:	0800903c 	.word	0x0800903c
 8006f6c:	08008ffc 	.word	0x08008ffc

08006f70 <std>:
 8006f70:	2300      	movs	r3, #0
 8006f72:	b510      	push	{r4, lr}
 8006f74:	4604      	mov	r4, r0
 8006f76:	e9c0 3300 	strd	r3, r3, [r0]
 8006f7a:	e9c0 3304 	strd	r3, r3, [r0, #16]
 8006f7e:	6083      	str	r3, [r0, #8]
 8006f80:	8181      	strh	r1, [r0, #12]
 8006f82:	6643      	str	r3, [r0, #100]	; 0x64
 8006f84:	81c2      	strh	r2, [r0, #14]
 8006f86:	6183      	str	r3, [r0, #24]
 8006f88:	4619      	mov	r1, r3
 8006f8a:	2208      	movs	r2, #8
 8006f8c:	305c      	adds	r0, #92	; 0x5c
 8006f8e:	f7fd fbdf 	bl	8004750 <memset>
 8006f92:	4b05      	ldr	r3, [pc, #20]	; (8006fa8 <std+0x38>)
 8006f94:	6224      	str	r4, [r4, #32]
 8006f96:	6263      	str	r3, [r4, #36]	; 0x24
 8006f98:	4b04      	ldr	r3, [pc, #16]	; (8006fac <std+0x3c>)
 8006f9a:	62a3      	str	r3, [r4, #40]	; 0x28
 8006f9c:	4b04      	ldr	r3, [pc, #16]	; (8006fb0 <std+0x40>)
 8006f9e:	62e3      	str	r3, [r4, #44]	; 0x2c
 8006fa0:	4b04      	ldr	r3, [pc, #16]	; (8006fb4 <std+0x44>)
 8006fa2:	6323      	str	r3, [r4, #48]	; 0x30
 8006fa4:	bd10      	pop	{r4, pc}
 8006fa6:	bf00      	nop
 8006fa8:	080072cd 	.word	0x080072cd
 8006fac:	080072ef 	.word	0x080072ef
 8006fb0:	08007327 	.word	0x08007327
 8006fb4:	0800734b 	.word	0x0800734b

08006fb8 <_cleanup_r>:
 8006fb8:	4901      	ldr	r1, [pc, #4]	; (8006fc0 <_cleanup_r+0x8>)
 8006fba:	f000 b8af 	b.w	800711c <_fwalk_reent>
 8006fbe:	bf00      	nop
 8006fc0:	08006ef9 	.word	0x08006ef9

08006fc4 <__sfmoreglue>:
 8006fc4:	b570      	push	{r4, r5, r6, lr}
 8006fc6:	2568      	movs	r5, #104	; 0x68
 8006fc8:	1e4a      	subs	r2, r1, #1
 8006fca:	4355      	muls	r5, r2
 8006fcc:	460e      	mov	r6, r1
 8006fce:	f105 0174 	add.w	r1, r5, #116	; 0x74
 8006fd2:	f7ff fa35 	bl	8006440 <_malloc_r>
 8006fd6:	4604      	mov	r4, r0
 8006fd8:	b140      	cbz	r0, 8006fec <__sfmoreglue+0x28>
 8006fda:	2100      	movs	r1, #0
 8006fdc:	e9c0 1600 	strd	r1, r6, [r0]
 8006fe0:	300c      	adds	r0, #12
 8006fe2:	60a0      	str	r0, [r4, #8]
 8006fe4:	f105 0268 	add.w	r2, r5, #104	; 0x68
 8006fe8:	f7fd fbb2 	bl	8004750 <memset>
 8006fec:	4620      	mov	r0, r4
 8006fee:	bd70      	pop	{r4, r5, r6, pc}

08006ff0 <__sfp_lock_acquire>:
 8006ff0:	4801      	ldr	r0, [pc, #4]	; (8006ff8 <__sfp_lock_acquire+0x8>)
 8006ff2:	f000 b8b3 	b.w	800715c <__retarget_lock_acquire_recursive>
 8006ff6:	bf00      	nop
 8006ff8:	20000430 	.word	0x20000430

08006ffc <__sfp_lock_release>:
 8006ffc:	4801      	ldr	r0, [pc, #4]	; (8007004 <__sfp_lock_release+0x8>)
 8006ffe:	f000 b8ae 	b.w	800715e <__retarget_lock_release_recursive>
 8007002:	bf00      	nop
 8007004:	20000430 	.word	0x20000430

08007008 <__sinit_lock_acquire>:
 8007008:	4801      	ldr	r0, [pc, #4]	; (8007010 <__sinit_lock_acquire+0x8>)
 800700a:	f000 b8a7 	b.w	800715c <__retarget_lock_acquire_recursive>
 800700e:	bf00      	nop
 8007010:	2000042b 	.word	0x2000042b

08007014 <__sinit_lock_release>:
 8007014:	4801      	ldr	r0, [pc, #4]	; (800701c <__sinit_lock_release+0x8>)
 8007016:	f000 b8a2 	b.w	800715e <__retarget_lock_release_recursive>
 800701a:	bf00      	nop
 800701c:	2000042b 	.word	0x2000042b

08007020 <__sinit>:
 8007020:	b510      	push	{r4, lr}
 8007022:	4604      	mov	r4, r0
 8007024:	f7ff fff0 	bl	8007008 <__sinit_lock_acquire>
 8007028:	69a3      	ldr	r3, [r4, #24]
 800702a:	b11b      	cbz	r3, 8007034 <__sinit+0x14>
 800702c:	e8bd 4010 	ldmia.w	sp!, {r4, lr}
 8007030:	f7ff bff0 	b.w	8007014 <__sinit_lock_release>
 8007034:	e9c4 3312 	strd	r3, r3, [r4, #72]	; 0x48
 8007038:	6523      	str	r3, [r4, #80]	; 0x50
 800703a:	4b13      	ldr	r3, [pc, #76]	; (8007088 <__sinit+0x68>)
 800703c:	4a13      	ldr	r2, [pc, #76]	; (800708c <__sinit+0x6c>)
 800703e:	681b      	ldr	r3, [r3, #0]
 8007040:	62a2      	str	r2, [r4, #40]	; 0x28
 8007042:	42a3      	cmp	r3, r4
 8007044:	bf08      	it	eq
 8007046:	2301      	moveq	r3, #1
 8007048:	4620      	mov	r0, r4
 800704a:	bf08      	it	eq
 800704c:	61a3      	streq	r3, [r4, #24]
 800704e:	f000 f81f 	bl	8007090 <__sfp>
 8007052:	6060      	str	r0, [r4, #4]
 8007054:	4620      	mov	r0, r4
 8007056:	f000 f81b 	bl	8007090 <__sfp>
 800705a:	60a0      	str	r0, [r4, #8]
 800705c:	4620      	mov	r0, r4
 800705e:	f000 f817 	bl	8007090 <__sfp>
 8007062:	2200      	movs	r2, #0
 8007064:	2104      	movs	r1, #4
 8007066:	60e0      	str	r0, [r4, #12]
 8007068:	6860      	ldr	r0, [r4, #4]
 800706a:	f7ff ff81 	bl	8006f70 <std>
 800706e:	2201      	movs	r2, #1
 8007070:	2109      	movs	r1, #9
 8007072:	68a0      	ldr	r0, [r4, #8]
 8007074:	f7ff ff7c 	bl	8006f70 <std>
 8007078:	2202      	movs	r2, #2
 800707a:	2112      	movs	r1, #18
 800707c:	68e0      	ldr	r0, [r4, #12]
 800707e:	f7ff ff77 	bl	8006f70 <std>
 8007082:	2301      	movs	r3, #1
 8007084:	61a3      	str	r3, [r4, #24]
 8007086:	e7d1      	b.n	800702c <__sinit+0xc>
 8007088:	08008c28 	.word	0x08008c28
 800708c:	08006fb9 	.word	0x08006fb9

08007090 <__sfp>:
 8007090:	b5f8      	push	{r3, r4, r5, r6, r7, lr}
 8007092:	4607      	mov	r7, r0
 8007094:	f7ff ffac 	bl	8006ff0 <__sfp_lock_acquire>
 8007098:	4b1e      	ldr	r3, [pc, #120]	; (8007114 <__sfp+0x84>)
 800709a:	681e      	ldr	r6, [r3, #0]
 800709c:	69b3      	ldr	r3, [r6, #24]
 800709e:	b913      	cbnz	r3, 80070a6 <__sfp+0x16>
 80070a0:	4630      	mov	r0, r6
 80070a2:	f7ff ffbd 	bl	8007020 <__sinit>
 80070a6:	3648      	adds	r6, #72	; 0x48
 80070a8:	e9d6 3401 	ldrd	r3, r4, [r6, #4]
 80070ac:	3b01      	subs	r3, #1
 80070ae:	d503      	bpl.n	80070b8 <__sfp+0x28>
 80070b0:	6833      	ldr	r3, [r6, #0]
 80070b2:	b30b      	cbz	r3, 80070f8 <__sfp+0x68>
 80070b4:	6836      	ldr	r6, [r6, #0]
 80070b6:	e7f7      	b.n	80070a8 <__sfp+0x18>
 80070b8:	f9b4 500c 	ldrsh.w	r5, [r4, #12]
 80070bc:	b9d5      	cbnz	r5, 80070f4 <__sfp+0x64>
 80070be:	4b16      	ldr	r3, [pc, #88]	; (8007118 <__sfp+0x88>)
 80070c0:	f104 0058 	add.w	r0, r4, #88	; 0x58
 80070c4:	60e3      	str	r3, [r4, #12]
 80070c6:	6665      	str	r5, [r4, #100]	; 0x64
 80070c8:	f000 f847 	bl	800715a <__retarget_lock_init_recursive>
 80070cc:	f7ff ff96 	bl	8006ffc <__sfp_lock_release>
 80070d0:	2208      	movs	r2, #8
 80070d2:	4629      	mov	r1, r5
 80070d4:	e9c4 5501 	strd	r5, r5, [r4, #4]
 80070d8:	e9c4 5504 	strd	r5, r5, [r4, #16]
 80070dc:	6025      	str	r5, [r4, #0]
 80070de:	61a5      	str	r5, [r4, #24]
 80070e0:	f104 005c 	add.w	r0, r4, #92	; 0x5c
 80070e4:	f7fd fb34 	bl	8004750 <memset>
 80070e8:	e9c4 550d 	strd	r5, r5, [r4, #52]	; 0x34
 80070ec:	e9c4 5512 	strd	r5, r5, [r4, #72]	; 0x48
 80070f0:	4620      	mov	r0, r4
 80070f2:	bdf8      	pop	{r3, r4, r5, r6, r7, pc}
 80070f4:	3468      	adds	r4, #104	; 0x68
 80070f6:	e7d9      	b.n	80070ac <__sfp+0x1c>
 80070f8:	2104      	movs	r1, #4
 80070fa:	4638      	mov	r0, r7
 80070fc:	f7ff ff62 	bl	8006fc4 <__sfmoreglue>
 8007100:	4604      	mov	r4, r0
 8007102:	6030      	str	r0, [r6, #0]
 8007104:	2800      	cmp	r0, #0
 8007106:	d1d5      	bne.n	80070b4 <__sfp+0x24>
 8007108:	f7ff ff78 	bl	8006ffc <__sfp_lock_release>
 800710c:	230c      	movs	r3, #12
 800710e:	603b      	str	r3, [r7, #0]
 8007110:	e7ee      	b.n	80070f0 <__sfp+0x60>
 8007112:	bf00      	nop
 8007114:	08008c28 	.word	0x08008c28
 8007118:	ffff0001 	.word	0xffff0001

0800711c <_fwalk_reent>:
 800711c:	e92d 43f8 	stmdb	sp!, {r3, r4, r5, r6, r7, r8, r9, lr}
 8007120:	4606      	mov	r6, r0
 8007122:	4688      	mov	r8, r1
 8007124:	2700      	movs	r7, #0
 8007126:	f100 0448 	add.w	r4, r0, #72	; 0x48
 800712a:	e9d4 9501 	ldrd	r9, r5, [r4, #4]
 800712e:	f1b9 0901 	subs.w	r9, r9, #1
 8007132:	d505      	bpl.n	8007140 <_fwalk_reent+0x24>
 8007134:	6824      	ldr	r4, [r4, #0]
 8007136:	2c00      	cmp	r4, #0
 8007138:	d1f7      	bne.n	800712a <_fwalk_reent+0xe>
 800713a:	4638      	mov	r0, r7
 800713c:	e8bd 83f8 	ldmia.w	sp!, {r3, r4, r5, r6, r7, r8, r9, pc}
 8007140:	89ab      	ldrh	r3, [r5, #12]
 8007142:	2b01      	cmp	r3, #1
 8007144:	d907      	bls.n	8007156 <_fwalk_reent+0x3a>
 8007146:	f9b5 300e 	ldrsh.w	r3, [r5, #14]
 800714a:	3301      	adds	r3, #1
 800714c:	d003      	beq.n	8007156 <_fwalk_reent+0x3a>
 800714e:	4629      	mov	r1, r5
 8007150:	4630      	mov	r0, r6
 8007152:	47c0      	blx	r8
 8007154:	4307      	orrs	r7, r0
 8007156:	3568      	adds	r5, #104	; 0x68
 8007158:	e7e9      	b.n	800712e <_fwalk_reent+0x12>

0800715a <__retarget_lock_init_recursive>:
 800715a:	4770      	bx	lr

0800715c <__retarget_lock_acquire_recursive>:
 800715c:	4770      	bx	lr

0800715e <__retarget_lock_release_recursive>:
 800715e:	4770      	bx	lr

08007160 <__swhatbuf_r>:
 8007160:	b570      	push	{r4, r5, r6, lr}
 8007162:	460e      	mov	r6, r1
 8007164:	f9b1 100e 	ldrsh.w	r1, [r1, #14]
 8007168:	4614      	mov	r4, r2
 800716a:	2900      	cmp	r1, #0
 800716c:	461d      	mov	r5, r3
 800716e:	b096      	sub	sp, #88	; 0x58
 8007170:	da07      	bge.n	8007182 <__swhatbuf_r+0x22>
 8007172:	2300      	movs	r3, #0
 8007174:	602b      	str	r3, [r5, #0]
 8007176:	89b3      	ldrh	r3, [r6, #12]
 8007178:	061a      	lsls	r2, r3, #24
 800717a:	d410      	bmi.n	800719e <__swhatbuf_r+0x3e>
 800717c:	f44f 6380 	mov.w	r3, #1024	; 0x400
 8007180:	e00e      	b.n	80071a0 <__swhatbuf_r+0x40>
 8007182:	466a      	mov	r2, sp
 8007184:	f000 f908 	bl	8007398 <_fstat_r>
 8007188:	2800      	cmp	r0, #0
 800718a:	dbf2      	blt.n	8007172 <__swhatbuf_r+0x12>
 800718c:	9a01      	ldr	r2, [sp, #4]
 800718e:	f402 4270 	and.w	r2, r2, #61440	; 0xf000
 8007192:	f5a2 5300 	sub.w	r3, r2, #8192	; 0x2000
 8007196:	425a      	negs	r2, r3
 8007198:	415a      	adcs	r2, r3
 800719a:	602a      	str	r2, [r5, #0]
 800719c:	e7ee      	b.n	800717c <__swhatbuf_r+0x1c>
 800719e:	2340      	movs	r3, #64	; 0x40
 80071a0:	2000      	movs	r0, #0
 80071a2:	6023      	str	r3, [r4, #0]
 80071a4:	b016      	add	sp, #88	; 0x58
 80071a6:	bd70      	pop	{r4, r5, r6, pc}

080071a8 <__smakebuf_r>:
 80071a8:	898b      	ldrh	r3, [r1, #12]
 80071aa:	b573      	push	{r0, r1, r4, r5, r6, lr}
 80071ac:	079d      	lsls	r5, r3, #30
 80071ae:	4606      	mov	r6, r0
 80071b0:	460c      	mov	r4, r1
 80071b2:	d507      	bpl.n	80071c4 <__smakebuf_r+0x1c>
 80071b4:	f104 0347 	add.w	r3, r4, #71	; 0x47
 80071b8:	6023      	str	r3, [r4, #0]
 80071ba:	6123      	str	r3, [r4, #16]
 80071bc:	2301      	movs	r3, #1
 80071be:	6163      	str	r3, [r4, #20]
 80071c0:	b002      	add	sp, #8
 80071c2:	bd70      	pop	{r4, r5, r6, pc}
 80071c4:	466a      	mov	r2, sp
 80071c6:	ab01      	add	r3, sp, #4
 80071c8:	f7ff ffca 	bl	8007160 <__swhatbuf_r>
 80071cc:	9900      	ldr	r1, [sp, #0]
 80071ce:	4605      	mov	r5, r0
 80071d0:	4630      	mov	r0, r6
 80071d2:	f7ff f935 	bl	8006440 <_malloc_r>
 80071d6:	b948      	cbnz	r0, 80071ec <__smakebuf_r+0x44>
 80071d8:	f9b4 300c 	ldrsh.w	r3, [r4, #12]
 80071dc:	059a      	lsls	r2, r3, #22
 80071de:	d4ef      	bmi.n	80071c0 <__smakebuf_r+0x18>
 80071e0:	f023 0303 	bic.w	r3, r3, #3
 80071e4:	f043 0302 	orr.w	r3, r3, #2
 80071e8:	81a3      	strh	r3, [r4, #12]
 80071ea:	e7e3      	b.n	80071b4 <__smakebuf_r+0xc>
 80071ec:	4b0d      	ldr	r3, [pc, #52]	; (8007224 <__smakebuf_r+0x7c>)
 80071ee:	62b3      	str	r3, [r6, #40]	; 0x28
 80071f0:	89a3      	ldrh	r3, [r4, #12]
 80071f2:	6020      	str	r0, [r4, #0]
 80071f4:	f043 0380 	orr.w	r3, r3, #128	; 0x80
 80071f8:	81a3      	strh	r3, [r4, #12]
 80071fa:	9b00      	ldr	r3, [sp, #0]
 80071fc:	6120      	str	r0, [r4, #16]
 80071fe:	6163      	str	r3, [r4, #20]
 8007200:	9b01      	ldr	r3, [sp, #4]
 8007202:	b15b      	cbz	r3, 800721c <__smakebuf_r+0x74>
 8007204:	4630      	mov	r0, r6
 8007206:	f9b4 100e 	ldrsh.w	r1, [r4, #14]
 800720a:	f000 f8d7 	bl	80073bc <_isatty_r>
 800720e:	b128      	cbz	r0, 800721c <__smakebuf_r+0x74>
 8007210:	89a3      	ldrh	r3, [r4, #12]
 8007212:	f023 0303 	bic.w	r3, r3, #3
 8007216:	f043 0301 	orr.w	r3, r3, #1
 800721a:	81a3      	strh	r3, [r4, #12]
 800721c:	89a0      	ldrh	r0, [r4, #12]
 800721e:	4305      	orrs	r5, r0
 8007220:	81a5      	strh	r5, [r4, #12]
 8007222:	e7cd      	b.n	80071c0 <__smakebuf_r+0x18>
 8007224:	08006fb9 	.word	0x08006fb9

08007228 <memchr>:
 8007228:	4603      	mov	r3, r0
 800722a:	b510      	push	{r4, lr}
 800722c:	b2c9      	uxtb	r1, r1
 800722e:	4402      	add	r2, r0
 8007230:	4293      	cmp	r3, r2
 8007232:	4618      	mov	r0, r3
 8007234:	d101      	bne.n	800723a <memchr+0x12>
 8007236:	2000      	movs	r0, #0
 8007238:	e003      	b.n	8007242 <memchr+0x1a>
 800723a:	7804      	ldrb	r4, [r0, #0]
 800723c:	3301      	adds	r3, #1
 800723e:	428c      	cmp	r4, r1
 8007240:	d1f6      	bne.n	8007230 <memchr+0x8>
 8007242:	bd10      	pop	{r4, pc}

08007244 <_raise_r>:
 8007244:	291f      	cmp	r1, #31
 8007246:	b538      	push	{r3, r4, r5, lr}
 8007248:	4604      	mov	r4, r0
 800724a:	460d      	mov	r5, r1
 800724c:	d904      	bls.n	8007258 <_raise_r+0x14>
 800724e:	2316      	movs	r3, #22
 8007250:	6003      	str	r3, [r0, #0]
 8007252:	f04f 30ff 	mov.w	r0, #4294967295	; 0xffffffff
 8007256:	bd38      	pop	{r3, r4, r5, pc}
 8007258:	6c42      	ldr	r2, [r0, #68]	; 0x44
 800725a:	b112      	cbz	r2, 8007262 <_raise_r+0x1e>
 800725c:	f852 3021 	ldr.w	r3, [r2, r1, lsl #2]
 8007260:	b94b      	cbnz	r3, 8007276 <_raise_r+0x32>
 8007262:	4620      	mov	r0, r4
 8007264:	f000 f830 	bl	80072c8 <_getpid_r>
 8007268:	462a      	mov	r2, r5
 800726a:	4601      	mov	r1, r0
 800726c:	4620      	mov	r0, r4
 800726e:	e8bd 4038 	ldmia.w	sp!, {r3, r4, r5, lr}
 8007272:	f000 b817 	b.w	80072a4 <_kill_r>
 8007276:	2b01      	cmp	r3, #1
 8007278:	d00a      	beq.n	8007290 <_raise_r+0x4c>
 800727a:	1c59      	adds	r1, r3, #1
 800727c:	d103      	bne.n	8007286 <_raise_r+0x42>
 800727e:	2316      	movs	r3, #22
 8007280:	6003      	str	r3, [r0, #0]
 8007282:	2001      	movs	r0, #1
 8007284:	e7e7      	b.n	8007256 <_raise_r+0x12>
 8007286:	2400      	movs	r4, #0
 8007288:	4628      	mov	r0, r5
 800728a:	f842 4025 	str.w	r4, [r2, r5, lsl #2]
 800728e:	4798      	blx	r3
 8007290:	2000      	movs	r0, #0
 8007292:	e7e0      	b.n	8007256 <_raise_r+0x12>

08007294 <raise>:
 8007294:	4b02      	ldr	r3, [pc, #8]	; (80072a0 <raise+0xc>)
 8007296:	4601      	mov	r1, r0
 8007298:	6818      	ldr	r0, [r3, #0]
 800729a:	f7ff bfd3 	b.w	8007244 <_raise_r>
 800729e:	bf00      	nop
 80072a0:	200000ac 	.word	0x200000ac

080072a4 <_kill_r>:
 80072a4:	b538      	push	{r3, r4, r5, lr}
 80072a6:	2300      	movs	r3, #0
 80072a8:	4d06      	ldr	r5, [pc, #24]	; (80072c4 <_kill_r+0x20>)
 80072aa:	4604      	mov	r4, r0
 80072ac:	4608      	mov	r0, r1
 80072ae:	4611      	mov	r1, r2
 80072b0:	602b      	str	r3, [r5, #0]
 80072b2:	f7fb fb4d 	bl	8002950 <_kill>
 80072b6:	1c43      	adds	r3, r0, #1
 80072b8:	d102      	bne.n	80072c0 <_kill_r+0x1c>
 80072ba:	682b      	ldr	r3, [r5, #0]
 80072bc:	b103      	cbz	r3, 80072c0 <_kill_r+0x1c>
 80072be:	6023      	str	r3, [r4, #0]
 80072c0:	bd38      	pop	{r3, r4, r5, pc}
 80072c2:	bf00      	nop
 80072c4:	20000424 	.word	0x20000424

080072c8 <_getpid_r>:
 80072c8:	f7fb bb40 	b.w	800294c <_getpid>

080072cc <__sread>:
 80072cc:	b510      	push	{r4, lr}
 80072ce:	460c      	mov	r4, r1
 80072d0:	f9b1 100e 	ldrsh.w	r1, [r1, #14]
 80072d4:	f000 f894 	bl	8007400 <_read_r>
 80072d8:	2800      	cmp	r0, #0
 80072da:	bfab      	itete	ge
 80072dc:	6d63      	ldrge	r3, [r4, #84]	; 0x54
 80072de:	89a3      	ldrhlt	r3, [r4, #12]
 80072e0:	181b      	addge	r3, r3, r0
 80072e2:	f423 5380 	biclt.w	r3, r3, #4096	; 0x1000
 80072e6:	bfac      	ite	ge
 80072e8:	6563      	strge	r3, [r4, #84]	; 0x54
 80072ea:	81a3      	strhlt	r3, [r4, #12]
 80072ec:	bd10      	pop	{r4, pc}

080072ee <__swrite>:
 80072ee:	e92d 41f0 	stmdb	sp!, {r4, r5, r6, r7, r8, lr}
 80072f2:	461f      	mov	r7, r3
 80072f4:	898b      	ldrh	r3, [r1, #12]
 80072f6:	4605      	mov	r5, r0
 80072f8:	05db      	lsls	r3, r3, #23
 80072fa:	460c      	mov	r4, r1
 80072fc:	4616      	mov	r6, r2
 80072fe:	d505      	bpl.n	800730c <__swrite+0x1e>
 8007300:	2302      	movs	r3, #2
 8007302:	2200      	movs	r2, #0
 8007304:	f9b1 100e 	ldrsh.w	r1, [r1, #14]
 8007308:	f000 f868 	bl	80073dc <_lseek_r>
 800730c:	89a3      	ldrh	r3, [r4, #12]
 800730e:	4632      	mov	r2, r6
 8007310:	f423 5380 	bic.w	r3, r3, #4096	; 0x1000
 8007314:	81a3      	strh	r3, [r4, #12]
 8007316:	4628      	mov	r0, r5
 8007318:	463b      	mov	r3, r7
 800731a:	f9b4 100e 	ldrsh.w	r1, [r4, #14]
 800731e:	e8bd 41f0 	ldmia.w	sp!, {r4, r5, r6, r7, r8, lr}
 8007322:	f000 b817 	b.w	8007354 <_write_r>

08007326 <__sseek>:
 8007326:	b510      	push	{r4, lr}
 8007328:	460c      	mov	r4, r1
 800732a:	f9b1 100e 	ldrsh.w	r1, [r1, #14]
 800732e:	f000 f855 	bl	80073dc <_lseek_r>
 8007332:	1c43      	adds	r3, r0, #1
 8007334:	89a3      	ldrh	r3, [r4, #12]
 8007336:	bf15      	itete	ne
 8007338:	6560      	strne	r0, [r4, #84]	; 0x54
 800733a:	f423 5380 	biceq.w	r3, r3, #4096	; 0x1000
 800733e:	f443 5380 	orrne.w	r3, r3, #4096	; 0x1000
 8007342:	81a3      	strheq	r3, [r4, #12]
 8007344:	bf18      	it	ne
 8007346:	81a3      	strhne	r3, [r4, #12]
 8007348:	bd10      	pop	{r4, pc}

0800734a <__sclose>:
 800734a:	f9b1 100e 	ldrsh.w	r1, [r1, #14]
 800734e:	f000 b813 	b.w	8007378 <_close_r>
	...

08007354 <_write_r>:
 8007354:	b538      	push	{r3, r4, r5, lr}
 8007356:	4604      	mov	r4, r0
 8007358:	4608      	mov	r0, r1
 800735a:	4611      	mov	r1, r2
 800735c:	2200      	movs	r2, #0
 800735e:	4d05      	ldr	r5, [pc, #20]	; (8007374 <_write_r+0x20>)
 8007360:	602a      	str	r2, [r5, #0]
 8007362:	461a      	mov	r2, r3
 8007364:	f7fb fb0f 	bl	8002986 <_write>
 8007368:	1c43      	adds	r3, r0, #1
 800736a:	d102      	bne.n	8007372 <_write_r+0x1e>
 800736c:	682b      	ldr	r3, [r5, #0]
 800736e:	b103      	cbz	r3, 8007372 <_write_r+0x1e>
 8007370:	6023      	str	r3, [r4, #0]
 8007372:	bd38      	pop	{r3, r4, r5, pc}
 8007374:	20000424 	.word	0x20000424

08007378 <_close_r>:
 8007378:	b538      	push	{r3, r4, r5, lr}
 800737a:	2300      	movs	r3, #0
 800737c:	4d05      	ldr	r5, [pc, #20]	; (8007394 <_close_r+0x1c>)
 800737e:	4604      	mov	r4, r0
 8007380:	4608      	mov	r0, r1
 8007382:	602b      	str	r3, [r5, #0]
 8007384:	f7fb fb0c 	bl	80029a0 <_close>
 8007388:	1c43      	adds	r3, r0, #1
 800738a:	d102      	bne.n	8007392 <_close_r+0x1a>
 800738c:	682b      	ldr	r3, [r5, #0]
 800738e:	b103      	cbz	r3, 8007392 <_close_r+0x1a>
 8007390:	6023      	str	r3, [r4, #0]
 8007392:	bd38      	pop	{r3, r4, r5, pc}
 8007394:	20000424 	.word	0x20000424

08007398 <_fstat_r>:
 8007398:	b538      	push	{r3, r4, r5, lr}
 800739a:	2300      	movs	r3, #0
 800739c:	4d06      	ldr	r5, [pc, #24]	; (80073b8 <_fstat_r+0x20>)
 800739e:	4604      	mov	r4, r0
 80073a0:	4608      	mov	r0, r1
 80073a2:	4611      	mov	r1, r2
 80073a4:	602b      	str	r3, [r5, #0]
 80073a6:	f7fb fafe 	bl	80029a6 <_fstat>
 80073aa:	1c43      	adds	r3, r0, #1
 80073ac:	d102      	bne.n	80073b4 <_fstat_r+0x1c>
 80073ae:	682b      	ldr	r3, [r5, #0]
 80073b0:	b103      	cbz	r3, 80073b4 <_fstat_r+0x1c>
 80073b2:	6023      	str	r3, [r4, #0]
 80073b4:	bd38      	pop	{r3, r4, r5, pc}
 80073b6:	bf00      	nop
 80073b8:	20000424 	.word	0x20000424

080073bc <_isatty_r>:
 80073bc:	b538      	push	{r3, r4, r5, lr}
 80073be:	2300      	movs	r3, #0
 80073c0:	4d05      	ldr	r5, [pc, #20]	; (80073d8 <_isatty_r+0x1c>)
 80073c2:	4604      	mov	r4, r0
 80073c4:	4608      	mov	r0, r1
 80073c6:	602b      	str	r3, [r5, #0]
 80073c8:	f7fb faf2 	bl	80029b0 <_isatty>
 80073cc:	1c43      	adds	r3, r0, #1
 80073ce:	d102      	bne.n	80073d6 <_isatty_r+0x1a>
 80073d0:	682b      	ldr	r3, [r5, #0]
 80073d2:	b103      	cbz	r3, 80073d6 <_isatty_r+0x1a>
 80073d4:	6023      	str	r3, [r4, #0]
 80073d6:	bd38      	pop	{r3, r4, r5, pc}
 80073d8:	20000424 	.word	0x20000424

080073dc <_lseek_r>:
 80073dc:	b538      	push	{r3, r4, r5, lr}
 80073de:	4604      	mov	r4, r0
 80073e0:	4608      	mov	r0, r1
 80073e2:	4611      	mov	r1, r2
 80073e4:	2200      	movs	r2, #0
 80073e6:	4d05      	ldr	r5, [pc, #20]	; (80073fc <_lseek_r+0x20>)
 80073e8:	602a      	str	r2, [r5, #0]
 80073ea:	461a      	mov	r2, r3
 80073ec:	f7fb fae2 	bl	80029b4 <_lseek>
 80073f0:	1c43      	adds	r3, r0, #1
 80073f2:	d102      	bne.n	80073fa <_lseek_r+0x1e>
 80073f4:	682b      	ldr	r3, [r5, #0]
 80073f6:	b103      	cbz	r3, 80073fa <_lseek_r+0x1e>
 80073f8:	6023      	str	r3, [r4, #0]
 80073fa:	bd38      	pop	{r3, r4, r5, pc}
 80073fc:	20000424 	.word	0x20000424

08007400 <_read_r>:
 8007400:	b538      	push	{r3, r4, r5, lr}
 8007402:	4604      	mov	r4, r0
 8007404:	4608      	mov	r0, r1
 8007406:	4611      	mov	r1, r2
 8007408:	2200      	movs	r2, #0
 800740a:	4d05      	ldr	r5, [pc, #20]	; (8007420 <_read_r+0x20>)
 800740c:	602a      	str	r2, [r5, #0]
 800740e:	461a      	mov	r2, r3
 8007410:	f7fb faac 	bl	800296c <_read>
 8007414:	1c43      	adds	r3, r0, #1
 8007416:	d102      	bne.n	800741e <_read_r+0x1e>
 8007418:	682b      	ldr	r3, [r5, #0]
 800741a:	b103      	cbz	r3, 800741e <_read_r+0x1e>
 800741c:	6023      	str	r3, [r4, #0]
 800741e:	bd38      	pop	{r3, r4, r5, pc}
 8007420:	20000424 	.word	0x20000424
 8007424:	00000000 	.word	0x00000000

08007428 <atan>:
 8007428:	e92d 4ff8 	stmdb	sp!, {r3, r4, r5, r6, r7, r8, r9, sl, fp, lr}
 800742c:	4bb6      	ldr	r3, [pc, #728]	; (8007708 <atan+0x2e0>)
 800742e:	f021 4600 	bic.w	r6, r1, #2147483648	; 0x80000000
 8007432:	429e      	cmp	r6, r3
 8007434:	4604      	mov	r4, r0
 8007436:	460d      	mov	r5, r1
 8007438:	468b      	mov	fp, r1
 800743a:	dd17      	ble.n	800746c <atan+0x44>
 800743c:	4bb3      	ldr	r3, [pc, #716]	; (800770c <atan+0x2e4>)
 800743e:	429e      	cmp	r6, r3
 8007440:	dc01      	bgt.n	8007446 <atan+0x1e>
 8007442:	d109      	bne.n	8007458 <atan+0x30>
 8007444:	b140      	cbz	r0, 8007458 <atan+0x30>
 8007446:	4622      	mov	r2, r4
 8007448:	462b      	mov	r3, r5
 800744a:	4620      	mov	r0, r4
 800744c:	4629      	mov	r1, r5
 800744e:	f7f8 fe8d 	bl	800016c <__adddf3>
 8007452:	4604      	mov	r4, r0
 8007454:	460d      	mov	r5, r1
 8007456:	e005      	b.n	8007464 <atan+0x3c>
 8007458:	f1bb 0f00 	cmp.w	fp, #0
 800745c:	4cac      	ldr	r4, [pc, #688]	; (8007710 <atan+0x2e8>)
 800745e:	f300 8121 	bgt.w	80076a4 <atan+0x27c>
 8007462:	4dac      	ldr	r5, [pc, #688]	; (8007714 <atan+0x2ec>)
 8007464:	4620      	mov	r0, r4
 8007466:	4629      	mov	r1, r5
 8007468:	e8bd 8ff8 	ldmia.w	sp!, {r3, r4, r5, r6, r7, r8, r9, sl, fp, pc}
 800746c:	4baa      	ldr	r3, [pc, #680]	; (8007718 <atan+0x2f0>)
 800746e:	429e      	cmp	r6, r3
 8007470:	dc11      	bgt.n	8007496 <atan+0x6e>
 8007472:	f1a3 73de 	sub.w	r3, r3, #29097984	; 0x1bc0000
 8007476:	429e      	cmp	r6, r3
 8007478:	dc0a      	bgt.n	8007490 <atan+0x68>
 800747a:	a38b      	add	r3, pc, #556	; (adr r3, 80076a8 <atan+0x280>)
 800747c:	e9d3 2300 	ldrd	r2, r3, [r3]
 8007480:	f7f8 fe74 	bl	800016c <__adddf3>
 8007484:	2200      	movs	r2, #0
 8007486:	4ba5      	ldr	r3, [pc, #660]	; (800771c <atan+0x2f4>)
 8007488:	f7f9 fab6 	bl	80009f8 <__aeabi_dcmpgt>
 800748c:	2800      	cmp	r0, #0
 800748e:	d1e9      	bne.n	8007464 <atan+0x3c>
 8007490:	f04f 3aff 	mov.w	sl, #4294967295	; 0xffffffff
 8007494:	e027      	b.n	80074e6 <atan+0xbe>
 8007496:	f000 f993 	bl	80077c0 <fabs>
 800749a:	4ba1      	ldr	r3, [pc, #644]	; (8007720 <atan+0x2f8>)
 800749c:	4604      	mov	r4, r0
 800749e:	429e      	cmp	r6, r3
 80074a0:	460d      	mov	r5, r1
 80074a2:	f300 80b8 	bgt.w	8007616 <atan+0x1ee>
 80074a6:	f5a3 2350 	sub.w	r3, r3, #851968	; 0xd0000
 80074aa:	429e      	cmp	r6, r3
 80074ac:	f300 809c 	bgt.w	80075e8 <atan+0x1c0>
 80074b0:	4602      	mov	r2, r0
 80074b2:	460b      	mov	r3, r1
 80074b4:	f7f8 fe5a 	bl	800016c <__adddf3>
 80074b8:	2200      	movs	r2, #0
 80074ba:	4b98      	ldr	r3, [pc, #608]	; (800771c <atan+0x2f4>)
 80074bc:	f7f8 fe54 	bl	8000168 <__aeabi_dsub>
 80074c0:	2200      	movs	r2, #0
 80074c2:	4606      	mov	r6, r0
 80074c4:	460f      	mov	r7, r1
 80074c6:	f04f 4380 	mov.w	r3, #1073741824	; 0x40000000
 80074ca:	4620      	mov	r0, r4
 80074cc:	4629      	mov	r1, r5
 80074ce:	f7f8 fe4d 	bl	800016c <__adddf3>
 80074d2:	4602      	mov	r2, r0
 80074d4:	460b      	mov	r3, r1
 80074d6:	4630      	mov	r0, r6
 80074d8:	4639      	mov	r1, r7
 80074da:	f7f9 f927 	bl	800072c <__aeabi_ddiv>
 80074de:	f04f 0a00 	mov.w	sl, #0
 80074e2:	4604      	mov	r4, r0
 80074e4:	460d      	mov	r5, r1
 80074e6:	4622      	mov	r2, r4
 80074e8:	462b      	mov	r3, r5
 80074ea:	4620      	mov	r0, r4
 80074ec:	4629      	mov	r1, r5
 80074ee:	f7f8 fff3 	bl	80004d8 <__aeabi_dmul>
 80074f2:	4602      	mov	r2, r0
 80074f4:	460b      	mov	r3, r1
 80074f6:	4680      	mov	r8, r0
 80074f8:	4689      	mov	r9, r1
 80074fa:	f7f8 ffed 	bl	80004d8 <__aeabi_dmul>
 80074fe:	a36c      	add	r3, pc, #432	; (adr r3, 80076b0 <atan+0x288>)
 8007500:	e9d3 2300 	ldrd	r2, r3, [r3]
 8007504:	4606      	mov	r6, r0
 8007506:	460f      	mov	r7, r1
 8007508:	f7f8 ffe6 	bl	80004d8 <__aeabi_dmul>
 800750c:	a36a      	add	r3, pc, #424	; (adr r3, 80076b8 <atan+0x290>)
 800750e:	e9d3 2300 	ldrd	r2, r3, [r3]
 8007512:	f7f8 fe2b 	bl	800016c <__adddf3>
 8007516:	4632      	mov	r2, r6
 8007518:	463b      	mov	r3, r7
 800751a:	f7f8 ffdd 	bl	80004d8 <__aeabi_dmul>
 800751e:	a368      	add	r3, pc, #416	; (adr r3, 80076c0 <atan+0x298>)
 8007520:	e9d3 2300 	ldrd	r2, r3, [r3]
 8007524:	f7f8 fe22 	bl	800016c <__adddf3>
 8007528:	4632      	mov	r2, r6
 800752a:	463b      	mov	r3, r7
 800752c:	f7f8 ffd4 	bl	80004d8 <__aeabi_dmul>
 8007530:	a365      	add	r3, pc, #404	; (adr r3, 80076c8 <atan+0x2a0>)
 8007532:	e9d3 2300 	ldrd	r2, r3, [r3]
 8007536:	f7f8 fe19 	bl	800016c <__adddf3>
 800753a:	4632      	mov	r2, r6
 800753c:	463b      	mov	r3, r7
 800753e:	f7f8 ffcb 	bl	80004d8 <__aeabi_dmul>
 8007542:	a363      	add	r3, pc, #396	; (adr r3, 80076d0 <atan+0x2a8>)
 8007544:	e9d3 2300 	ldrd	r2, r3, [r3]
 8007548:	f7f8 fe10 	bl	800016c <__adddf3>
 800754c:	4632      	mov	r2, r6
 800754e:	463b      	mov	r3, r7
 8007550:	f7f8 ffc2 	bl	80004d8 <__aeabi_dmul>
 8007554:	a360      	add	r3, pc, #384	; (adr r3, 80076d8 <atan+0x2b0>)
 8007556:	e9d3 2300 	ldrd	r2, r3, [r3]
 800755a:	f7f8 fe07 	bl	800016c <__adddf3>
 800755e:	4642      	mov	r2, r8
 8007560:	464b      	mov	r3, r9
 8007562:	f7f8 ffb9 	bl	80004d8 <__aeabi_dmul>
 8007566:	a35e      	add	r3, pc, #376	; (adr r3, 80076e0 <atan+0x2b8>)
 8007568:	e9d3 2300 	ldrd	r2, r3, [r3]
 800756c:	4680      	mov	r8, r0
 800756e:	4689      	mov	r9, r1
 8007570:	4630      	mov	r0, r6
 8007572:	4639      	mov	r1, r7
 8007574:	f7f8 ffb0 	bl	80004d8 <__aeabi_dmul>
 8007578:	a35b      	add	r3, pc, #364	; (adr r3, 80076e8 <atan+0x2c0>)
 800757a:	e9d3 2300 	ldrd	r2, r3, [r3]
 800757e:	f7f8 fdf3 	bl	8000168 <__aeabi_dsub>
 8007582:	4632      	mov	r2, r6
 8007584:	463b      	mov	r3, r7
 8007586:	f7f8 ffa7 	bl	80004d8 <__aeabi_dmul>
 800758a:	a359      	add	r3, pc, #356	; (adr r3, 80076f0 <atan+0x2c8>)
 800758c:	e9d3 2300 	ldrd	r2, r3, [r3]
 8007590:	f7f8 fdea 	bl	8000168 <__aeabi_dsub>
 8007594:	4632      	mov	r2, r6
 8007596:	463b      	mov	r3, r7
 8007598:	f7f8 ff9e 	bl	80004d8 <__aeabi_dmul>
 800759c:	a356      	add	r3, pc, #344	; (adr r3, 80076f8 <atan+0x2d0>)
 800759e:	e9d3 2300 	ldrd	r2, r3, [r3]
 80075a2:	f7f8 fde1 	bl	8000168 <__aeabi_dsub>
 80075a6:	4632      	mov	r2, r6
 80075a8:	463b      	mov	r3, r7
 80075aa:	f7f8 ff95 	bl	80004d8 <__aeabi_dmul>
 80075ae:	a354      	add	r3, pc, #336	; (adr r3, 8007700 <atan+0x2d8>)
 80075b0:	e9d3 2300 	ldrd	r2, r3, [r3]
 80075b4:	f7f8 fdd8 	bl	8000168 <__aeabi_dsub>
 80075b8:	4632      	mov	r2, r6
 80075ba:	463b      	mov	r3, r7
 80075bc:	f7f8 ff8c 	bl	80004d8 <__aeabi_dmul>
 80075c0:	4602      	mov	r2, r0
 80075c2:	460b      	mov	r3, r1
 80075c4:	4640      	mov	r0, r8
 80075c6:	4649      	mov	r1, r9
 80075c8:	f7f8 fdd0 	bl	800016c <__adddf3>
 80075cc:	4622      	mov	r2, r4
 80075ce:	462b      	mov	r3, r5
 80075d0:	f7f8 ff82 	bl	80004d8 <__aeabi_dmul>
 80075d4:	f1ba 3fff 	cmp.w	sl, #4294967295	; 0xffffffff
 80075d8:	4602      	mov	r2, r0
 80075da:	460b      	mov	r3, r1
 80075dc:	d144      	bne.n	8007668 <atan+0x240>
 80075de:	4620      	mov	r0, r4
 80075e0:	4629      	mov	r1, r5
 80075e2:	f7f8 fdc1 	bl	8000168 <__aeabi_dsub>
 80075e6:	e734      	b.n	8007452 <atan+0x2a>
 80075e8:	2200      	movs	r2, #0
 80075ea:	4b4c      	ldr	r3, [pc, #304]	; (800771c <atan+0x2f4>)
 80075ec:	f7f8 fdbc 	bl	8000168 <__aeabi_dsub>
 80075f0:	2200      	movs	r2, #0
 80075f2:	4606      	mov	r6, r0
 80075f4:	460f      	mov	r7, r1
 80075f6:	4620      	mov	r0, r4
 80075f8:	4629      	mov	r1, r5
 80075fa:	4b48      	ldr	r3, [pc, #288]	; (800771c <atan+0x2f4>)
 80075fc:	f7f8 fdb6 	bl	800016c <__adddf3>
 8007600:	4602      	mov	r2, r0
 8007602:	460b      	mov	r3, r1
 8007604:	4630      	mov	r0, r6
 8007606:	4639      	mov	r1, r7
 8007608:	f7f9 f890 	bl	800072c <__aeabi_ddiv>
 800760c:	f04f 0a01 	mov.w	sl, #1
 8007610:	4604      	mov	r4, r0
 8007612:	460d      	mov	r5, r1
 8007614:	e767      	b.n	80074e6 <atan+0xbe>
 8007616:	4b43      	ldr	r3, [pc, #268]	; (8007724 <atan+0x2fc>)
 8007618:	429e      	cmp	r6, r3
 800761a:	da1a      	bge.n	8007652 <atan+0x22a>
 800761c:	2200      	movs	r2, #0
 800761e:	4b42      	ldr	r3, [pc, #264]	; (8007728 <atan+0x300>)
 8007620:	f7f8 fda2 	bl	8000168 <__aeabi_dsub>
 8007624:	2200      	movs	r2, #0
 8007626:	4606      	mov	r6, r0
 8007628:	460f      	mov	r7, r1
 800762a:	4620      	mov	r0, r4
 800762c:	4629      	mov	r1, r5
 800762e:	4b3e      	ldr	r3, [pc, #248]	; (8007728 <atan+0x300>)
 8007630:	f7f8 ff52 	bl	80004d8 <__aeabi_dmul>
 8007634:	2200      	movs	r2, #0
 8007636:	4b39      	ldr	r3, [pc, #228]	; (800771c <atan+0x2f4>)
 8007638:	f7f8 fd98 	bl	800016c <__adddf3>
 800763c:	4602      	mov	r2, r0
 800763e:	460b      	mov	r3, r1
 8007640:	4630      	mov	r0, r6
 8007642:	4639      	mov	r1, r7
 8007644:	f7f9 f872 	bl	800072c <__aeabi_ddiv>
 8007648:	f04f 0a02 	mov.w	sl, #2
 800764c:	4604      	mov	r4, r0
 800764e:	460d      	mov	r5, r1
 8007650:	e749      	b.n	80074e6 <atan+0xbe>
 8007652:	4602      	mov	r2, r0
 8007654:	460b      	mov	r3, r1
 8007656:	2000      	movs	r0, #0
 8007658:	4934      	ldr	r1, [pc, #208]	; (800772c <atan+0x304>)
 800765a:	f7f9 f867 	bl	800072c <__aeabi_ddiv>
 800765e:	f04f 0a03 	mov.w	sl, #3
 8007662:	4604      	mov	r4, r0
 8007664:	460d      	mov	r5, r1
 8007666:	e73e      	b.n	80074e6 <atan+0xbe>
 8007668:	4b31      	ldr	r3, [pc, #196]	; (8007730 <atan+0x308>)
 800766a:	4e32      	ldr	r6, [pc, #200]	; (8007734 <atan+0x30c>)
 800766c:	eb06 06ca 	add.w	r6, r6, sl, lsl #3
 8007670:	eb03 0aca 	add.w	sl, r3, sl, lsl #3
 8007674:	e9da 2300 	ldrd	r2, r3, [sl]
 8007678:	f7f8 fd76 	bl	8000168 <__aeabi_dsub>
 800767c:	4622      	mov	r2, r4
 800767e:	462b      	mov	r3, r5
 8007680:	f7f8 fd72 	bl	8000168 <__aeabi_dsub>
 8007684:	4602      	mov	r2, r0
 8007686:	460b      	mov	r3, r1
 8007688:	e9d6 0100 	ldrd	r0, r1, [r6]
 800768c:	f7f8 fd6c 	bl	8000168 <__aeabi_dsub>
 8007690:	f1bb 0f00 	cmp.w	fp, #0
 8007694:	4604      	mov	r4, r0
 8007696:	460d      	mov	r5, r1
 8007698:	f6bf aee4 	bge.w	8007464 <atan+0x3c>
 800769c:	f101 4300 	add.w	r3, r1, #2147483648	; 0x80000000
 80076a0:	461d      	mov	r5, r3
 80076a2:	e6df      	b.n	8007464 <atan+0x3c>
 80076a4:	4d24      	ldr	r5, [pc, #144]	; (8007738 <atan+0x310>)
 80076a6:	e6dd      	b.n	8007464 <atan+0x3c>
 80076a8:	8800759c 	.word	0x8800759c
 80076ac:	7e37e43c 	.word	0x7e37e43c
 80076b0:	e322da11 	.word	0xe322da11
 80076b4:	3f90ad3a 	.word	0x3f90ad3a
 80076b8:	24760deb 	.word	0x24760deb
 80076bc:	3fa97b4b 	.word	0x3fa97b4b
 80076c0:	a0d03d51 	.word	0xa0d03d51
 80076c4:	3fb10d66 	.word	0x3fb10d66
 80076c8:	c54c206e 	.word	0xc54c206e
 80076cc:	3fb745cd 	.word	0x3fb745cd
 80076d0:	920083ff 	.word	0x920083ff
 80076d4:	3fc24924 	.word	0x3fc24924
 80076d8:	5555550d 	.word	0x5555550d
 80076dc:	3fd55555 	.word	0x3fd55555
 80076e0:	2c6a6c2f 	.word	0x2c6a6c2f
 80076e4:	bfa2b444 	.word	0xbfa2b444
 80076e8:	52defd9a 	.word	0x52defd9a
 80076ec:	3fadde2d 	.word	0x3fadde2d
 80076f0:	af749a6d 	.word	0xaf749a6d
 80076f4:	3fb3b0f2 	.word	0x3fb3b0f2
 80076f8:	fe231671 	.word	0xfe231671
 80076fc:	3fbc71c6 	.word	0x3fbc71c6
 8007700:	9998ebc4 	.word	0x9998ebc4
 8007704:	3fc99999 	.word	0x3fc99999
 8007708:	440fffff 	.word	0x440fffff
 800770c:	7ff00000 	.word	0x7ff00000
 8007710:	54442d18 	.word	0x54442d18
 8007714:	bff921fb 	.word	0xbff921fb
 8007718:	3fdbffff 	.word	0x3fdbffff
 800771c:	3ff00000 	.word	0x3ff00000
 8007720:	3ff2ffff 	.word	0x3ff2ffff
 8007724:	40038000 	.word	0x40038000
 8007728:	3ff80000 	.word	0x3ff80000
 800772c:	bff00000 	.word	0xbff00000
 8007730:	08009080 	.word	0x08009080
 8007734:	08009060 	.word	0x08009060
 8007738:	3ff921fb 	.word	0x3ff921fb

0800773c <cos>:
 800773c:	b530      	push	{r4, r5, lr}
 800773e:	4a1e      	ldr	r2, [pc, #120]	; (80077b8 <cos+0x7c>)
 8007740:	f021 4300 	bic.w	r3, r1, #2147483648	; 0x80000000
 8007744:	4293      	cmp	r3, r2
 8007746:	b087      	sub	sp, #28
 8007748:	dc04      	bgt.n	8007754 <cos+0x18>
 800774a:	2200      	movs	r2, #0
 800774c:	2300      	movs	r3, #0
 800774e:	f000 fc67 	bl	8008020 <__kernel_cos>
 8007752:	e006      	b.n	8007762 <cos+0x26>
 8007754:	4a19      	ldr	r2, [pc, #100]	; (80077bc <cos+0x80>)
 8007756:	4293      	cmp	r3, r2
 8007758:	dd05      	ble.n	8007766 <cos+0x2a>
 800775a:	4602      	mov	r2, r0
 800775c:	460b      	mov	r3, r1
 800775e:	f7f8 fd03 	bl	8000168 <__aeabi_dsub>
 8007762:	b007      	add	sp, #28
 8007764:	bd30      	pop	{r4, r5, pc}
 8007766:	aa02      	add	r2, sp, #8
 8007768:	f000 f9be 	bl	8007ae8 <__ieee754_rem_pio2>
 800776c:	f000 0003 	and.w	r0, r0, #3
 8007770:	2801      	cmp	r0, #1
 8007772:	d007      	beq.n	8007784 <cos+0x48>
 8007774:	2802      	cmp	r0, #2
 8007776:	d00f      	beq.n	8007798 <cos+0x5c>
 8007778:	b9a8      	cbnz	r0, 80077a6 <cos+0x6a>
 800777a:	e9dd 2304 	ldrd	r2, r3, [sp, #16]
 800777e:	e9dd 0102 	ldrd	r0, r1, [sp, #8]
 8007782:	e7e4      	b.n	800774e <cos+0x12>
 8007784:	9000      	str	r0, [sp, #0]
 8007786:	e9dd 2304 	ldrd	r2, r3, [sp, #16]
 800778a:	e9dd 0102 	ldrd	r0, r1, [sp, #8]
 800778e:	f001 f84f 	bl	8008830 <__kernel_sin>
 8007792:	f101 4100 	add.w	r1, r1, #2147483648	; 0x80000000
 8007796:	e7e4      	b.n	8007762 <cos+0x26>
 8007798:	e9dd 2304 	ldrd	r2, r3, [sp, #16]
 800779c:	e9dd 0102 	ldrd	r0, r1, [sp, #8]
 80077a0:	f000 fc3e 	bl	8008020 <__kernel_cos>
 80077a4:	e7f5      	b.n	8007792 <cos+0x56>
 80077a6:	2301      	movs	r3, #1
 80077a8:	e9dd 0102 	ldrd	r0, r1, [sp, #8]
 80077ac:	9300      	str	r3, [sp, #0]
 80077ae:	e9dd 2304 	ldrd	r2, r3, [sp, #16]
 80077b2:	f001 f83d 	bl	8008830 <__kernel_sin>
 80077b6:	e7d4      	b.n	8007762 <cos+0x26>
 80077b8:	3fe921fb 	.word	0x3fe921fb
 80077bc:	7fefffff 	.word	0x7fefffff

080077c0 <fabs>:
 80077c0:	f021 4100 	bic.w	r1, r1, #2147483648	; 0x80000000
 80077c4:	4770      	bx	lr
	...

080077c8 <round>:
 80077c8:	b5f8      	push	{r3, r4, r5, r6, r7, lr}
 80077ca:	f3c1 570a 	ubfx	r7, r1, #20, #11
 80077ce:	f2a7 34ff 	subw	r4, r7, #1023	; 0x3ff
 80077d2:	2c13      	cmp	r4, #19
 80077d4:	4602      	mov	r2, r0
 80077d6:	460b      	mov	r3, r1
 80077d8:	4606      	mov	r6, r0
 80077da:	460d      	mov	r5, r1
 80077dc:	dc19      	bgt.n	8007812 <round+0x4a>
 80077de:	2c00      	cmp	r4, #0
 80077e0:	da09      	bge.n	80077f6 <round+0x2e>
 80077e2:	3401      	adds	r4, #1
 80077e4:	f001 4300 	and.w	r3, r1, #2147483648	; 0x80000000
 80077e8:	d103      	bne.n	80077f2 <round+0x2a>
 80077ea:	f043 537f 	orr.w	r3, r3, #1069547520	; 0x3fc00000
 80077ee:	f443 1340 	orr.w	r3, r3, #3145728	; 0x300000
 80077f2:	2200      	movs	r2, #0
 80077f4:	e02a      	b.n	800784c <round+0x84>
 80077f6:	4917      	ldr	r1, [pc, #92]	; (8007854 <round+0x8c>)
 80077f8:	4121      	asrs	r1, r4
 80077fa:	ea03 0001 	and.w	r0, r3, r1
 80077fe:	4302      	orrs	r2, r0
 8007800:	d010      	beq.n	8007824 <round+0x5c>
 8007802:	f44f 2200 	mov.w	r2, #524288	; 0x80000
 8007806:	fa42 f404 	asr.w	r4, r2, r4
 800780a:	4423      	add	r3, r4
 800780c:	ea23 0301 	bic.w	r3, r3, r1
 8007810:	e7ef      	b.n	80077f2 <round+0x2a>
 8007812:	2c33      	cmp	r4, #51	; 0x33
 8007814:	dd09      	ble.n	800782a <round+0x62>
 8007816:	f5b4 6f80 	cmp.w	r4, #1024	; 0x400
 800781a:	d103      	bne.n	8007824 <round+0x5c>
 800781c:	f7f8 fca6 	bl	800016c <__adddf3>
 8007820:	4606      	mov	r6, r0
 8007822:	460d      	mov	r5, r1
 8007824:	4630      	mov	r0, r6
 8007826:	4629      	mov	r1, r5
 8007828:	bdf8      	pop	{r3, r4, r5, r6, r7, pc}
 800782a:	f04f 30ff 	mov.w	r0, #4294967295	; 0xffffffff
 800782e:	f2a7 4713 	subw	r7, r7, #1043	; 0x413
 8007832:	40f8      	lsrs	r0, r7
 8007834:	4202      	tst	r2, r0
 8007836:	d0f5      	beq.n	8007824 <round+0x5c>
 8007838:	2101      	movs	r1, #1
 800783a:	f1c4 0433 	rsb	r4, r4, #51	; 0x33
 800783e:	fa01 f404 	lsl.w	r4, r1, r4
 8007842:	1912      	adds	r2, r2, r4
 8007844:	bf28      	it	cs
 8007846:	185b      	addcs	r3, r3, r1
 8007848:	ea22 0200 	bic.w	r2, r2, r0
 800784c:	4619      	mov	r1, r3
 800784e:	4610      	mov	r0, r2
 8007850:	e7e6      	b.n	8007820 <round+0x58>
 8007852:	bf00      	nop
 8007854:	000fffff 	.word	0x000fffff

08007858 <sin>:
 8007858:	b530      	push	{r4, r5, lr}
 800785a:	4a20      	ldr	r2, [pc, #128]	; (80078dc <sin+0x84>)
 800785c:	f021 4300 	bic.w	r3, r1, #2147483648	; 0x80000000
 8007860:	4293      	cmp	r3, r2
 8007862:	b087      	sub	sp, #28
 8007864:	dc06      	bgt.n	8007874 <sin+0x1c>
 8007866:	2300      	movs	r3, #0
 8007868:	2200      	movs	r2, #0
 800786a:	9300      	str	r3, [sp, #0]
 800786c:	2300      	movs	r3, #0
 800786e:	f000 ffdf 	bl	8008830 <__kernel_sin>
 8007872:	e006      	b.n	8007882 <sin+0x2a>
 8007874:	4a1a      	ldr	r2, [pc, #104]	; (80078e0 <sin+0x88>)
 8007876:	4293      	cmp	r3, r2
 8007878:	dd05      	ble.n	8007886 <sin+0x2e>
 800787a:	4602      	mov	r2, r0
 800787c:	460b      	mov	r3, r1
 800787e:	f7f8 fc73 	bl	8000168 <__aeabi_dsub>
 8007882:	b007      	add	sp, #28
 8007884:	bd30      	pop	{r4, r5, pc}
 8007886:	aa02      	add	r2, sp, #8
 8007888:	f000 f92e 	bl	8007ae8 <__ieee754_rem_pio2>
 800788c:	f000 0003 	and.w	r0, r0, #3
 8007890:	2801      	cmp	r0, #1
 8007892:	d009      	beq.n	80078a8 <sin+0x50>
 8007894:	2802      	cmp	r0, #2
 8007896:	d00e      	beq.n	80078b6 <sin+0x5e>
 8007898:	b9c0      	cbnz	r0, 80078cc <sin+0x74>
 800789a:	e9dd 0102 	ldrd	r0, r1, [sp, #8]
 800789e:	2301      	movs	r3, #1
 80078a0:	9300      	str	r3, [sp, #0]
 80078a2:	e9dd 2304 	ldrd	r2, r3, [sp, #16]
 80078a6:	e7e2      	b.n	800786e <sin+0x16>
 80078a8:	e9dd 2304 	ldrd	r2, r3, [sp, #16]
 80078ac:	e9dd 0102 	ldrd	r0, r1, [sp, #8]
 80078b0:	f000 fbb6 	bl	8008020 <__kernel_cos>
 80078b4:	e7e5      	b.n	8007882 <sin+0x2a>
 80078b6:	2301      	movs	r3, #1
 80078b8:	e9dd 0102 	ldrd	r0, r1, [sp, #8]
 80078bc:	9300      	str	r3, [sp, #0]
 80078be:	e9dd 2304 	ldrd	r2, r3, [sp, #16]
 80078c2:	f000 ffb5 	bl	8008830 <__kernel_sin>
 80078c6:	f101 4100 	add.w	r1, r1, #2147483648	; 0x80000000
 80078ca:	e7da      	b.n	8007882 <sin+0x2a>
 80078cc:	e9dd 2304 	ldrd	r2, r3, [sp, #16]
 80078d0:	e9dd 0102 	ldrd	r0, r1, [sp, #8]
 80078d4:	f000 fba4 	bl	8008020 <__kernel_cos>
 80078d8:	e7f5      	b.n	80078c6 <sin+0x6e>
 80078da:	bf00      	nop
 80078dc:	3fe921fb 	.word	0x3fe921fb
 80078e0:	7fefffff 	.word	0x7fefffff

080078e4 <atan2>:
 80078e4:	f000 b82c 	b.w	8007940 <__ieee754_atan2>

080078e8 <sqrt>:
 80078e8:	b5f8      	push	{r3, r4, r5, r6, r7, lr}
 80078ea:	4606      	mov	r6, r0
 80078ec:	460f      	mov	r7, r1
 80078ee:	f000 faeb 	bl	8007ec8 <__ieee754_sqrt>
 80078f2:	4b12      	ldr	r3, [pc, #72]	; (800793c <sqrt+0x54>)
 80078f4:	4604      	mov	r4, r0
 80078f6:	f993 3000 	ldrsb.w	r3, [r3]
 80078fa:	460d      	mov	r5, r1
 80078fc:	3301      	adds	r3, #1
 80078fe:	d019      	beq.n	8007934 <sqrt+0x4c>
 8007900:	4632      	mov	r2, r6
 8007902:	463b      	mov	r3, r7
 8007904:	4630      	mov	r0, r6
 8007906:	4639      	mov	r1, r7
 8007908:	f7f9 f880 	bl	8000a0c <__aeabi_dcmpun>
 800790c:	b990      	cbnz	r0, 8007934 <sqrt+0x4c>
 800790e:	2200      	movs	r2, #0
 8007910:	2300      	movs	r3, #0
 8007912:	4630      	mov	r0, r6
 8007914:	4639      	mov	r1, r7
 8007916:	f7f9 f851 	bl	80009bc <__aeabi_dcmplt>
 800791a:	b158      	cbz	r0, 8007934 <sqrt+0x4c>
 800791c:	f7fc feee 	bl	80046fc <__errno>
 8007920:	2321      	movs	r3, #33	; 0x21
 8007922:	2200      	movs	r2, #0
 8007924:	6003      	str	r3, [r0, #0]
 8007926:	2300      	movs	r3, #0
 8007928:	4610      	mov	r0, r2
 800792a:	4619      	mov	r1, r3
 800792c:	f7f8 fefe 	bl	800072c <__aeabi_ddiv>
 8007930:	4604      	mov	r4, r0
 8007932:	460d      	mov	r5, r1
 8007934:	4620      	mov	r0, r4
 8007936:	4629      	mov	r1, r5
 8007938:	bdf8      	pop	{r3, r4, r5, r6, r7, pc}
 800793a:	bf00      	nop
 800793c:	20000280 	.word	0x20000280

08007940 <__ieee754_atan2>:
 8007940:	e92d 4ff8 	stmdb	sp!, {r3, r4, r5, r6, r7, r8, r9, sl, fp, lr}
 8007944:	4692      	mov	sl, r2
 8007946:	4699      	mov	r9, r3
 8007948:	f023 4200 	bic.w	r2, r3, #2147483648	; 0x80000000
 800794c:	461f      	mov	r7, r3
 800794e:	f1ca 0300 	rsb	r3, sl, #0
 8007952:	f8df e18c 	ldr.w	lr, [pc, #396]	; 8007ae0 <__ieee754_atan2+0x1a0>
 8007956:	ea43 030a 	orr.w	r3, r3, sl
 800795a:	ea42 73d3 	orr.w	r3, r2, r3, lsr #31
 800795e:	4573      	cmp	r3, lr
 8007960:	4604      	mov	r4, r0
 8007962:	460d      	mov	r5, r1
 8007964:	d808      	bhi.n	8007978 <__ieee754_atan2+0x38>
 8007966:	4246      	negs	r6, r0
 8007968:	f021 4300 	bic.w	r3, r1, #2147483648	; 0x80000000
 800796c:	4306      	orrs	r6, r0
 800796e:	ea43 76d6 	orr.w	r6, r3, r6, lsr #31
 8007972:	4576      	cmp	r6, lr
 8007974:	468c      	mov	ip, r1
 8007976:	d908      	bls.n	800798a <__ieee754_atan2+0x4a>
 8007978:	4652      	mov	r2, sl
 800797a:	464b      	mov	r3, r9
 800797c:	4620      	mov	r0, r4
 800797e:	4629      	mov	r1, r5
 8007980:	f7f8 fbf4 	bl	800016c <__adddf3>
 8007984:	4604      	mov	r4, r0
 8007986:	460d      	mov	r5, r1
 8007988:	e019      	b.n	80079be <__ieee754_atan2+0x7e>
 800798a:	f109 4640 	add.w	r6, r9, #3221225472	; 0xc0000000
 800798e:	f506 1680 	add.w	r6, r6, #1048576	; 0x100000
 8007992:	ea56 060a 	orrs.w	r6, r6, sl
 8007996:	d103      	bne.n	80079a0 <__ieee754_atan2+0x60>
 8007998:	e8bd 4ff8 	ldmia.w	sp!, {r3, r4, r5, r6, r7, r8, r9, sl, fp, lr}
 800799c:	f7ff bd44 	b.w	8007428 <atan>
 80079a0:	17be      	asrs	r6, r7, #30
 80079a2:	f006 0602 	and.w	r6, r6, #2
 80079a6:	ea46 76d1 	orr.w	r6, r6, r1, lsr #31
 80079aa:	ea53 0100 	orrs.w	r1, r3, r0
 80079ae:	d10a      	bne.n	80079c6 <__ieee754_atan2+0x86>
 80079b0:	2e02      	cmp	r6, #2
 80079b2:	d067      	beq.n	8007a84 <__ieee754_atan2+0x144>
 80079b4:	2e03      	cmp	r6, #3
 80079b6:	d102      	bne.n	80079be <__ieee754_atan2+0x7e>
 80079b8:	a53b      	add	r5, pc, #236	; (adr r5, 8007aa8 <__ieee754_atan2+0x168>)
 80079ba:	e9d5 4500 	ldrd	r4, r5, [r5]
 80079be:	4620      	mov	r0, r4
 80079c0:	4629      	mov	r1, r5
 80079c2:	e8bd 8ff8 	ldmia.w	sp!, {r3, r4, r5, r6, r7, r8, r9, sl, fp, pc}
 80079c6:	ea52 010a 	orrs.w	r1, r2, sl
 80079ca:	d106      	bne.n	80079da <__ieee754_atan2+0x9a>
 80079cc:	f1bc 0f00 	cmp.w	ip, #0
 80079d0:	da63      	bge.n	8007a9a <__ieee754_atan2+0x15a>
 80079d2:	a537      	add	r5, pc, #220	; (adr r5, 8007ab0 <__ieee754_atan2+0x170>)
 80079d4:	e9d5 4500 	ldrd	r4, r5, [r5]
 80079d8:	e7f1      	b.n	80079be <__ieee754_atan2+0x7e>
 80079da:	4572      	cmp	r2, lr
 80079dc:	d10f      	bne.n	80079fe <__ieee754_atan2+0xbe>
 80079de:	4293      	cmp	r3, r2
 80079e0:	f106 36ff 	add.w	r6, r6, #4294967295	; 0xffffffff
 80079e4:	d107      	bne.n	80079f6 <__ieee754_atan2+0xb6>
 80079e6:	2e02      	cmp	r6, #2
 80079e8:	d850      	bhi.n	8007a8c <__ieee754_atan2+0x14c>
 80079ea:	4b3b      	ldr	r3, [pc, #236]	; (8007ad8 <__ieee754_atan2+0x198>)
 80079ec:	eb03 06c6 	add.w	r6, r3, r6, lsl #3
 80079f0:	e9d6 4500 	ldrd	r4, r5, [r6]
 80079f4:	e7e3      	b.n	80079be <__ieee754_atan2+0x7e>
 80079f6:	2e02      	cmp	r6, #2
 80079f8:	d84c      	bhi.n	8007a94 <__ieee754_atan2+0x154>
 80079fa:	4b38      	ldr	r3, [pc, #224]	; (8007adc <__ieee754_atan2+0x19c>)
 80079fc:	e7f6      	b.n	80079ec <__ieee754_atan2+0xac>
 80079fe:	4573      	cmp	r3, lr
 8007a00:	d0e4      	beq.n	80079cc <__ieee754_atan2+0x8c>
 8007a02:	1a9b      	subs	r3, r3, r2
 8007a04:	f1b3 7f74 	cmp.w	r3, #63963136	; 0x3d00000
 8007a08:	ea4f 5223 	mov.w	r2, r3, asr #20
 8007a0c:	da20      	bge.n	8007a50 <__ieee754_atan2+0x110>
 8007a0e:	2f00      	cmp	r7, #0
 8007a10:	da01      	bge.n	8007a16 <__ieee754_atan2+0xd6>
 8007a12:	323c      	adds	r2, #60	; 0x3c
 8007a14:	db20      	blt.n	8007a58 <__ieee754_atan2+0x118>
 8007a16:	4652      	mov	r2, sl
 8007a18:	464b      	mov	r3, r9
 8007a1a:	4620      	mov	r0, r4
 8007a1c:	4629      	mov	r1, r5
 8007a1e:	f7f8 fe85 	bl	800072c <__aeabi_ddiv>
 8007a22:	f7ff fecd 	bl	80077c0 <fabs>
 8007a26:	f7ff fcff 	bl	8007428 <atan>
 8007a2a:	4604      	mov	r4, r0
 8007a2c:	460d      	mov	r5, r1
 8007a2e:	2e01      	cmp	r6, #1
 8007a30:	d015      	beq.n	8007a5e <__ieee754_atan2+0x11e>
 8007a32:	2e02      	cmp	r6, #2
 8007a34:	d017      	beq.n	8007a66 <__ieee754_atan2+0x126>
 8007a36:	2e00      	cmp	r6, #0
 8007a38:	d0c1      	beq.n	80079be <__ieee754_atan2+0x7e>
 8007a3a:	a31f      	add	r3, pc, #124	; (adr r3, 8007ab8 <__ieee754_atan2+0x178>)
 8007a3c:	e9d3 2300 	ldrd	r2, r3, [r3]
 8007a40:	4620      	mov	r0, r4
 8007a42:	4629      	mov	r1, r5
 8007a44:	f7f8 fb90 	bl	8000168 <__aeabi_dsub>
 8007a48:	a31d      	add	r3, pc, #116	; (adr r3, 8007ac0 <__ieee754_atan2+0x180>)
 8007a4a:	e9d3 2300 	ldrd	r2, r3, [r3]
 8007a4e:	e016      	b.n	8007a7e <__ieee754_atan2+0x13e>
 8007a50:	a51d      	add	r5, pc, #116	; (adr r5, 8007ac8 <__ieee754_atan2+0x188>)
 8007a52:	e9d5 4500 	ldrd	r4, r5, [r5]
 8007a56:	e7ea      	b.n	8007a2e <__ieee754_atan2+0xee>
 8007a58:	2400      	movs	r4, #0
 8007a5a:	2500      	movs	r5, #0
 8007a5c:	e7e7      	b.n	8007a2e <__ieee754_atan2+0xee>
 8007a5e:	f105 4300 	add.w	r3, r5, #2147483648	; 0x80000000
 8007a62:	461d      	mov	r5, r3
 8007a64:	e7ab      	b.n	80079be <__ieee754_atan2+0x7e>
 8007a66:	a314      	add	r3, pc, #80	; (adr r3, 8007ab8 <__ieee754_atan2+0x178>)
 8007a68:	e9d3 2300 	ldrd	r2, r3, [r3]
 8007a6c:	4620      	mov	r0, r4
 8007a6e:	4629      	mov	r1, r5
 8007a70:	f7f8 fb7a 	bl	8000168 <__aeabi_dsub>
 8007a74:	4602      	mov	r2, r0
 8007a76:	460b      	mov	r3, r1
 8007a78:	a111      	add	r1, pc, #68	; (adr r1, 8007ac0 <__ieee754_atan2+0x180>)
 8007a7a:	e9d1 0100 	ldrd	r0, r1, [r1]
 8007a7e:	f7f8 fb73 	bl	8000168 <__aeabi_dsub>
 8007a82:	e77f      	b.n	8007984 <__ieee754_atan2+0x44>
 8007a84:	a50e      	add	r5, pc, #56	; (adr r5, 8007ac0 <__ieee754_atan2+0x180>)
 8007a86:	e9d5 4500 	ldrd	r4, r5, [r5]
 8007a8a:	e798      	b.n	80079be <__ieee754_atan2+0x7e>
 8007a8c:	a510      	add	r5, pc, #64	; (adr r5, 8007ad0 <__ieee754_atan2+0x190>)
 8007a8e:	e9d5 4500 	ldrd	r4, r5, [r5]
 8007a92:	e794      	b.n	80079be <__ieee754_atan2+0x7e>
 8007a94:	2400      	movs	r4, #0
 8007a96:	2500      	movs	r5, #0
 8007a98:	e791      	b.n	80079be <__ieee754_atan2+0x7e>
 8007a9a:	a50b      	add	r5, pc, #44	; (adr r5, 8007ac8 <__ieee754_atan2+0x188>)
 8007a9c:	e9d5 4500 	ldrd	r4, r5, [r5]
 8007aa0:	e78d      	b.n	80079be <__ieee754_atan2+0x7e>
 8007aa2:	bf00      	nop
 8007aa4:	f3af 8000 	nop.w
 8007aa8:	54442d18 	.word	0x54442d18
 8007aac:	c00921fb 	.word	0xc00921fb
 8007ab0:	54442d18 	.word	0x54442d18
 8007ab4:	bff921fb 	.word	0xbff921fb
 8007ab8:	33145c07 	.word	0x33145c07
 8007abc:	3ca1a626 	.word	0x3ca1a626
 8007ac0:	54442d18 	.word	0x54442d18
 8007ac4:	400921fb 	.word	0x400921fb
 8007ac8:	54442d18 	.word	0x54442d18
 8007acc:	3ff921fb 	.word	0x3ff921fb
 8007ad0:	54442d18 	.word	0x54442d18
 8007ad4:	3fe921fb 	.word	0x3fe921fb
 8007ad8:	080090a0 	.word	0x080090a0
 8007adc:	080090b8 	.word	0x080090b8
 8007ae0:	7ff00000 	.word	0x7ff00000
 8007ae4:	00000000 	.word	0x00000000

08007ae8 <__ieee754_rem_pio2>:
 8007ae8:	e92d 4ff0 	stmdb	sp!, {r4, r5, r6, r7, r8, r9, sl, fp, lr}
 8007aec:	4614      	mov	r4, r2
 8007aee:	4ac4      	ldr	r2, [pc, #784]	; (8007e00 <__ieee754_rem_pio2+0x318>)
 8007af0:	f021 4a00 	bic.w	sl, r1, #2147483648	; 0x80000000
 8007af4:	b08d      	sub	sp, #52	; 0x34
 8007af6:	4592      	cmp	sl, r2
 8007af8:	9104      	str	r1, [sp, #16]
 8007afa:	dc07      	bgt.n	8007b0c <__ieee754_rem_pio2+0x24>
 8007afc:	2200      	movs	r2, #0
 8007afe:	2300      	movs	r3, #0
 8007b00:	e9c4 0100 	strd	r0, r1, [r4]
 8007b04:	e9c4 2302 	strd	r2, r3, [r4, #8]
 8007b08:	2500      	movs	r5, #0
 8007b0a:	e024      	b.n	8007b56 <__ieee754_rem_pio2+0x6e>
 8007b0c:	4abd      	ldr	r2, [pc, #756]	; (8007e04 <__ieee754_rem_pio2+0x31c>)
 8007b0e:	4592      	cmp	sl, r2
 8007b10:	dc72      	bgt.n	8007bf8 <__ieee754_rem_pio2+0x110>
 8007b12:	9b04      	ldr	r3, [sp, #16]
 8007b14:	4dbc      	ldr	r5, [pc, #752]	; (8007e08 <__ieee754_rem_pio2+0x320>)
 8007b16:	2b00      	cmp	r3, #0
 8007b18:	a3ab      	add	r3, pc, #684	; (adr r3, 8007dc8 <__ieee754_rem_pio2+0x2e0>)
 8007b1a:	e9d3 2300 	ldrd	r2, r3, [r3]
 8007b1e:	dd36      	ble.n	8007b8e <__ieee754_rem_pio2+0xa6>
 8007b20:	f7f8 fb22 	bl	8000168 <__aeabi_dsub>
 8007b24:	45aa      	cmp	sl, r5
 8007b26:	4606      	mov	r6, r0
 8007b28:	460f      	mov	r7, r1
 8007b2a:	d018      	beq.n	8007b5e <__ieee754_rem_pio2+0x76>
 8007b2c:	a3a8      	add	r3, pc, #672	; (adr r3, 8007dd0 <__ieee754_rem_pio2+0x2e8>)
 8007b2e:	e9d3 2300 	ldrd	r2, r3, [r3]
 8007b32:	f7f8 fb19 	bl	8000168 <__aeabi_dsub>
 8007b36:	4602      	mov	r2, r0
 8007b38:	460b      	mov	r3, r1
 8007b3a:	4630      	mov	r0, r6
 8007b3c:	e9c4 2300 	strd	r2, r3, [r4]
 8007b40:	4639      	mov	r1, r7
 8007b42:	f7f8 fb11 	bl	8000168 <__aeabi_dsub>
 8007b46:	a3a2      	add	r3, pc, #648	; (adr r3, 8007dd0 <__ieee754_rem_pio2+0x2e8>)
 8007b48:	e9d3 2300 	ldrd	r2, r3, [r3]
 8007b4c:	f7f8 fb0c 	bl	8000168 <__aeabi_dsub>
 8007b50:	2501      	movs	r5, #1
 8007b52:	e9c4 0102 	strd	r0, r1, [r4, #8]
 8007b56:	4628      	mov	r0, r5
 8007b58:	b00d      	add	sp, #52	; 0x34
 8007b5a:	e8bd 8ff0 	ldmia.w	sp!, {r4, r5, r6, r7, r8, r9, sl, fp, pc}
 8007b5e:	a39e      	add	r3, pc, #632	; (adr r3, 8007dd8 <__ieee754_rem_pio2+0x2f0>)
 8007b60:	e9d3 2300 	ldrd	r2, r3, [r3]
 8007b64:	f7f8 fb00 	bl	8000168 <__aeabi_dsub>
 8007b68:	a39d      	add	r3, pc, #628	; (adr r3, 8007de0 <__ieee754_rem_pio2+0x2f8>)
 8007b6a:	e9d3 2300 	ldrd	r2, r3, [r3]
 8007b6e:	4606      	mov	r6, r0
 8007b70:	460f      	mov	r7, r1
 8007b72:	f7f8 faf9 	bl	8000168 <__aeabi_dsub>
 8007b76:	4602      	mov	r2, r0
 8007b78:	460b      	mov	r3, r1
 8007b7a:	4630      	mov	r0, r6
 8007b7c:	e9c4 2300 	strd	r2, r3, [r4]
 8007b80:	4639      	mov	r1, r7
 8007b82:	f7f8 faf1 	bl	8000168 <__aeabi_dsub>
 8007b86:	a396      	add	r3, pc, #600	; (adr r3, 8007de0 <__ieee754_rem_pio2+0x2f8>)
 8007b88:	e9d3 2300 	ldrd	r2, r3, [r3]
 8007b8c:	e7de      	b.n	8007b4c <__ieee754_rem_pio2+0x64>
 8007b8e:	f7f8 faed 	bl	800016c <__adddf3>
 8007b92:	45aa      	cmp	sl, r5
 8007b94:	4606      	mov	r6, r0
 8007b96:	460f      	mov	r7, r1
 8007b98:	d016      	beq.n	8007bc8 <__ieee754_rem_pio2+0xe0>
 8007b9a:	a38d      	add	r3, pc, #564	; (adr r3, 8007dd0 <__ieee754_rem_pio2+0x2e8>)
 8007b9c:	e9d3 2300 	ldrd	r2, r3, [r3]
 8007ba0:	f7f8 fae4 	bl	800016c <__adddf3>
 8007ba4:	4602      	mov	r2, r0
 8007ba6:	460b      	mov	r3, r1
 8007ba8:	4630      	mov	r0, r6
 8007baa:	e9c4 2300 	strd	r2, r3, [r4]
 8007bae:	4639      	mov	r1, r7
 8007bb0:	f7f8 fada 	bl	8000168 <__aeabi_dsub>
 8007bb4:	a386      	add	r3, pc, #536	; (adr r3, 8007dd0 <__ieee754_rem_pio2+0x2e8>)
 8007bb6:	e9d3 2300 	ldrd	r2, r3, [r3]
 8007bba:	f7f8 fad7 	bl	800016c <__adddf3>
 8007bbe:	f04f 35ff 	mov.w	r5, #4294967295	; 0xffffffff
 8007bc2:	e9c4 0102 	strd	r0, r1, [r4, #8]
 8007bc6:	e7c6      	b.n	8007b56 <__ieee754_rem_pio2+0x6e>
 8007bc8:	a383      	add	r3, pc, #524	; (adr r3, 8007dd8 <__ieee754_rem_pio2+0x2f0>)
 8007bca:	e9d3 2300 	ldrd	r2, r3, [r3]
 8007bce:	f7f8 facd 	bl	800016c <__adddf3>
 8007bd2:	a383      	add	r3, pc, #524	; (adr r3, 8007de0 <__ieee754_rem_pio2+0x2f8>)
 8007bd4:	e9d3 2300 	ldrd	r2, r3, [r3]
 8007bd8:	4606      	mov	r6, r0
 8007bda:	460f      	mov	r7, r1
 8007bdc:	f7f8 fac6 	bl	800016c <__adddf3>
 8007be0:	4602      	mov	r2, r0
 8007be2:	460b      	mov	r3, r1
 8007be4:	4630      	mov	r0, r6
 8007be6:	e9c4 2300 	strd	r2, r3, [r4]
 8007bea:	4639      	mov	r1, r7
 8007bec:	f7f8 fabc 	bl	8000168 <__aeabi_dsub>
 8007bf0:	a37b      	add	r3, pc, #492	; (adr r3, 8007de0 <__ieee754_rem_pio2+0x2f8>)
 8007bf2:	e9d3 2300 	ldrd	r2, r3, [r3]
 8007bf6:	e7e0      	b.n	8007bba <__ieee754_rem_pio2+0xd2>
 8007bf8:	4a84      	ldr	r2, [pc, #528]	; (8007e0c <__ieee754_rem_pio2+0x324>)
 8007bfa:	4592      	cmp	sl, r2
 8007bfc:	f300 80d5 	bgt.w	8007daa <__ieee754_rem_pio2+0x2c2>
 8007c00:	f7ff fdde 	bl	80077c0 <fabs>
 8007c04:	a378      	add	r3, pc, #480	; (adr r3, 8007de8 <__ieee754_rem_pio2+0x300>)
 8007c06:	e9d3 2300 	ldrd	r2, r3, [r3]
 8007c0a:	4606      	mov	r6, r0
 8007c0c:	460f      	mov	r7, r1
 8007c0e:	f7f8 fc63 	bl	80004d8 <__aeabi_dmul>
 8007c12:	2200      	movs	r2, #0
 8007c14:	4b7e      	ldr	r3, [pc, #504]	; (8007e10 <__ieee754_rem_pio2+0x328>)
 8007c16:	f7f8 faa9 	bl	800016c <__adddf3>
 8007c1a:	f7f8 ff0d 	bl	8000a38 <__aeabi_d2iz>
 8007c1e:	4605      	mov	r5, r0
 8007c20:	f7f8 fbf0 	bl	8000404 <__aeabi_i2d>
 8007c24:	4602      	mov	r2, r0
 8007c26:	460b      	mov	r3, r1
 8007c28:	e9cd 2302 	strd	r2, r3, [sp, #8]
 8007c2c:	a366      	add	r3, pc, #408	; (adr r3, 8007dc8 <__ieee754_rem_pio2+0x2e0>)
 8007c2e:	e9d3 2300 	ldrd	r2, r3, [r3]
 8007c32:	f7f8 fc51 	bl	80004d8 <__aeabi_dmul>
 8007c36:	4602      	mov	r2, r0
 8007c38:	460b      	mov	r3, r1
 8007c3a:	4630      	mov	r0, r6
 8007c3c:	4639      	mov	r1, r7
 8007c3e:	f7f8 fa93 	bl	8000168 <__aeabi_dsub>
 8007c42:	a363      	add	r3, pc, #396	; (adr r3, 8007dd0 <__ieee754_rem_pio2+0x2e8>)
 8007c44:	e9d3 2300 	ldrd	r2, r3, [r3]
 8007c48:	4680      	mov	r8, r0
 8007c4a:	4689      	mov	r9, r1
 8007c4c:	e9dd 0102 	ldrd	r0, r1, [sp, #8]
 8007c50:	f7f8 fc42 	bl	80004d8 <__aeabi_dmul>
 8007c54:	2d1f      	cmp	r5, #31
 8007c56:	4606      	mov	r6, r0
 8007c58:	460f      	mov	r7, r1
 8007c5a:	dc0e      	bgt.n	8007c7a <__ieee754_rem_pio2+0x192>
 8007c5c:	4b6d      	ldr	r3, [pc, #436]	; (8007e14 <__ieee754_rem_pio2+0x32c>)
 8007c5e:	1e6a      	subs	r2, r5, #1
 8007c60:	f853 3022 	ldr.w	r3, [r3, r2, lsl #2]
 8007c64:	4553      	cmp	r3, sl
 8007c66:	d008      	beq.n	8007c7a <__ieee754_rem_pio2+0x192>
 8007c68:	4632      	mov	r2, r6
 8007c6a:	463b      	mov	r3, r7
 8007c6c:	4640      	mov	r0, r8
 8007c6e:	4649      	mov	r1, r9
 8007c70:	f7f8 fa7a 	bl	8000168 <__aeabi_dsub>
 8007c74:	e9c4 0100 	strd	r0, r1, [r4]
 8007c78:	e013      	b.n	8007ca2 <__ieee754_rem_pio2+0x1ba>
 8007c7a:	463b      	mov	r3, r7
 8007c7c:	4632      	mov	r2, r6
 8007c7e:	4640      	mov	r0, r8
 8007c80:	4649      	mov	r1, r9
 8007c82:	f7f8 fa71 	bl	8000168 <__aeabi_dsub>
 8007c86:	ea4f 532a 	mov.w	r3, sl, asr #20
 8007c8a:	9305      	str	r3, [sp, #20]
 8007c8c:	f3c1 530a 	ubfx	r3, r1, #20, #11
 8007c90:	ebc3 5a1a 	rsb	sl, r3, sl, lsr #20
 8007c94:	f1ba 0f10 	cmp.w	sl, #16
 8007c98:	dc1f      	bgt.n	8007cda <__ieee754_rem_pio2+0x1f2>
 8007c9a:	4602      	mov	r2, r0
 8007c9c:	460b      	mov	r3, r1
 8007c9e:	e9c4 2300 	strd	r2, r3, [r4]
 8007ca2:	e9d4 2a00 	ldrd	r2, sl, [r4]
 8007ca6:	4640      	mov	r0, r8
 8007ca8:	4653      	mov	r3, sl
 8007caa:	4649      	mov	r1, r9
 8007cac:	f7f8 fa5c 	bl	8000168 <__aeabi_dsub>
 8007cb0:	4632      	mov	r2, r6
 8007cb2:	463b      	mov	r3, r7
 8007cb4:	f7f8 fa58 	bl	8000168 <__aeabi_dsub>
 8007cb8:	460b      	mov	r3, r1
 8007cba:	e9c4 0102 	strd	r0, r1, [r4, #8]
 8007cbe:	9904      	ldr	r1, [sp, #16]
 8007cc0:	4602      	mov	r2, r0
 8007cc2:	2900      	cmp	r1, #0
 8007cc4:	f6bf af47 	bge.w	8007b56 <__ieee754_rem_pio2+0x6e>
 8007cc8:	f10a 4100 	add.w	r1, sl, #2147483648	; 0x80000000
 8007ccc:	e9c4 1201 	strd	r1, r2, [r4, #4]
 8007cd0:	f103 4300 	add.w	r3, r3, #2147483648	; 0x80000000
 8007cd4:	60e3      	str	r3, [r4, #12]
 8007cd6:	426d      	negs	r5, r5
 8007cd8:	e73d      	b.n	8007b56 <__ieee754_rem_pio2+0x6e>
 8007cda:	a33f      	add	r3, pc, #252	; (adr r3, 8007dd8 <__ieee754_rem_pio2+0x2f0>)
 8007cdc:	e9d3 2300 	ldrd	r2, r3, [r3]
 8007ce0:	e9dd 0102 	ldrd	r0, r1, [sp, #8]
 8007ce4:	f7f8 fbf8 	bl	80004d8 <__aeabi_dmul>
 8007ce8:	4606      	mov	r6, r0
 8007cea:	460f      	mov	r7, r1
 8007cec:	4602      	mov	r2, r0
 8007cee:	460b      	mov	r3, r1
 8007cf0:	4640      	mov	r0, r8
 8007cf2:	4649      	mov	r1, r9
 8007cf4:	f7f8 fa38 	bl	8000168 <__aeabi_dsub>
 8007cf8:	4602      	mov	r2, r0
 8007cfa:	460b      	mov	r3, r1
 8007cfc:	4682      	mov	sl, r0
 8007cfe:	468b      	mov	fp, r1
 8007d00:	4640      	mov	r0, r8
 8007d02:	4649      	mov	r1, r9
 8007d04:	f7f8 fa30 	bl	8000168 <__aeabi_dsub>
 8007d08:	4632      	mov	r2, r6
 8007d0a:	463b      	mov	r3, r7
 8007d0c:	f7f8 fa2c 	bl	8000168 <__aeabi_dsub>
 8007d10:	a333      	add	r3, pc, #204	; (adr r3, 8007de0 <__ieee754_rem_pio2+0x2f8>)
 8007d12:	e9d3 2300 	ldrd	r2, r3, [r3]
 8007d16:	4606      	mov	r6, r0
 8007d18:	460f      	mov	r7, r1
 8007d1a:	e9dd 0102 	ldrd	r0, r1, [sp, #8]
 8007d1e:	f7f8 fbdb 	bl	80004d8 <__aeabi_dmul>
 8007d22:	4632      	mov	r2, r6
 8007d24:	463b      	mov	r3, r7
 8007d26:	f7f8 fa1f 	bl	8000168 <__aeabi_dsub>
 8007d2a:	4602      	mov	r2, r0
 8007d2c:	460b      	mov	r3, r1
 8007d2e:	4606      	mov	r6, r0
 8007d30:	460f      	mov	r7, r1
 8007d32:	4650      	mov	r0, sl
 8007d34:	4659      	mov	r1, fp
 8007d36:	f7f8 fa17 	bl	8000168 <__aeabi_dsub>
 8007d3a:	9a05      	ldr	r2, [sp, #20]
 8007d3c:	f3c1 530a 	ubfx	r3, r1, #20, #11
 8007d40:	1ad3      	subs	r3, r2, r3
 8007d42:	2b31      	cmp	r3, #49	; 0x31
 8007d44:	dc06      	bgt.n	8007d54 <__ieee754_rem_pio2+0x26c>
 8007d46:	4602      	mov	r2, r0
 8007d48:	460b      	mov	r3, r1
 8007d4a:	46d0      	mov	r8, sl
 8007d4c:	46d9      	mov	r9, fp
 8007d4e:	e9c4 2300 	strd	r2, r3, [r4]
 8007d52:	e7a6      	b.n	8007ca2 <__ieee754_rem_pio2+0x1ba>
 8007d54:	a326      	add	r3, pc, #152	; (adr r3, 8007df0 <__ieee754_rem_pio2+0x308>)
 8007d56:	e9d3 2300 	ldrd	r2, r3, [r3]
 8007d5a:	e9dd 0102 	ldrd	r0, r1, [sp, #8]
 8007d5e:	f7f8 fbbb 	bl	80004d8 <__aeabi_dmul>
 8007d62:	4606      	mov	r6, r0
 8007d64:	460f      	mov	r7, r1
 8007d66:	4602      	mov	r2, r0
 8007d68:	460b      	mov	r3, r1
 8007d6a:	4650      	mov	r0, sl
 8007d6c:	4659      	mov	r1, fp
 8007d6e:	f7f8 f9fb 	bl	8000168 <__aeabi_dsub>
 8007d72:	4602      	mov	r2, r0
 8007d74:	460b      	mov	r3, r1
 8007d76:	4680      	mov	r8, r0
 8007d78:	4689      	mov	r9, r1
 8007d7a:	4650      	mov	r0, sl
 8007d7c:	4659      	mov	r1, fp
 8007d7e:	f7f8 f9f3 	bl	8000168 <__aeabi_dsub>
 8007d82:	4632      	mov	r2, r6
 8007d84:	463b      	mov	r3, r7
 8007d86:	f7f8 f9ef 	bl	8000168 <__aeabi_dsub>
 8007d8a:	a31b      	add	r3, pc, #108	; (adr r3, 8007df8 <__ieee754_rem_pio2+0x310>)
 8007d8c:	e9d3 2300 	ldrd	r2, r3, [r3]
 8007d90:	4606      	mov	r6, r0
 8007d92:	460f      	mov	r7, r1
 8007d94:	e9dd 0102 	ldrd	r0, r1, [sp, #8]
 8007d98:	f7f8 fb9e 	bl	80004d8 <__aeabi_dmul>
 8007d9c:	4632      	mov	r2, r6
 8007d9e:	463b      	mov	r3, r7
 8007da0:	f7f8 f9e2 	bl	8000168 <__aeabi_dsub>
 8007da4:	4606      	mov	r6, r0
 8007da6:	460f      	mov	r7, r1
 8007da8:	e75e      	b.n	8007c68 <__ieee754_rem_pio2+0x180>
 8007daa:	4a1b      	ldr	r2, [pc, #108]	; (8007e18 <__ieee754_rem_pio2+0x330>)
 8007dac:	4592      	cmp	sl, r2
 8007dae:	dd35      	ble.n	8007e1c <__ieee754_rem_pio2+0x334>
 8007db0:	4602      	mov	r2, r0
 8007db2:	460b      	mov	r3, r1
 8007db4:	f7f8 f9d8 	bl	8000168 <__aeabi_dsub>
 8007db8:	e9c4 0102 	strd	r0, r1, [r4, #8]
 8007dbc:	e9c4 0100 	strd	r0, r1, [r4]
 8007dc0:	e6a2      	b.n	8007b08 <__ieee754_rem_pio2+0x20>
 8007dc2:	bf00      	nop
 8007dc4:	f3af 8000 	nop.w
 8007dc8:	54400000 	.word	0x54400000
 8007dcc:	3ff921fb 	.word	0x3ff921fb
 8007dd0:	1a626331 	.word	0x1a626331
 8007dd4:	3dd0b461 	.word	0x3dd0b461
 8007dd8:	1a600000 	.word	0x1a600000
 8007ddc:	3dd0b461 	.word	0x3dd0b461
 8007de0:	2e037073 	.word	0x2e037073
 8007de4:	3ba3198a 	.word	0x3ba3198a
 8007de8:	6dc9c883 	.word	0x6dc9c883
 8007dec:	3fe45f30 	.word	0x3fe45f30
 8007df0:	2e000000 	.word	0x2e000000
 8007df4:	3ba3198a 	.word	0x3ba3198a
 8007df8:	252049c1 	.word	0x252049c1
 8007dfc:	397b839a 	.word	0x397b839a
 8007e00:	3fe921fb 	.word	0x3fe921fb
 8007e04:	4002d97b 	.word	0x4002d97b
 8007e08:	3ff921fb 	.word	0x3ff921fb
 8007e0c:	413921fb 	.word	0x413921fb
 8007e10:	3fe00000 	.word	0x3fe00000
 8007e14:	080090d0 	.word	0x080090d0
 8007e18:	7fefffff 	.word	0x7fefffff
 8007e1c:	ea4f 552a 	mov.w	r5, sl, asr #20
 8007e20:	f2a5 4516 	subw	r5, r5, #1046	; 0x416
 8007e24:	ebaa 5105 	sub.w	r1, sl, r5, lsl #20
 8007e28:	460f      	mov	r7, r1
 8007e2a:	4606      	mov	r6, r0
 8007e2c:	f7f8 fe04 	bl	8000a38 <__aeabi_d2iz>
 8007e30:	f7f8 fae8 	bl	8000404 <__aeabi_i2d>
 8007e34:	4602      	mov	r2, r0
 8007e36:	460b      	mov	r3, r1
 8007e38:	4630      	mov	r0, r6
 8007e3a:	4639      	mov	r1, r7
 8007e3c:	e9cd 2306 	strd	r2, r3, [sp, #24]
 8007e40:	f7f8 f992 	bl	8000168 <__aeabi_dsub>
 8007e44:	2200      	movs	r2, #0
 8007e46:	4b1e      	ldr	r3, [pc, #120]	; (8007ec0 <__ieee754_rem_pio2+0x3d8>)
 8007e48:	f7f8 fb46 	bl	80004d8 <__aeabi_dmul>
 8007e4c:	460f      	mov	r7, r1
 8007e4e:	4606      	mov	r6, r0
 8007e50:	f7f8 fdf2 	bl	8000a38 <__aeabi_d2iz>
 8007e54:	f7f8 fad6 	bl	8000404 <__aeabi_i2d>
 8007e58:	4602      	mov	r2, r0
 8007e5a:	460b      	mov	r3, r1
 8007e5c:	4630      	mov	r0, r6
 8007e5e:	4639      	mov	r1, r7
 8007e60:	e9cd 2308 	strd	r2, r3, [sp, #32]
 8007e64:	f7f8 f980 	bl	8000168 <__aeabi_dsub>
 8007e68:	2200      	movs	r2, #0
 8007e6a:	4b15      	ldr	r3, [pc, #84]	; (8007ec0 <__ieee754_rem_pio2+0x3d8>)
 8007e6c:	f7f8 fb34 	bl	80004d8 <__aeabi_dmul>
 8007e70:	f04f 0803 	mov.w	r8, #3
 8007e74:	2600      	movs	r6, #0
 8007e76:	2700      	movs	r7, #0
 8007e78:	e9cd 010a 	strd	r0, r1, [sp, #40]	; 0x28
 8007e7c:	f10d 0928 	add.w	r9, sp, #40	; 0x28
 8007e80:	4632      	mov	r2, r6
 8007e82:	e879 0102 	ldrd	r0, r1, [r9], #-8
 8007e86:	463b      	mov	r3, r7
 8007e88:	46c2      	mov	sl, r8
 8007e8a:	f108 38ff 	add.w	r8, r8, #4294967295	; 0xffffffff
 8007e8e:	f7f8 fd8b 	bl	80009a8 <__aeabi_dcmpeq>
 8007e92:	2800      	cmp	r0, #0
 8007e94:	d1f4      	bne.n	8007e80 <__ieee754_rem_pio2+0x398>
 8007e96:	4b0b      	ldr	r3, [pc, #44]	; (8007ec4 <__ieee754_rem_pio2+0x3dc>)
 8007e98:	462a      	mov	r2, r5
 8007e9a:	9301      	str	r3, [sp, #4]
 8007e9c:	2302      	movs	r3, #2
 8007e9e:	4621      	mov	r1, r4
 8007ea0:	9300      	str	r3, [sp, #0]
 8007ea2:	a806      	add	r0, sp, #24
 8007ea4:	4653      	mov	r3, sl
 8007ea6:	f000 f979 	bl	800819c <__kernel_rem_pio2>
 8007eaa:	9b04      	ldr	r3, [sp, #16]
 8007eac:	4605      	mov	r5, r0
 8007eae:	2b00      	cmp	r3, #0
 8007eb0:	f6bf ae51 	bge.w	8007b56 <__ieee754_rem_pio2+0x6e>
 8007eb4:	6863      	ldr	r3, [r4, #4]
 8007eb6:	f103 4300 	add.w	r3, r3, #2147483648	; 0x80000000
 8007eba:	6063      	str	r3, [r4, #4]
 8007ebc:	68e3      	ldr	r3, [r4, #12]
 8007ebe:	e707      	b.n	8007cd0 <__ieee754_rem_pio2+0x1e8>
 8007ec0:	41700000 	.word	0x41700000
 8007ec4:	08009150 	.word	0x08009150

08007ec8 <__ieee754_sqrt>:
 8007ec8:	f8df c150 	ldr.w	ip, [pc, #336]	; 800801c <__ieee754_sqrt+0x154>
 8007ecc:	e92d 41f0 	stmdb	sp!, {r4, r5, r6, r7, r8, lr}
 8007ed0:	ea3c 0c01 	bics.w	ip, ip, r1
 8007ed4:	460b      	mov	r3, r1
 8007ed6:	4606      	mov	r6, r0
 8007ed8:	460d      	mov	r5, r1
 8007eda:	460a      	mov	r2, r1
 8007edc:	4607      	mov	r7, r0
 8007ede:	4604      	mov	r4, r0
 8007ee0:	d10e      	bne.n	8007f00 <__ieee754_sqrt+0x38>
 8007ee2:	4602      	mov	r2, r0
 8007ee4:	f7f8 faf8 	bl	80004d8 <__aeabi_dmul>
 8007ee8:	4602      	mov	r2, r0
 8007eea:	460b      	mov	r3, r1
 8007eec:	4630      	mov	r0, r6
 8007eee:	4629      	mov	r1, r5
 8007ef0:	f7f8 f93c 	bl	800016c <__adddf3>
 8007ef4:	4606      	mov	r6, r0
 8007ef6:	460d      	mov	r5, r1
 8007ef8:	4630      	mov	r0, r6
 8007efa:	4629      	mov	r1, r5
 8007efc:	e8bd 81f0 	ldmia.w	sp!, {r4, r5, r6, r7, r8, pc}
 8007f00:	2900      	cmp	r1, #0
 8007f02:	dc0d      	bgt.n	8007f20 <__ieee754_sqrt+0x58>
 8007f04:	f021 4c00 	bic.w	ip, r1, #2147483648	; 0x80000000
 8007f08:	ea5c 0707 	orrs.w	r7, ip, r7
 8007f0c:	d0f4      	beq.n	8007ef8 <__ieee754_sqrt+0x30>
 8007f0e:	b139      	cbz	r1, 8007f20 <__ieee754_sqrt+0x58>
 8007f10:	4602      	mov	r2, r0
 8007f12:	f7f8 f929 	bl	8000168 <__aeabi_dsub>
 8007f16:	4602      	mov	r2, r0
 8007f18:	460b      	mov	r3, r1
 8007f1a:	f7f8 fc07 	bl	800072c <__aeabi_ddiv>
 8007f1e:	e7e9      	b.n	8007ef4 <__ieee754_sqrt+0x2c>
 8007f20:	1512      	asrs	r2, r2, #20
 8007f22:	d074      	beq.n	800800e <__ieee754_sqrt+0x146>
 8007f24:	2000      	movs	r0, #0
 8007f26:	07d5      	lsls	r5, r2, #31
 8007f28:	f3c3 0313 	ubfx	r3, r3, #0, #20
 8007f2c:	f443 1180 	orr.w	r1, r3, #1048576	; 0x100000
 8007f30:	bf5e      	ittt	pl
 8007f32:	0fe3      	lsrpl	r3, r4, #31
 8007f34:	0064      	lslpl	r4, r4, #1
 8007f36:	eb03 0141 	addpl.w	r1, r3, r1, lsl #1
 8007f3a:	0fe3      	lsrs	r3, r4, #31
 8007f3c:	f2a2 36ff 	subw	r6, r2, #1023	; 0x3ff
 8007f40:	eb03 0341 	add.w	r3, r3, r1, lsl #1
 8007f44:	2516      	movs	r5, #22
 8007f46:	4601      	mov	r1, r0
 8007f48:	f44f 1200 	mov.w	r2, #2097152	; 0x200000
 8007f4c:	1076      	asrs	r6, r6, #1
 8007f4e:	0064      	lsls	r4, r4, #1
 8007f50:	188f      	adds	r7, r1, r2
 8007f52:	429f      	cmp	r7, r3
 8007f54:	bfde      	ittt	le
 8007f56:	1bdb      	suble	r3, r3, r7
 8007f58:	18b9      	addle	r1, r7, r2
 8007f5a:	1880      	addle	r0, r0, r2
 8007f5c:	005b      	lsls	r3, r3, #1
 8007f5e:	3d01      	subs	r5, #1
 8007f60:	eb03 73d4 	add.w	r3, r3, r4, lsr #31
 8007f64:	ea4f 0252 	mov.w	r2, r2, lsr #1
 8007f68:	ea4f 0444 	mov.w	r4, r4, lsl #1
 8007f6c:	d1f0      	bne.n	8007f50 <__ieee754_sqrt+0x88>
 8007f6e:	462a      	mov	r2, r5
 8007f70:	f04f 0e20 	mov.w	lr, #32
 8007f74:	f04f 4700 	mov.w	r7, #2147483648	; 0x80000000
 8007f78:	428b      	cmp	r3, r1
 8007f7a:	eb07 0c05 	add.w	ip, r7, r5
 8007f7e:	dc02      	bgt.n	8007f86 <__ieee754_sqrt+0xbe>
 8007f80:	d113      	bne.n	8007faa <__ieee754_sqrt+0xe2>
 8007f82:	45a4      	cmp	ip, r4
 8007f84:	d811      	bhi.n	8007faa <__ieee754_sqrt+0xe2>
 8007f86:	f1bc 0f00 	cmp.w	ip, #0
 8007f8a:	eb0c 0507 	add.w	r5, ip, r7
 8007f8e:	da43      	bge.n	8008018 <__ieee754_sqrt+0x150>
 8007f90:	2d00      	cmp	r5, #0
 8007f92:	db41      	blt.n	8008018 <__ieee754_sqrt+0x150>
 8007f94:	f101 0801 	add.w	r8, r1, #1
 8007f98:	1a5b      	subs	r3, r3, r1
 8007f9a:	4641      	mov	r1, r8
 8007f9c:	45a4      	cmp	ip, r4
 8007f9e:	bf88      	it	hi
 8007fa0:	f103 33ff 	addhi.w	r3, r3, #4294967295	; 0xffffffff
 8007fa4:	eba4 040c 	sub.w	r4, r4, ip
 8007fa8:	443a      	add	r2, r7
 8007faa:	005b      	lsls	r3, r3, #1
 8007fac:	f1be 0e01 	subs.w	lr, lr, #1
 8007fb0:	eb03 73d4 	add.w	r3, r3, r4, lsr #31
 8007fb4:	ea4f 0757 	mov.w	r7, r7, lsr #1
 8007fb8:	ea4f 0444 	mov.w	r4, r4, lsl #1
 8007fbc:	d1dc      	bne.n	8007f78 <__ieee754_sqrt+0xb0>
 8007fbe:	4323      	orrs	r3, r4
 8007fc0:	d006      	beq.n	8007fd0 <__ieee754_sqrt+0x108>
 8007fc2:	1c54      	adds	r4, r2, #1
 8007fc4:	bf0b      	itete	eq
 8007fc6:	4672      	moveq	r2, lr
 8007fc8:	3201      	addne	r2, #1
 8007fca:	3001      	addeq	r0, #1
 8007fcc:	f022 0201 	bicne.w	r2, r2, #1
 8007fd0:	1043      	asrs	r3, r0, #1
 8007fd2:	07c1      	lsls	r1, r0, #31
 8007fd4:	ea4f 0252 	mov.w	r2, r2, lsr #1
 8007fd8:	f103 537f 	add.w	r3, r3, #1069547520	; 0x3fc00000
 8007fdc:	f503 1300 	add.w	r3, r3, #2097152	; 0x200000
 8007fe0:	bf48      	it	mi
 8007fe2:	f042 4200 	orrmi.w	r2, r2, #2147483648	; 0x80000000
 8007fe6:	4610      	mov	r0, r2
 8007fe8:	eb03 5106 	add.w	r1, r3, r6, lsl #20
 8007fec:	e782      	b.n	8007ef4 <__ieee754_sqrt+0x2c>
 8007fee:	0ae3      	lsrs	r3, r4, #11
 8007ff0:	3915      	subs	r1, #21
 8007ff2:	0564      	lsls	r4, r4, #21
 8007ff4:	2b00      	cmp	r3, #0
 8007ff6:	d0fa      	beq.n	8007fee <__ieee754_sqrt+0x126>
 8007ff8:	02de      	lsls	r6, r3, #11
 8007ffa:	d50a      	bpl.n	8008012 <__ieee754_sqrt+0x14a>
 8007ffc:	f1c2 0020 	rsb	r0, r2, #32
 8008000:	fa24 f000 	lsr.w	r0, r4, r0
 8008004:	1e55      	subs	r5, r2, #1
 8008006:	4094      	lsls	r4, r2
 8008008:	4303      	orrs	r3, r0
 800800a:	1b4a      	subs	r2, r1, r5
 800800c:	e78a      	b.n	8007f24 <__ieee754_sqrt+0x5c>
 800800e:	4611      	mov	r1, r2
 8008010:	e7f0      	b.n	8007ff4 <__ieee754_sqrt+0x12c>
 8008012:	005b      	lsls	r3, r3, #1
 8008014:	3201      	adds	r2, #1
 8008016:	e7ef      	b.n	8007ff8 <__ieee754_sqrt+0x130>
 8008018:	4688      	mov	r8, r1
 800801a:	e7bd      	b.n	8007f98 <__ieee754_sqrt+0xd0>
 800801c:	7ff00000 	.word	0x7ff00000

08008020 <__kernel_cos>:
 8008020:	e92d 4ff7 	stmdb	sp!, {r0, r1, r2, r4, r5, r6, r7, r8, r9, sl, fp, lr}
 8008024:	f021 4600 	bic.w	r6, r1, #2147483648	; 0x80000000
 8008028:	f1b6 5f79 	cmp.w	r6, #1044381696	; 0x3e400000
 800802c:	4680      	mov	r8, r0
 800802e:	460f      	mov	r7, r1
 8008030:	e9cd 2300 	strd	r2, r3, [sp]
 8008034:	da04      	bge.n	8008040 <__kernel_cos+0x20>
 8008036:	f7f8 fcff 	bl	8000a38 <__aeabi_d2iz>
 800803a:	2800      	cmp	r0, #0
 800803c:	f000 8086 	beq.w	800814c <__kernel_cos+0x12c>
 8008040:	4642      	mov	r2, r8
 8008042:	463b      	mov	r3, r7
 8008044:	4640      	mov	r0, r8
 8008046:	4639      	mov	r1, r7
 8008048:	f7f8 fa46 	bl	80004d8 <__aeabi_dmul>
 800804c:	2200      	movs	r2, #0
 800804e:	4b4e      	ldr	r3, [pc, #312]	; (8008188 <__kernel_cos+0x168>)
 8008050:	4604      	mov	r4, r0
 8008052:	460d      	mov	r5, r1
 8008054:	f7f8 fa40 	bl	80004d8 <__aeabi_dmul>
 8008058:	a33f      	add	r3, pc, #252	; (adr r3, 8008158 <__kernel_cos+0x138>)
 800805a:	e9d3 2300 	ldrd	r2, r3, [r3]
 800805e:	4682      	mov	sl, r0
 8008060:	468b      	mov	fp, r1
 8008062:	4620      	mov	r0, r4
 8008064:	4629      	mov	r1, r5
 8008066:	f7f8 fa37 	bl	80004d8 <__aeabi_dmul>
 800806a:	a33d      	add	r3, pc, #244	; (adr r3, 8008160 <__kernel_cos+0x140>)
 800806c:	e9d3 2300 	ldrd	r2, r3, [r3]
 8008070:	f7f8 f87c 	bl	800016c <__adddf3>
 8008074:	4622      	mov	r2, r4
 8008076:	462b      	mov	r3, r5
 8008078:	f7f8 fa2e 	bl	80004d8 <__aeabi_dmul>
 800807c:	a33a      	add	r3, pc, #232	; (adr r3, 8008168 <__kernel_cos+0x148>)
 800807e:	e9d3 2300 	ldrd	r2, r3, [r3]
 8008082:	f7f8 f871 	bl	8000168 <__aeabi_dsub>
 8008086:	4622      	mov	r2, r4
 8008088:	462b      	mov	r3, r5
 800808a:	f7f8 fa25 	bl	80004d8 <__aeabi_dmul>
 800808e:	a338      	add	r3, pc, #224	; (adr r3, 8008170 <__kernel_cos+0x150>)
 8008090:	e9d3 2300 	ldrd	r2, r3, [r3]
 8008094:	f7f8 f86a 	bl	800016c <__adddf3>
 8008098:	4622      	mov	r2, r4
 800809a:	462b      	mov	r3, r5
 800809c:	f7f8 fa1c 	bl	80004d8 <__aeabi_dmul>
 80080a0:	a335      	add	r3, pc, #212	; (adr r3, 8008178 <__kernel_cos+0x158>)
 80080a2:	e9d3 2300 	ldrd	r2, r3, [r3]
 80080a6:	f7f8 f85f 	bl	8000168 <__aeabi_dsub>
 80080aa:	4622      	mov	r2, r4
 80080ac:	462b      	mov	r3, r5
 80080ae:	f7f8 fa13 	bl	80004d8 <__aeabi_dmul>
 80080b2:	a333      	add	r3, pc, #204	; (adr r3, 8008180 <__kernel_cos+0x160>)
 80080b4:	e9d3 2300 	ldrd	r2, r3, [r3]
 80080b8:	f7f8 f858 	bl	800016c <__adddf3>
 80080bc:	4622      	mov	r2, r4
 80080be:	462b      	mov	r3, r5
 80080c0:	f7f8 fa0a 	bl	80004d8 <__aeabi_dmul>
 80080c4:	4622      	mov	r2, r4
 80080c6:	462b      	mov	r3, r5
 80080c8:	f7f8 fa06 	bl	80004d8 <__aeabi_dmul>
 80080cc:	e9dd 2300 	ldrd	r2, r3, [sp]
 80080d0:	4604      	mov	r4, r0
 80080d2:	460d      	mov	r5, r1
 80080d4:	4640      	mov	r0, r8
 80080d6:	4639      	mov	r1, r7
 80080d8:	f7f8 f9fe 	bl	80004d8 <__aeabi_dmul>
 80080dc:	460b      	mov	r3, r1
 80080de:	4602      	mov	r2, r0
 80080e0:	4629      	mov	r1, r5
 80080e2:	4620      	mov	r0, r4
 80080e4:	f7f8 f840 	bl	8000168 <__aeabi_dsub>
 80080e8:	4b28      	ldr	r3, [pc, #160]	; (800818c <__kernel_cos+0x16c>)
 80080ea:	4680      	mov	r8, r0
 80080ec:	429e      	cmp	r6, r3
 80080ee:	4689      	mov	r9, r1
 80080f0:	dc0e      	bgt.n	8008110 <__kernel_cos+0xf0>
 80080f2:	4602      	mov	r2, r0
 80080f4:	460b      	mov	r3, r1
 80080f6:	4650      	mov	r0, sl
 80080f8:	4659      	mov	r1, fp
 80080fa:	f7f8 f835 	bl	8000168 <__aeabi_dsub>
 80080fe:	4602      	mov	r2, r0
 8008100:	2000      	movs	r0, #0
 8008102:	460b      	mov	r3, r1
 8008104:	4922      	ldr	r1, [pc, #136]	; (8008190 <__kernel_cos+0x170>)
 8008106:	f7f8 f82f 	bl	8000168 <__aeabi_dsub>
 800810a:	b003      	add	sp, #12
 800810c:	e8bd 8ff0 	ldmia.w	sp!, {r4, r5, r6, r7, r8, r9, sl, fp, pc}
 8008110:	2400      	movs	r4, #0
 8008112:	4b20      	ldr	r3, [pc, #128]	; (8008194 <__kernel_cos+0x174>)
 8008114:	4622      	mov	r2, r4
 8008116:	429e      	cmp	r6, r3
 8008118:	bfcc      	ite	gt
 800811a:	4d1f      	ldrgt	r5, [pc, #124]	; (8008198 <__kernel_cos+0x178>)
 800811c:	f5a6 1500 	suble.w	r5, r6, #2097152	; 0x200000
 8008120:	462b      	mov	r3, r5
 8008122:	2000      	movs	r0, #0
 8008124:	491a      	ldr	r1, [pc, #104]	; (8008190 <__kernel_cos+0x170>)
 8008126:	f7f8 f81f 	bl	8000168 <__aeabi_dsub>
 800812a:	4622      	mov	r2, r4
 800812c:	4606      	mov	r6, r0
 800812e:	460f      	mov	r7, r1
 8008130:	462b      	mov	r3, r5
 8008132:	4650      	mov	r0, sl
 8008134:	4659      	mov	r1, fp
 8008136:	f7f8 f817 	bl	8000168 <__aeabi_dsub>
 800813a:	4642      	mov	r2, r8
 800813c:	464b      	mov	r3, r9
 800813e:	f7f8 f813 	bl	8000168 <__aeabi_dsub>
 8008142:	4602      	mov	r2, r0
 8008144:	460b      	mov	r3, r1
 8008146:	4630      	mov	r0, r6
 8008148:	4639      	mov	r1, r7
 800814a:	e7dc      	b.n	8008106 <__kernel_cos+0xe6>
 800814c:	2000      	movs	r0, #0
 800814e:	4910      	ldr	r1, [pc, #64]	; (8008190 <__kernel_cos+0x170>)
 8008150:	e7db      	b.n	800810a <__kernel_cos+0xea>
 8008152:	bf00      	nop
 8008154:	f3af 8000 	nop.w
 8008158:	be8838d4 	.word	0xbe8838d4
 800815c:	bda8fae9 	.word	0xbda8fae9
 8008160:	bdb4b1c4 	.word	0xbdb4b1c4
 8008164:	3e21ee9e 	.word	0x3e21ee9e
 8008168:	809c52ad 	.word	0x809c52ad
 800816c:	3e927e4f 	.word	0x3e927e4f
 8008170:	19cb1590 	.word	0x19cb1590
 8008174:	3efa01a0 	.word	0x3efa01a0
 8008178:	16c15177 	.word	0x16c15177
 800817c:	3f56c16c 	.word	0x3f56c16c
 8008180:	5555554c 	.word	0x5555554c
 8008184:	3fa55555 	.word	0x3fa55555
 8008188:	3fe00000 	.word	0x3fe00000
 800818c:	3fd33332 	.word	0x3fd33332
 8008190:	3ff00000 	.word	0x3ff00000
 8008194:	3fe90000 	.word	0x3fe90000
 8008198:	3fd20000 	.word	0x3fd20000

0800819c <__kernel_rem_pio2>:
 800819c:	e92d 4ff0 	stmdb	sp!, {r4, r5, r6, r7, r8, r9, sl, fp, lr}
 80081a0:	f5ad 7d19 	sub.w	sp, sp, #612	; 0x264
 80081a4:	9308      	str	r3, [sp, #32]
 80081a6:	9101      	str	r1, [sp, #4]
 80081a8:	4bc0      	ldr	r3, [pc, #768]	; (80084ac <__kernel_rem_pio2+0x310>)
 80081aa:	99a2      	ldr	r1, [sp, #648]	; 0x288
 80081ac:	f112 0f14 	cmn.w	r2, #20
 80081b0:	f853 3021 	ldr.w	r3, [r3, r1, lsl #2]
 80081b4:	bfa8      	it	ge
 80081b6:	1ed4      	subge	r4, r2, #3
 80081b8:	9304      	str	r3, [sp, #16]
 80081ba:	9b08      	ldr	r3, [sp, #32]
 80081bc:	bfb8      	it	lt
 80081be:	2400      	movlt	r4, #0
 80081c0:	f103 33ff 	add.w	r3, r3, #4294967295	; 0xffffffff
 80081c4:	9306      	str	r3, [sp, #24]
 80081c6:	bfa4      	itt	ge
 80081c8:	2318      	movge	r3, #24
 80081ca:	fb94 f4f3 	sdivge	r4, r4, r3
 80081ce:	f06f 0317 	mvn.w	r3, #23
 80081d2:	fb04 3303 	mla	r3, r4, r3, r3
 80081d6:	eb03 0a02 	add.w	sl, r3, r2
 80081da:	9a06      	ldr	r2, [sp, #24]
 80081dc:	9b04      	ldr	r3, [sp, #16]
 80081de:	1aa7      	subs	r7, r4, r2
 80081e0:	eb03 0802 	add.w	r8, r3, r2
 80081e4:	9ba3      	ldr	r3, [sp, #652]	; 0x28c
 80081e6:	2500      	movs	r5, #0
 80081e8:	eb03 0987 	add.w	r9, r3, r7, lsl #2
 80081ec:	2200      	movs	r2, #0
 80081ee:	2300      	movs	r3, #0
 80081f0:	9009      	str	r0, [sp, #36]	; 0x24
 80081f2:	ae20      	add	r6, sp, #128	; 0x80
 80081f4:	4545      	cmp	r5, r8
 80081f6:	dd19      	ble.n	800822c <__kernel_rem_pio2+0x90>
 80081f8:	9b08      	ldr	r3, [sp, #32]
 80081fa:	aa20      	add	r2, sp, #128	; 0x80
 80081fc:	eb02 05c3 	add.w	r5, r2, r3, lsl #3
 8008200:	f8dd 8018 	ldr.w	r8, [sp, #24]
 8008204:	f1c3 0301 	rsb	r3, r3, #1
 8008208:	f50d 7be0 	add.w	fp, sp, #448	; 0x1c0
 800820c:	9307      	str	r3, [sp, #28]
 800820e:	9b07      	ldr	r3, [sp, #28]
 8008210:	9a04      	ldr	r2, [sp, #16]
 8008212:	4443      	add	r3, r8
 8008214:	429a      	cmp	r2, r3
 8008216:	db35      	blt.n	8008284 <__kernel_rem_pio2+0xe8>
 8008218:	9b09      	ldr	r3, [sp, #36]	; 0x24
 800821a:	2200      	movs	r2, #0
 800821c:	f1a3 0908 	sub.w	r9, r3, #8
 8008220:	2300      	movs	r3, #0
 8008222:	462f      	mov	r7, r5
 8008224:	2600      	movs	r6, #0
 8008226:	e9cd 2302 	strd	r2, r3, [sp, #8]
 800822a:	e01f      	b.n	800826c <__kernel_rem_pio2+0xd0>
 800822c:	42ef      	cmn	r7, r5
 800822e:	d40b      	bmi.n	8008248 <__kernel_rem_pio2+0xac>
 8008230:	f859 0025 	ldr.w	r0, [r9, r5, lsl #2]
 8008234:	e9cd 2302 	strd	r2, r3, [sp, #8]
 8008238:	f7f8 f8e4 	bl	8000404 <__aeabi_i2d>
 800823c:	e9dd 2302 	ldrd	r2, r3, [sp, #8]
 8008240:	e8e6 0102 	strd	r0, r1, [r6], #8
 8008244:	3501      	adds	r5, #1
 8008246:	e7d5      	b.n	80081f4 <__kernel_rem_pio2+0x58>
 8008248:	4610      	mov	r0, r2
 800824a:	4619      	mov	r1, r3
 800824c:	e7f8      	b.n	8008240 <__kernel_rem_pio2+0xa4>
 800824e:	e9d7 2300 	ldrd	r2, r3, [r7]
 8008252:	e9f9 0102 	ldrd	r0, r1, [r9, #8]!
 8008256:	f7f8 f93f 	bl	80004d8 <__aeabi_dmul>
 800825a:	4602      	mov	r2, r0
 800825c:	460b      	mov	r3, r1
 800825e:	e9dd 0102 	ldrd	r0, r1, [sp, #8]
 8008262:	f7f7 ff83 	bl	800016c <__adddf3>
 8008266:	e9cd 0102 	strd	r0, r1, [sp, #8]
 800826a:	3601      	adds	r6, #1
 800826c:	9b06      	ldr	r3, [sp, #24]
 800826e:	3f08      	subs	r7, #8
 8008270:	429e      	cmp	r6, r3
 8008272:	ddec      	ble.n	800824e <__kernel_rem_pio2+0xb2>
 8008274:	e9dd 2302 	ldrd	r2, r3, [sp, #8]
 8008278:	3508      	adds	r5, #8
 800827a:	e8eb 2302 	strd	r2, r3, [fp], #8
 800827e:	f108 0801 	add.w	r8, r8, #1
 8008282:	e7c4      	b.n	800820e <__kernel_rem_pio2+0x72>
 8008284:	9b04      	ldr	r3, [sp, #16]
 8008286:	aa0c      	add	r2, sp, #48	; 0x30
 8008288:	eb02 0383 	add.w	r3, r2, r3, lsl #2
 800828c:	930b      	str	r3, [sp, #44]	; 0x2c
 800828e:	9ba3      	ldr	r3, [sp, #652]	; 0x28c
 8008290:	9f04      	ldr	r7, [sp, #16]
 8008292:	eb03 0384 	add.w	r3, r3, r4, lsl #2
 8008296:	930a      	str	r3, [sp, #40]	; 0x28
 8008298:	463e      	mov	r6, r7
 800829a:	ab98      	add	r3, sp, #608	; 0x260
 800829c:	f10d 0b30 	add.w	fp, sp, #48	; 0x30
 80082a0:	eb03 03c7 	add.w	r3, r3, r7, lsl #3
 80082a4:	f8cd b008 	str.w	fp, [sp, #8]
 80082a8:	e953 4528 	ldrd	r4, r5, [r3, #-160]	; 0xa0
 80082ac:	2e00      	cmp	r6, #0
 80082ae:	dc71      	bgt.n	8008394 <__kernel_rem_pio2+0x1f8>
 80082b0:	4652      	mov	r2, sl
 80082b2:	4620      	mov	r0, r4
 80082b4:	4629      	mov	r1, r5
 80082b6:	f000 fbf3 	bl	8008aa0 <scalbn>
 80082ba:	2200      	movs	r2, #0
 80082bc:	f04f 537f 	mov.w	r3, #1069547520	; 0x3fc00000
 80082c0:	4604      	mov	r4, r0
 80082c2:	460d      	mov	r5, r1
 80082c4:	f7f8 f908 	bl	80004d8 <__aeabi_dmul>
 80082c8:	f000 fb6a 	bl	80089a0 <floor>
 80082cc:	2200      	movs	r2, #0
 80082ce:	4b78      	ldr	r3, [pc, #480]	; (80084b0 <__kernel_rem_pio2+0x314>)
 80082d0:	f7f8 f902 	bl	80004d8 <__aeabi_dmul>
 80082d4:	4602      	mov	r2, r0
 80082d6:	460b      	mov	r3, r1
 80082d8:	4620      	mov	r0, r4
 80082da:	4629      	mov	r1, r5
 80082dc:	f7f7 ff44 	bl	8000168 <__aeabi_dsub>
 80082e0:	460d      	mov	r5, r1
 80082e2:	4604      	mov	r4, r0
 80082e4:	f7f8 fba8 	bl	8000a38 <__aeabi_d2iz>
 80082e8:	9007      	str	r0, [sp, #28]
 80082ea:	f7f8 f88b 	bl	8000404 <__aeabi_i2d>
 80082ee:	4602      	mov	r2, r0
 80082f0:	460b      	mov	r3, r1
 80082f2:	4620      	mov	r0, r4
 80082f4:	4629      	mov	r1, r5
 80082f6:	f7f7 ff37 	bl	8000168 <__aeabi_dsub>
 80082fa:	f1ba 0f00 	cmp.w	sl, #0
 80082fe:	4680      	mov	r8, r0
 8008300:	4689      	mov	r9, r1
 8008302:	dd70      	ble.n	80083e6 <__kernel_rem_pio2+0x24a>
 8008304:	1e7a      	subs	r2, r7, #1
 8008306:	ab0c      	add	r3, sp, #48	; 0x30
 8008308:	f853 0022 	ldr.w	r0, [r3, r2, lsl #2]
 800830c:	9c07      	ldr	r4, [sp, #28]
 800830e:	f1ca 0118 	rsb	r1, sl, #24
 8008312:	fa40 f301 	asr.w	r3, r0, r1
 8008316:	441c      	add	r4, r3
 8008318:	408b      	lsls	r3, r1
 800831a:	1ac0      	subs	r0, r0, r3
 800831c:	ab0c      	add	r3, sp, #48	; 0x30
 800831e:	f843 0022 	str.w	r0, [r3, r2, lsl #2]
 8008322:	f1ca 0317 	rsb	r3, sl, #23
 8008326:	9407      	str	r4, [sp, #28]
 8008328:	fa40 f303 	asr.w	r3, r0, r3
 800832c:	9302      	str	r3, [sp, #8]
 800832e:	9b02      	ldr	r3, [sp, #8]
 8008330:	2b00      	cmp	r3, #0
 8008332:	dd66      	ble.n	8008402 <__kernel_rem_pio2+0x266>
 8008334:	2200      	movs	r2, #0
 8008336:	f06f 417f 	mvn.w	r1, #4278190080	; 0xff000000
 800833a:	4614      	mov	r4, r2
 800833c:	9b07      	ldr	r3, [sp, #28]
 800833e:	3301      	adds	r3, #1
 8008340:	9307      	str	r3, [sp, #28]
 8008342:	4297      	cmp	r7, r2
 8008344:	f300 809f 	bgt.w	8008486 <__kernel_rem_pio2+0x2ea>
 8008348:	f1ba 0f00 	cmp.w	sl, #0
 800834c:	dd07      	ble.n	800835e <__kernel_rem_pio2+0x1c2>
 800834e:	f1ba 0f01 	cmp.w	sl, #1
 8008352:	f000 80b9 	beq.w	80084c8 <__kernel_rem_pio2+0x32c>
 8008356:	f1ba 0f02 	cmp.w	sl, #2
 800835a:	f000 80bf 	beq.w	80084dc <__kernel_rem_pio2+0x340>
 800835e:	9b02      	ldr	r3, [sp, #8]
 8008360:	2b02      	cmp	r3, #2
 8008362:	d14e      	bne.n	8008402 <__kernel_rem_pio2+0x266>
 8008364:	4642      	mov	r2, r8
 8008366:	464b      	mov	r3, r9
 8008368:	2000      	movs	r0, #0
 800836a:	4952      	ldr	r1, [pc, #328]	; (80084b4 <__kernel_rem_pio2+0x318>)
 800836c:	f7f7 fefc 	bl	8000168 <__aeabi_dsub>
 8008370:	4680      	mov	r8, r0
 8008372:	4689      	mov	r9, r1
 8008374:	2c00      	cmp	r4, #0
 8008376:	d044      	beq.n	8008402 <__kernel_rem_pio2+0x266>
 8008378:	4652      	mov	r2, sl
 800837a:	2000      	movs	r0, #0
 800837c:	494d      	ldr	r1, [pc, #308]	; (80084b4 <__kernel_rem_pio2+0x318>)
 800837e:	f000 fb8f 	bl	8008aa0 <scalbn>
 8008382:	4602      	mov	r2, r0
 8008384:	460b      	mov	r3, r1
 8008386:	4640      	mov	r0, r8
 8008388:	4649      	mov	r1, r9
 800838a:	f7f7 feed 	bl	8000168 <__aeabi_dsub>
 800838e:	4680      	mov	r8, r0
 8008390:	4689      	mov	r9, r1
 8008392:	e036      	b.n	8008402 <__kernel_rem_pio2+0x266>
 8008394:	2200      	movs	r2, #0
 8008396:	4b48      	ldr	r3, [pc, #288]	; (80084b8 <__kernel_rem_pio2+0x31c>)
 8008398:	4620      	mov	r0, r4
 800839a:	4629      	mov	r1, r5
 800839c:	f7f8 f89c 	bl	80004d8 <__aeabi_dmul>
 80083a0:	f7f8 fb4a 	bl	8000a38 <__aeabi_d2iz>
 80083a4:	f7f8 f82e 	bl	8000404 <__aeabi_i2d>
 80083a8:	2200      	movs	r2, #0
 80083aa:	4b44      	ldr	r3, [pc, #272]	; (80084bc <__kernel_rem_pio2+0x320>)
 80083ac:	4680      	mov	r8, r0
 80083ae:	4689      	mov	r9, r1
 80083b0:	f7f8 f892 	bl	80004d8 <__aeabi_dmul>
 80083b4:	4602      	mov	r2, r0
 80083b6:	460b      	mov	r3, r1
 80083b8:	4620      	mov	r0, r4
 80083ba:	4629      	mov	r1, r5
 80083bc:	f7f7 fed4 	bl	8000168 <__aeabi_dsub>
 80083c0:	f7f8 fb3a 	bl	8000a38 <__aeabi_d2iz>
 80083c4:	9b02      	ldr	r3, [sp, #8]
 80083c6:	3e01      	subs	r6, #1
 80083c8:	f843 0b04 	str.w	r0, [r3], #4
 80083cc:	9302      	str	r3, [sp, #8]
 80083ce:	ab70      	add	r3, sp, #448	; 0x1c0
 80083d0:	eb03 03c6 	add.w	r3, r3, r6, lsl #3
 80083d4:	4640      	mov	r0, r8
 80083d6:	e9d3 2300 	ldrd	r2, r3, [r3]
 80083da:	4649      	mov	r1, r9
 80083dc:	f7f7 fec6 	bl	800016c <__adddf3>
 80083e0:	4604      	mov	r4, r0
 80083e2:	460d      	mov	r5, r1
 80083e4:	e762      	b.n	80082ac <__kernel_rem_pio2+0x110>
 80083e6:	d105      	bne.n	80083f4 <__kernel_rem_pio2+0x258>
 80083e8:	1e7b      	subs	r3, r7, #1
 80083ea:	aa0c      	add	r2, sp, #48	; 0x30
 80083ec:	f852 0023 	ldr.w	r0, [r2, r3, lsl #2]
 80083f0:	15c3      	asrs	r3, r0, #23
 80083f2:	e79b      	b.n	800832c <__kernel_rem_pio2+0x190>
 80083f4:	2200      	movs	r2, #0
 80083f6:	4b32      	ldr	r3, [pc, #200]	; (80084c0 <__kernel_rem_pio2+0x324>)
 80083f8:	f7f8 faf4 	bl	80009e4 <__aeabi_dcmpge>
 80083fc:	2800      	cmp	r0, #0
 80083fe:	d13f      	bne.n	8008480 <__kernel_rem_pio2+0x2e4>
 8008400:	9002      	str	r0, [sp, #8]
 8008402:	2200      	movs	r2, #0
 8008404:	2300      	movs	r3, #0
 8008406:	4640      	mov	r0, r8
 8008408:	4649      	mov	r1, r9
 800840a:	f7f8 facd 	bl	80009a8 <__aeabi_dcmpeq>
 800840e:	2800      	cmp	r0, #0
 8008410:	f000 80b5 	beq.w	800857e <__kernel_rem_pio2+0x3e2>
 8008414:	1e7c      	subs	r4, r7, #1
 8008416:	4623      	mov	r3, r4
 8008418:	2200      	movs	r2, #0
 800841a:	9904      	ldr	r1, [sp, #16]
 800841c:	428b      	cmp	r3, r1
 800841e:	da64      	bge.n	80084ea <__kernel_rem_pio2+0x34e>
 8008420:	2a00      	cmp	r2, #0
 8008422:	d078      	beq.n	8008516 <__kernel_rem_pio2+0x37a>
 8008424:	ab0c      	add	r3, sp, #48	; 0x30
 8008426:	f853 3024 	ldr.w	r3, [r3, r4, lsl #2]
 800842a:	f1aa 0a18 	sub.w	sl, sl, #24
 800842e:	2b00      	cmp	r3, #0
 8008430:	f000 80a3 	beq.w	800857a <__kernel_rem_pio2+0x3de>
 8008434:	4652      	mov	r2, sl
 8008436:	2000      	movs	r0, #0
 8008438:	491e      	ldr	r1, [pc, #120]	; (80084b4 <__kernel_rem_pio2+0x318>)
 800843a:	f000 fb31 	bl	8008aa0 <scalbn>
 800843e:	46a2      	mov	sl, r4
 8008440:	4606      	mov	r6, r0
 8008442:	460f      	mov	r7, r1
 8008444:	f04f 0800 	mov.w	r8, #0
 8008448:	00e3      	lsls	r3, r4, #3
 800844a:	9306      	str	r3, [sp, #24]
 800844c:	f8df 9068 	ldr.w	r9, [pc, #104]	; 80084b8 <__kernel_rem_pio2+0x31c>
 8008450:	ab70      	add	r3, sp, #448	; 0x1c0
 8008452:	eb03 0bc4 	add.w	fp, r3, r4, lsl #3
 8008456:	f1ba 0f00 	cmp.w	sl, #0
 800845a:	f280 80c6 	bge.w	80085ea <__kernel_rem_pio2+0x44e>
 800845e:	4627      	mov	r7, r4
 8008460:	f04f 0800 	mov.w	r8, #0
 8008464:	2f00      	cmp	r7, #0
 8008466:	f2c0 80f3 	blt.w	8008650 <__kernel_rem_pio2+0x4b4>
 800846a:	4b16      	ldr	r3, [pc, #88]	; (80084c4 <__kernel_rem_pio2+0x328>)
 800846c:	f04f 0a00 	mov.w	sl, #0
 8008470:	461d      	mov	r5, r3
 8008472:	ab70      	add	r3, sp, #448	; 0x1c0
 8008474:	f04f 0b00 	mov.w	fp, #0
 8008478:	2600      	movs	r6, #0
 800847a:	eb03 09c7 	add.w	r9, r3, r7, lsl #3
 800847e:	e0d9      	b.n	8008634 <__kernel_rem_pio2+0x498>
 8008480:	2302      	movs	r3, #2
 8008482:	9302      	str	r3, [sp, #8]
 8008484:	e756      	b.n	8008334 <__kernel_rem_pio2+0x198>
 8008486:	f8db 3000 	ldr.w	r3, [fp]
 800848a:	b954      	cbnz	r4, 80084a2 <__kernel_rem_pio2+0x306>
 800848c:	b123      	cbz	r3, 8008498 <__kernel_rem_pio2+0x2fc>
 800848e:	f1c3 7380 	rsb	r3, r3, #16777216	; 0x1000000
 8008492:	f8cb 3000 	str.w	r3, [fp]
 8008496:	2301      	movs	r3, #1
 8008498:	461c      	mov	r4, r3
 800849a:	3201      	adds	r2, #1
 800849c:	f10b 0b04 	add.w	fp, fp, #4
 80084a0:	e74f      	b.n	8008342 <__kernel_rem_pio2+0x1a6>
 80084a2:	1acb      	subs	r3, r1, r3
 80084a4:	f8cb 3000 	str.w	r3, [fp]
 80084a8:	4623      	mov	r3, r4
 80084aa:	e7f5      	b.n	8008498 <__kernel_rem_pio2+0x2fc>
 80084ac:	08009298 	.word	0x08009298
 80084b0:	40200000 	.word	0x40200000
 80084b4:	3ff00000 	.word	0x3ff00000
 80084b8:	3e700000 	.word	0x3e700000
 80084bc:	41700000 	.word	0x41700000
 80084c0:	3fe00000 	.word	0x3fe00000
 80084c4:	08009258 	.word	0x08009258
 80084c8:	1e7a      	subs	r2, r7, #1
 80084ca:	ab0c      	add	r3, sp, #48	; 0x30
 80084cc:	f853 3022 	ldr.w	r3, [r3, r2, lsl #2]
 80084d0:	f3c3 0316 	ubfx	r3, r3, #0, #23
 80084d4:	a90c      	add	r1, sp, #48	; 0x30
 80084d6:	f841 3022 	str.w	r3, [r1, r2, lsl #2]
 80084da:	e740      	b.n	800835e <__kernel_rem_pio2+0x1c2>
 80084dc:	1e7a      	subs	r2, r7, #1
 80084de:	ab0c      	add	r3, sp, #48	; 0x30
 80084e0:	f853 3022 	ldr.w	r3, [r3, r2, lsl #2]
 80084e4:	f3c3 0315 	ubfx	r3, r3, #0, #22
 80084e8:	e7f4      	b.n	80084d4 <__kernel_rem_pio2+0x338>
 80084ea:	a90c      	add	r1, sp, #48	; 0x30
 80084ec:	f851 1023 	ldr.w	r1, [r1, r3, lsl #2]
 80084f0:	3b01      	subs	r3, #1
 80084f2:	430a      	orrs	r2, r1
 80084f4:	e791      	b.n	800841a <__kernel_rem_pio2+0x27e>
 80084f6:	3401      	adds	r4, #1
 80084f8:	f853 2d04 	ldr.w	r2, [r3, #-4]!
 80084fc:	2a00      	cmp	r2, #0
 80084fe:	d0fa      	beq.n	80084f6 <__kernel_rem_pio2+0x35a>
 8008500:	9b08      	ldr	r3, [sp, #32]
 8008502:	1c7e      	adds	r6, r7, #1
 8008504:	18fd      	adds	r5, r7, r3
 8008506:	ab20      	add	r3, sp, #128	; 0x80
 8008508:	eb03 05c5 	add.w	r5, r3, r5, lsl #3
 800850c:	443c      	add	r4, r7
 800850e:	42b4      	cmp	r4, r6
 8008510:	da04      	bge.n	800851c <__kernel_rem_pio2+0x380>
 8008512:	4627      	mov	r7, r4
 8008514:	e6c0      	b.n	8008298 <__kernel_rem_pio2+0xfc>
 8008516:	2401      	movs	r4, #1
 8008518:	9b0b      	ldr	r3, [sp, #44]	; 0x2c
 800851a:	e7ed      	b.n	80084f8 <__kernel_rem_pio2+0x35c>
 800851c:	9b0a      	ldr	r3, [sp, #40]	; 0x28
 800851e:	462f      	mov	r7, r5
 8008520:	f853 0026 	ldr.w	r0, [r3, r6, lsl #2]
 8008524:	f7f7 ff6e 	bl	8000404 <__aeabi_i2d>
 8008528:	f04f 0b00 	mov.w	fp, #0
 800852c:	f04f 0800 	mov.w	r8, #0
 8008530:	f04f 0900 	mov.w	r9, #0
 8008534:	9b09      	ldr	r3, [sp, #36]	; 0x24
 8008536:	e8e7 0102 	strd	r0, r1, [r7], #8
 800853a:	3b08      	subs	r3, #8
 800853c:	9302      	str	r3, [sp, #8]
 800853e:	9b06      	ldr	r3, [sp, #24]
 8008540:	459b      	cmp	fp, r3
 8008542:	dd07      	ble.n	8008554 <__kernel_rem_pio2+0x3b8>
 8008544:	ab70      	add	r3, sp, #448	; 0x1c0
 8008546:	eb03 03c6 	add.w	r3, r3, r6, lsl #3
 800854a:	463d      	mov	r5, r7
 800854c:	e9c3 8900 	strd	r8, r9, [r3]
 8008550:	3601      	adds	r6, #1
 8008552:	e7dc      	b.n	800850e <__kernel_rem_pio2+0x372>
 8008554:	9902      	ldr	r1, [sp, #8]
 8008556:	f10b 0b01 	add.w	fp, fp, #1
 800855a:	e9f1 2302 	ldrd	r2, r3, [r1, #8]!
 800855e:	9102      	str	r1, [sp, #8]
 8008560:	e875 0102 	ldrd	r0, r1, [r5], #-8
 8008564:	f7f7 ffb8 	bl	80004d8 <__aeabi_dmul>
 8008568:	4602      	mov	r2, r0
 800856a:	460b      	mov	r3, r1
 800856c:	4640      	mov	r0, r8
 800856e:	4649      	mov	r1, r9
 8008570:	f7f7 fdfc 	bl	800016c <__adddf3>
 8008574:	4680      	mov	r8, r0
 8008576:	4689      	mov	r9, r1
 8008578:	e7e1      	b.n	800853e <__kernel_rem_pio2+0x3a2>
 800857a:	3c01      	subs	r4, #1
 800857c:	e752      	b.n	8008424 <__kernel_rem_pio2+0x288>
 800857e:	f1ca 0200 	rsb	r2, sl, #0
 8008582:	4640      	mov	r0, r8
 8008584:	4649      	mov	r1, r9
 8008586:	f000 fa8b 	bl	8008aa0 <scalbn>
 800858a:	2200      	movs	r2, #0
 800858c:	4ba5      	ldr	r3, [pc, #660]	; (8008824 <__kernel_rem_pio2+0x688>)
 800858e:	4604      	mov	r4, r0
 8008590:	460d      	mov	r5, r1
 8008592:	f7f8 fa27 	bl	80009e4 <__aeabi_dcmpge>
 8008596:	b1f8      	cbz	r0, 80085d8 <__kernel_rem_pio2+0x43c>
 8008598:	2200      	movs	r2, #0
 800859a:	4ba3      	ldr	r3, [pc, #652]	; (8008828 <__kernel_rem_pio2+0x68c>)
 800859c:	4620      	mov	r0, r4
 800859e:	4629      	mov	r1, r5
 80085a0:	f7f7 ff9a 	bl	80004d8 <__aeabi_dmul>
 80085a4:	f7f8 fa48 	bl	8000a38 <__aeabi_d2iz>
 80085a8:	4606      	mov	r6, r0
 80085aa:	f7f7 ff2b 	bl	8000404 <__aeabi_i2d>
 80085ae:	2200      	movs	r2, #0
 80085b0:	4b9c      	ldr	r3, [pc, #624]	; (8008824 <__kernel_rem_pio2+0x688>)
 80085b2:	f7f7 ff91 	bl	80004d8 <__aeabi_dmul>
 80085b6:	460b      	mov	r3, r1
 80085b8:	4602      	mov	r2, r0
 80085ba:	4629      	mov	r1, r5
 80085bc:	4620      	mov	r0, r4
 80085be:	f7f7 fdd3 	bl	8000168 <__aeabi_dsub>
 80085c2:	f7f8 fa39 	bl	8000a38 <__aeabi_d2iz>
 80085c6:	1c7c      	adds	r4, r7, #1
 80085c8:	ab0c      	add	r3, sp, #48	; 0x30
 80085ca:	f843 0027 	str.w	r0, [r3, r7, lsl #2]
 80085ce:	f10a 0a18 	add.w	sl, sl, #24
 80085d2:	f843 6024 	str.w	r6, [r3, r4, lsl #2]
 80085d6:	e72d      	b.n	8008434 <__kernel_rem_pio2+0x298>
 80085d8:	4620      	mov	r0, r4
 80085da:	4629      	mov	r1, r5
 80085dc:	f7f8 fa2c 	bl	8000a38 <__aeabi_d2iz>
 80085e0:	ab0c      	add	r3, sp, #48	; 0x30
 80085e2:	463c      	mov	r4, r7
 80085e4:	f843 0027 	str.w	r0, [r3, r7, lsl #2]
 80085e8:	e724      	b.n	8008434 <__kernel_rem_pio2+0x298>
 80085ea:	ab0c      	add	r3, sp, #48	; 0x30
 80085ec:	f853 002a 	ldr.w	r0, [r3, sl, lsl #2]
 80085f0:	f7f7 ff08 	bl	8000404 <__aeabi_i2d>
 80085f4:	4632      	mov	r2, r6
 80085f6:	463b      	mov	r3, r7
 80085f8:	f7f7 ff6e 	bl	80004d8 <__aeabi_dmul>
 80085fc:	4642      	mov	r2, r8
 80085fe:	e86b 0102 	strd	r0, r1, [fp], #-8
 8008602:	464b      	mov	r3, r9
 8008604:	4630      	mov	r0, r6
 8008606:	4639      	mov	r1, r7
 8008608:	f7f7 ff66 	bl	80004d8 <__aeabi_dmul>
 800860c:	f10a 3aff 	add.w	sl, sl, #4294967295	; 0xffffffff
 8008610:	4606      	mov	r6, r0
 8008612:	460f      	mov	r7, r1
 8008614:	e71f      	b.n	8008456 <__kernel_rem_pio2+0x2ba>
 8008616:	e8f9 2302 	ldrd	r2, r3, [r9], #8
 800861a:	e8f5 0102 	ldrd	r0, r1, [r5], #8
 800861e:	f7f7 ff5b 	bl	80004d8 <__aeabi_dmul>
 8008622:	4602      	mov	r2, r0
 8008624:	460b      	mov	r3, r1
 8008626:	4650      	mov	r0, sl
 8008628:	4659      	mov	r1, fp
 800862a:	f7f7 fd9f 	bl	800016c <__adddf3>
 800862e:	4682      	mov	sl, r0
 8008630:	468b      	mov	fp, r1
 8008632:	3601      	adds	r6, #1
 8008634:	9b04      	ldr	r3, [sp, #16]
 8008636:	429e      	cmp	r6, r3
 8008638:	dc01      	bgt.n	800863e <__kernel_rem_pio2+0x4a2>
 800863a:	45b0      	cmp	r8, r6
 800863c:	daeb      	bge.n	8008616 <__kernel_rem_pio2+0x47a>
 800863e:	ab48      	add	r3, sp, #288	; 0x120
 8008640:	eb03 03c8 	add.w	r3, r3, r8, lsl #3
 8008644:	e9c3 ab00 	strd	sl, fp, [r3]
 8008648:	3f01      	subs	r7, #1
 800864a:	f108 0801 	add.w	r8, r8, #1
 800864e:	e709      	b.n	8008464 <__kernel_rem_pio2+0x2c8>
 8008650:	9ba2      	ldr	r3, [sp, #648]	; 0x288
 8008652:	2b02      	cmp	r3, #2
 8008654:	dc09      	bgt.n	800866a <__kernel_rem_pio2+0x4ce>
 8008656:	2b00      	cmp	r3, #0
 8008658:	dc34      	bgt.n	80086c4 <__kernel_rem_pio2+0x528>
 800865a:	d05e      	beq.n	800871a <__kernel_rem_pio2+0x57e>
 800865c:	9b07      	ldr	r3, [sp, #28]
 800865e:	f003 0007 	and.w	r0, r3, #7
 8008662:	f50d 7d19 	add.w	sp, sp, #612	; 0x264
 8008666:	e8bd 8ff0 	ldmia.w	sp!, {r4, r5, r6, r7, r8, r9, sl, fp, pc}
 800866a:	9ba2      	ldr	r3, [sp, #648]	; 0x288
 800866c:	2b03      	cmp	r3, #3
 800866e:	d1f5      	bne.n	800865c <__kernel_rem_pio2+0x4c0>
 8008670:	9a06      	ldr	r2, [sp, #24]
 8008672:	ab48      	add	r3, sp, #288	; 0x120
 8008674:	441a      	add	r2, r3
 8008676:	4615      	mov	r5, r2
 8008678:	4692      	mov	sl, r2
 800867a:	46a3      	mov	fp, r4
 800867c:	f1bb 0f00 	cmp.w	fp, #0
 8008680:	dc7a      	bgt.n	8008778 <__kernel_rem_pio2+0x5dc>
 8008682:	46aa      	mov	sl, r5
 8008684:	46a3      	mov	fp, r4
 8008686:	f1bb 0f01 	cmp.w	fp, #1
 800868a:	f300 8094 	bgt.w	80087b6 <__kernel_rem_pio2+0x61a>
 800868e:	2700      	movs	r7, #0
 8008690:	463e      	mov	r6, r7
 8008692:	2c01      	cmp	r4, #1
 8008694:	f300 80ae 	bgt.w	80087f4 <__kernel_rem_pio2+0x658>
 8008698:	e9dd 5048 	ldrd	r5, r0, [sp, #288]	; 0x120
 800869c:	e9dd 414a 	ldrd	r4, r1, [sp, #296]	; 0x128
 80086a0:	9b02      	ldr	r3, [sp, #8]
 80086a2:	2b00      	cmp	r3, #0
 80086a4:	f040 80b0 	bne.w	8008808 <__kernel_rem_pio2+0x66c>
 80086a8:	4603      	mov	r3, r0
 80086aa:	462a      	mov	r2, r5
 80086ac:	9801      	ldr	r0, [sp, #4]
 80086ae:	e9c0 2300 	strd	r2, r3, [r0]
 80086b2:	4622      	mov	r2, r4
 80086b4:	460b      	mov	r3, r1
 80086b6:	e9c0 2302 	strd	r2, r3, [r0, #8]
 80086ba:	463a      	mov	r2, r7
 80086bc:	4633      	mov	r3, r6
 80086be:	e9c0 2304 	strd	r2, r3, [r0, #16]
 80086c2:	e7cb      	b.n	800865c <__kernel_rem_pio2+0x4c0>
 80086c4:	2000      	movs	r0, #0
 80086c6:	9a06      	ldr	r2, [sp, #24]
 80086c8:	ab48      	add	r3, sp, #288	; 0x120
 80086ca:	441a      	add	r2, r3
 80086cc:	4615      	mov	r5, r2
 80086ce:	46a0      	mov	r8, r4
 80086d0:	4601      	mov	r1, r0
 80086d2:	f1b8 0f00 	cmp.w	r8, #0
 80086d6:	da3c      	bge.n	8008752 <__kernel_rem_pio2+0x5b6>
 80086d8:	9b02      	ldr	r3, [sp, #8]
 80086da:	2b00      	cmp	r3, #0
 80086dc:	d040      	beq.n	8008760 <__kernel_rem_pio2+0x5c4>
 80086de:	f101 4500 	add.w	r5, r1, #2147483648	; 0x80000000
 80086e2:	4602      	mov	r2, r0
 80086e4:	462b      	mov	r3, r5
 80086e6:	9d01      	ldr	r5, [sp, #4]
 80086e8:	2601      	movs	r6, #1
 80086ea:	e9c5 2300 	strd	r2, r3, [r5]
 80086ee:	460b      	mov	r3, r1
 80086f0:	e9dd 0148 	ldrd	r0, r1, [sp, #288]	; 0x120
 80086f4:	f7f7 fd38 	bl	8000168 <__aeabi_dsub>
 80086f8:	4684      	mov	ip, r0
 80086fa:	460f      	mov	r7, r1
 80086fc:	ad48      	add	r5, sp, #288	; 0x120
 80086fe:	42b4      	cmp	r4, r6
 8008700:	f105 0508 	add.w	r5, r5, #8
 8008704:	da2e      	bge.n	8008764 <__kernel_rem_pio2+0x5c8>
 8008706:	9b02      	ldr	r3, [sp, #8]
 8008708:	b10b      	cbz	r3, 800870e <__kernel_rem_pio2+0x572>
 800870a:	f107 4700 	add.w	r7, r7, #2147483648	; 0x80000000
 800870e:	4662      	mov	r2, ip
 8008710:	463b      	mov	r3, r7
 8008712:	9901      	ldr	r1, [sp, #4]
 8008714:	e9c1 2302 	strd	r2, r3, [r1, #8]
 8008718:	e7a0      	b.n	800865c <__kernel_rem_pio2+0x4c0>
 800871a:	9a06      	ldr	r2, [sp, #24]
 800871c:	9ea2      	ldr	r6, [sp, #648]	; 0x288
 800871e:	ab48      	add	r3, sp, #288	; 0x120
 8008720:	441a      	add	r2, r3
 8008722:	4615      	mov	r5, r2
 8008724:	4637      	mov	r7, r6
 8008726:	2c00      	cmp	r4, #0
 8008728:	da09      	bge.n	800873e <__kernel_rem_pio2+0x5a2>
 800872a:	9b02      	ldr	r3, [sp, #8]
 800872c:	b10b      	cbz	r3, 8008732 <__kernel_rem_pio2+0x596>
 800872e:	f107 4700 	add.w	r7, r7, #2147483648	; 0x80000000
 8008732:	4632      	mov	r2, r6
 8008734:	463b      	mov	r3, r7
 8008736:	9901      	ldr	r1, [sp, #4]
 8008738:	e9c1 2300 	strd	r2, r3, [r1]
 800873c:	e78e      	b.n	800865c <__kernel_rem_pio2+0x4c0>
 800873e:	4630      	mov	r0, r6
 8008740:	e875 2302 	ldrd	r2, r3, [r5], #-8
 8008744:	4639      	mov	r1, r7
 8008746:	f7f7 fd11 	bl	800016c <__adddf3>
 800874a:	3c01      	subs	r4, #1
 800874c:	4606      	mov	r6, r0
 800874e:	460f      	mov	r7, r1
 8008750:	e7e9      	b.n	8008726 <__kernel_rem_pio2+0x58a>
 8008752:	e875 2302 	ldrd	r2, r3, [r5], #-8
 8008756:	f7f7 fd09 	bl	800016c <__adddf3>
 800875a:	f108 38ff 	add.w	r8, r8, #4294967295	; 0xffffffff
 800875e:	e7b8      	b.n	80086d2 <__kernel_rem_pio2+0x536>
 8008760:	460d      	mov	r5, r1
 8008762:	e7be      	b.n	80086e2 <__kernel_rem_pio2+0x546>
 8008764:	4660      	mov	r0, ip
 8008766:	e9d5 2300 	ldrd	r2, r3, [r5]
 800876a:	4639      	mov	r1, r7
 800876c:	f7f7 fcfe 	bl	800016c <__adddf3>
 8008770:	3601      	adds	r6, #1
 8008772:	4684      	mov	ip, r0
 8008774:	460f      	mov	r7, r1
 8008776:	e7c2      	b.n	80086fe <__kernel_rem_pio2+0x562>
 8008778:	e9da 6700 	ldrd	r6, r7, [sl]
 800877c:	e95a 8902 	ldrd	r8, r9, [sl, #-8]
 8008780:	4632      	mov	r2, r6
 8008782:	463b      	mov	r3, r7
 8008784:	4640      	mov	r0, r8
 8008786:	4649      	mov	r1, r9
 8008788:	f7f7 fcf0 	bl	800016c <__adddf3>
 800878c:	4602      	mov	r2, r0
 800878e:	460b      	mov	r3, r1
 8008790:	e9cd 0104 	strd	r0, r1, [sp, #16]
 8008794:	4640      	mov	r0, r8
 8008796:	4649      	mov	r1, r9
 8008798:	f7f7 fce6 	bl	8000168 <__aeabi_dsub>
 800879c:	4632      	mov	r2, r6
 800879e:	463b      	mov	r3, r7
 80087a0:	f7f7 fce4 	bl	800016c <__adddf3>
 80087a4:	e9dd 2304 	ldrd	r2, r3, [sp, #16]
 80087a8:	e86a 0102 	strd	r0, r1, [sl], #-8
 80087ac:	f10b 3bff 	add.w	fp, fp, #4294967295	; 0xffffffff
 80087b0:	e9ca 2300 	strd	r2, r3, [sl]
 80087b4:	e762      	b.n	800867c <__kernel_rem_pio2+0x4e0>
 80087b6:	e9da 8900 	ldrd	r8, r9, [sl]
 80087ba:	e95a 6702 	ldrd	r6, r7, [sl, #-8]
 80087be:	4642      	mov	r2, r8
 80087c0:	464b      	mov	r3, r9
 80087c2:	4630      	mov	r0, r6
 80087c4:	4639      	mov	r1, r7
 80087c6:	f7f7 fcd1 	bl	800016c <__adddf3>
 80087ca:	4602      	mov	r2, r0
 80087cc:	460b      	mov	r3, r1
 80087ce:	e9cd 0104 	strd	r0, r1, [sp, #16]
 80087d2:	4630      	mov	r0, r6
 80087d4:	4639      	mov	r1, r7
 80087d6:	f7f7 fcc7 	bl	8000168 <__aeabi_dsub>
 80087da:	4642      	mov	r2, r8
 80087dc:	464b      	mov	r3, r9
 80087de:	f7f7 fcc5 	bl	800016c <__adddf3>
 80087e2:	e9dd 2304 	ldrd	r2, r3, [sp, #16]
 80087e6:	e86a 0102 	strd	r0, r1, [sl], #-8
 80087ea:	f10b 3bff 	add.w	fp, fp, #4294967295	; 0xffffffff
 80087ee:	e9ca 2300 	strd	r2, r3, [sl]
 80087f2:	e748      	b.n	8008686 <__kernel_rem_pio2+0x4ea>
 80087f4:	4638      	mov	r0, r7
 80087f6:	e875 2302 	ldrd	r2, r3, [r5], #-8
 80087fa:	4631      	mov	r1, r6
 80087fc:	f7f7 fcb6 	bl	800016c <__adddf3>
 8008800:	3c01      	subs	r4, #1
 8008802:	4607      	mov	r7, r0
 8008804:	460e      	mov	r6, r1
 8008806:	e744      	b.n	8008692 <__kernel_rem_pio2+0x4f6>
 8008808:	9b01      	ldr	r3, [sp, #4]
 800880a:	f100 4000 	add.w	r0, r0, #2147483648	; 0x80000000
 800880e:	f101 4100 	add.w	r1, r1, #2147483648	; 0x80000000
 8008812:	f106 4600 	add.w	r6, r6, #2147483648	; 0x80000000
 8008816:	e9c3 0401 	strd	r0, r4, [r3, #4]
 800881a:	e9c3 1703 	strd	r1, r7, [r3, #12]
 800881e:	601d      	str	r5, [r3, #0]
 8008820:	615e      	str	r6, [r3, #20]
 8008822:	e71b      	b.n	800865c <__kernel_rem_pio2+0x4c0>
 8008824:	41700000 	.word	0x41700000
 8008828:	3e700000 	.word	0x3e700000
 800882c:	00000000 	.word	0x00000000

08008830 <__kernel_sin>:
 8008830:	e92d 47f0 	stmdb	sp!, {r4, r5, r6, r7, r8, r9, sl, lr}
 8008834:	b086      	sub	sp, #24
 8008836:	e9cd 2300 	strd	r2, r3, [sp]
 800883a:	f021 4300 	bic.w	r3, r1, #2147483648	; 0x80000000
 800883e:	f1b3 5f79 	cmp.w	r3, #1044381696	; 0x3e400000
 8008842:	4682      	mov	sl, r0
 8008844:	460c      	mov	r4, r1
 8008846:	9d0e      	ldr	r5, [sp, #56]	; 0x38
 8008848:	da03      	bge.n	8008852 <__kernel_sin+0x22>
 800884a:	f7f8 f8f5 	bl	8000a38 <__aeabi_d2iz>
 800884e:	2800      	cmp	r0, #0
 8008850:	d050      	beq.n	80088f4 <__kernel_sin+0xc4>
 8008852:	4652      	mov	r2, sl
 8008854:	4623      	mov	r3, r4
 8008856:	4650      	mov	r0, sl
 8008858:	4621      	mov	r1, r4
 800885a:	f7f7 fe3d 	bl	80004d8 <__aeabi_dmul>
 800885e:	4606      	mov	r6, r0
 8008860:	460f      	mov	r7, r1
 8008862:	4602      	mov	r2, r0
 8008864:	460b      	mov	r3, r1
 8008866:	4650      	mov	r0, sl
 8008868:	4621      	mov	r1, r4
 800886a:	f7f7 fe35 	bl	80004d8 <__aeabi_dmul>
 800886e:	a33e      	add	r3, pc, #248	; (adr r3, 8008968 <__kernel_sin+0x138>)
 8008870:	e9d3 2300 	ldrd	r2, r3, [r3]
 8008874:	4680      	mov	r8, r0
 8008876:	4689      	mov	r9, r1
 8008878:	4630      	mov	r0, r6
 800887a:	4639      	mov	r1, r7
 800887c:	f7f7 fe2c 	bl	80004d8 <__aeabi_dmul>
 8008880:	a33b      	add	r3, pc, #236	; (adr r3, 8008970 <__kernel_sin+0x140>)
 8008882:	e9d3 2300 	ldrd	r2, r3, [r3]
 8008886:	f7f7 fc6f 	bl	8000168 <__aeabi_dsub>
 800888a:	4632      	mov	r2, r6
 800888c:	463b      	mov	r3, r7
 800888e:	f7f7 fe23 	bl	80004d8 <__aeabi_dmul>
 8008892:	a339      	add	r3, pc, #228	; (adr r3, 8008978 <__kernel_sin+0x148>)
 8008894:	e9d3 2300 	ldrd	r2, r3, [r3]
 8008898:	f7f7 fc68 	bl	800016c <__adddf3>
 800889c:	4632      	mov	r2, r6
 800889e:	463b      	mov	r3, r7
 80088a0:	f7f7 fe1a 	bl	80004d8 <__aeabi_dmul>
 80088a4:	a336      	add	r3, pc, #216	; (adr r3, 8008980 <__kernel_sin+0x150>)
 80088a6:	e9d3 2300 	ldrd	r2, r3, [r3]
 80088aa:	f7f7 fc5d 	bl	8000168 <__aeabi_dsub>
 80088ae:	4632      	mov	r2, r6
 80088b0:	463b      	mov	r3, r7
 80088b2:	f7f7 fe11 	bl	80004d8 <__aeabi_dmul>
 80088b6:	a334      	add	r3, pc, #208	; (adr r3, 8008988 <__kernel_sin+0x158>)
 80088b8:	e9d3 2300 	ldrd	r2, r3, [r3]
 80088bc:	f7f7 fc56 	bl	800016c <__adddf3>
 80088c0:	e9cd 0102 	strd	r0, r1, [sp, #8]
 80088c4:	b9dd      	cbnz	r5, 80088fe <__kernel_sin+0xce>
 80088c6:	4602      	mov	r2, r0
 80088c8:	460b      	mov	r3, r1
 80088ca:	4630      	mov	r0, r6
 80088cc:	4639      	mov	r1, r7
 80088ce:	f7f7 fe03 	bl	80004d8 <__aeabi_dmul>
 80088d2:	a32f      	add	r3, pc, #188	; (adr r3, 8008990 <__kernel_sin+0x160>)
 80088d4:	e9d3 2300 	ldrd	r2, r3, [r3]
 80088d8:	f7f7 fc46 	bl	8000168 <__aeabi_dsub>
 80088dc:	4642      	mov	r2, r8
 80088de:	464b      	mov	r3, r9
 80088e0:	f7f7 fdfa 	bl	80004d8 <__aeabi_dmul>
 80088e4:	4602      	mov	r2, r0
 80088e6:	460b      	mov	r3, r1
 80088e8:	4650      	mov	r0, sl
 80088ea:	4621      	mov	r1, r4
 80088ec:	f7f7 fc3e 	bl	800016c <__adddf3>
 80088f0:	4682      	mov	sl, r0
 80088f2:	460c      	mov	r4, r1
 80088f4:	4650      	mov	r0, sl
 80088f6:	4621      	mov	r1, r4
 80088f8:	b006      	add	sp, #24
 80088fa:	e8bd 87f0 	ldmia.w	sp!, {r4, r5, r6, r7, r8, r9, sl, pc}
 80088fe:	2200      	movs	r2, #0
 8008900:	e9dd 0100 	ldrd	r0, r1, [sp]
 8008904:	4b24      	ldr	r3, [pc, #144]	; (8008998 <__kernel_sin+0x168>)
 8008906:	f7f7 fde7 	bl	80004d8 <__aeabi_dmul>
 800890a:	e9dd 2302 	ldrd	r2, r3, [sp, #8]
 800890e:	e9cd 0104 	strd	r0, r1, [sp, #16]
 8008912:	4640      	mov	r0, r8
 8008914:	4649      	mov	r1, r9
 8008916:	f7f7 fddf 	bl	80004d8 <__aeabi_dmul>
 800891a:	4602      	mov	r2, r0
 800891c:	460b      	mov	r3, r1
 800891e:	e9dd 0104 	ldrd	r0, r1, [sp, #16]
 8008922:	f7f7 fc21 	bl	8000168 <__aeabi_dsub>
 8008926:	4632      	mov	r2, r6
 8008928:	463b      	mov	r3, r7
 800892a:	f7f7 fdd5 	bl	80004d8 <__aeabi_dmul>
 800892e:	e9dd 2300 	ldrd	r2, r3, [sp]
 8008932:	f7f7 fc19 	bl	8000168 <__aeabi_dsub>
 8008936:	a316      	add	r3, pc, #88	; (adr r3, 8008990 <__kernel_sin+0x160>)
 8008938:	e9d3 2300 	ldrd	r2, r3, [r3]
 800893c:	4606      	mov	r6, r0
 800893e:	460f      	mov	r7, r1
 8008940:	4640      	mov	r0, r8
 8008942:	4649      	mov	r1, r9
 8008944:	f7f7 fdc8 	bl	80004d8 <__aeabi_dmul>
 8008948:	4602      	mov	r2, r0
 800894a:	460b      	mov	r3, r1
 800894c:	4630      	mov	r0, r6
 800894e:	4639      	mov	r1, r7
 8008950:	f7f7 fc0c 	bl	800016c <__adddf3>
 8008954:	4602      	mov	r2, r0
 8008956:	460b      	mov	r3, r1
 8008958:	4650      	mov	r0, sl
 800895a:	4621      	mov	r1, r4
 800895c:	f7f7 fc04 	bl	8000168 <__aeabi_dsub>
 8008960:	e7c6      	b.n	80088f0 <__kernel_sin+0xc0>
 8008962:	bf00      	nop
 8008964:	f3af 8000 	nop.w
 8008968:	5acfd57c 	.word	0x5acfd57c
 800896c:	3de5d93a 	.word	0x3de5d93a
 8008970:	8a2b9ceb 	.word	0x8a2b9ceb
 8008974:	3e5ae5e6 	.word	0x3e5ae5e6
 8008978:	57b1fe7d 	.word	0x57b1fe7d
 800897c:	3ec71de3 	.word	0x3ec71de3
 8008980:	19c161d5 	.word	0x19c161d5
 8008984:	3f2a01a0 	.word	0x3f2a01a0
 8008988:	1110f8a6 	.word	0x1110f8a6
 800898c:	3f811111 	.word	0x3f811111
 8008990:	55555549 	.word	0x55555549
 8008994:	3fc55555 	.word	0x3fc55555
 8008998:	3fe00000 	.word	0x3fe00000
 800899c:	00000000 	.word	0x00000000

080089a0 <floor>:
 80089a0:	e92d 43f8 	stmdb	sp!, {r3, r4, r5, r6, r7, r8, r9, lr}
 80089a4:	f3c1 580a 	ubfx	r8, r1, #20, #11
 80089a8:	f2a8 36ff 	subw	r6, r8, #1023	; 0x3ff
 80089ac:	2e13      	cmp	r6, #19
 80089ae:	4602      	mov	r2, r0
 80089b0:	460b      	mov	r3, r1
 80089b2:	4607      	mov	r7, r0
 80089b4:	460c      	mov	r4, r1
 80089b6:	4605      	mov	r5, r0
 80089b8:	dc34      	bgt.n	8008a24 <floor+0x84>
 80089ba:	2e00      	cmp	r6, #0
 80089bc:	da15      	bge.n	80089ea <floor+0x4a>
 80089be:	a334      	add	r3, pc, #208	; (adr r3, 8008a90 <floor+0xf0>)
 80089c0:	e9d3 2300 	ldrd	r2, r3, [r3]
 80089c4:	f7f7 fbd2 	bl	800016c <__adddf3>
 80089c8:	2200      	movs	r2, #0
 80089ca:	2300      	movs	r3, #0
 80089cc:	f7f8 f814 	bl	80009f8 <__aeabi_dcmpgt>
 80089d0:	b140      	cbz	r0, 80089e4 <floor+0x44>
 80089d2:	2c00      	cmp	r4, #0
 80089d4:	da59      	bge.n	8008a8a <floor+0xea>
 80089d6:	f024 4300 	bic.w	r3, r4, #2147483648	; 0x80000000
 80089da:	ea57 0503 	orrs.w	r5, r7, r3
 80089de:	d001      	beq.n	80089e4 <floor+0x44>
 80089e0:	2500      	movs	r5, #0
 80089e2:	4c2d      	ldr	r4, [pc, #180]	; (8008a98 <floor+0xf8>)
 80089e4:	4623      	mov	r3, r4
 80089e6:	462f      	mov	r7, r5
 80089e8:	e025      	b.n	8008a36 <floor+0x96>
 80089ea:	4a2c      	ldr	r2, [pc, #176]	; (8008a9c <floor+0xfc>)
 80089ec:	fa42 f806 	asr.w	r8, r2, r6
 80089f0:	ea01 0208 	and.w	r2, r1, r8
 80089f4:	4302      	orrs	r2, r0
 80089f6:	d01e      	beq.n	8008a36 <floor+0x96>
 80089f8:	a325      	add	r3, pc, #148	; (adr r3, 8008a90 <floor+0xf0>)
 80089fa:	e9d3 2300 	ldrd	r2, r3, [r3]
 80089fe:	f7f7 fbb5 	bl	800016c <__adddf3>
 8008a02:	2200      	movs	r2, #0
 8008a04:	2300      	movs	r3, #0
 8008a06:	f7f7 fff7 	bl	80009f8 <__aeabi_dcmpgt>
 8008a0a:	2800      	cmp	r0, #0
 8008a0c:	d0ea      	beq.n	80089e4 <floor+0x44>
 8008a0e:	2c00      	cmp	r4, #0
 8008a10:	bfbe      	ittt	lt
 8008a12:	f44f 1380 	movlt.w	r3, #1048576	; 0x100000
 8008a16:	fa43 f606 	asrlt.w	r6, r3, r6
 8008a1a:	19a4      	addlt	r4, r4, r6
 8008a1c:	2500      	movs	r5, #0
 8008a1e:	ea24 0408 	bic.w	r4, r4, r8
 8008a22:	e7df      	b.n	80089e4 <floor+0x44>
 8008a24:	2e33      	cmp	r6, #51	; 0x33
 8008a26:	dd0a      	ble.n	8008a3e <floor+0x9e>
 8008a28:	f5b6 6f80 	cmp.w	r6, #1024	; 0x400
 8008a2c:	d103      	bne.n	8008a36 <floor+0x96>
 8008a2e:	f7f7 fb9d 	bl	800016c <__adddf3>
 8008a32:	4607      	mov	r7, r0
 8008a34:	460b      	mov	r3, r1
 8008a36:	4638      	mov	r0, r7
 8008a38:	4619      	mov	r1, r3
 8008a3a:	e8bd 83f8 	ldmia.w	sp!, {r3, r4, r5, r6, r7, r8, r9, pc}
 8008a3e:	f04f 32ff 	mov.w	r2, #4294967295	; 0xffffffff
 8008a42:	f2a8 4813 	subw	r8, r8, #1043	; 0x413
 8008a46:	fa22 f808 	lsr.w	r8, r2, r8
 8008a4a:	ea18 0f00 	tst.w	r8, r0
 8008a4e:	d0f2      	beq.n	8008a36 <floor+0x96>
 8008a50:	a30f      	add	r3, pc, #60	; (adr r3, 8008a90 <floor+0xf0>)
 8008a52:	e9d3 2300 	ldrd	r2, r3, [r3]
 8008a56:	f7f7 fb89 	bl	800016c <__adddf3>
 8008a5a:	2200      	movs	r2, #0
 8008a5c:	2300      	movs	r3, #0
 8008a5e:	f7f7 ffcb 	bl	80009f8 <__aeabi_dcmpgt>
 8008a62:	2800      	cmp	r0, #0
 8008a64:	d0be      	beq.n	80089e4 <floor+0x44>
 8008a66:	2c00      	cmp	r4, #0
 8008a68:	da02      	bge.n	8008a70 <floor+0xd0>
 8008a6a:	2e14      	cmp	r6, #20
 8008a6c:	d103      	bne.n	8008a76 <floor+0xd6>
 8008a6e:	3401      	adds	r4, #1
 8008a70:	ea25 0508 	bic.w	r5, r5, r8
 8008a74:	e7b6      	b.n	80089e4 <floor+0x44>
 8008a76:	2301      	movs	r3, #1
 8008a78:	f1c6 0634 	rsb	r6, r6, #52	; 0x34
 8008a7c:	fa03 f606 	lsl.w	r6, r3, r6
 8008a80:	4435      	add	r5, r6
 8008a82:	42bd      	cmp	r5, r7
 8008a84:	bf38      	it	cc
 8008a86:	18e4      	addcc	r4, r4, r3
 8008a88:	e7f2      	b.n	8008a70 <floor+0xd0>
 8008a8a:	2500      	movs	r5, #0
 8008a8c:	462c      	mov	r4, r5
 8008a8e:	e7a9      	b.n	80089e4 <floor+0x44>
 8008a90:	8800759c 	.word	0x8800759c
 8008a94:	7e37e43c 	.word	0x7e37e43c
 8008a98:	bff00000 	.word	0xbff00000
 8008a9c:	000fffff 	.word	0x000fffff

08008aa0 <scalbn>:
 8008aa0:	b5f8      	push	{r3, r4, r5, r6, r7, lr}
 8008aa2:	f3c1 560a 	ubfx	r6, r1, #20, #11
 8008aa6:	4604      	mov	r4, r0
 8008aa8:	460d      	mov	r5, r1
 8008aaa:	4617      	mov	r7, r2
 8008aac:	460b      	mov	r3, r1
 8008aae:	b996      	cbnz	r6, 8008ad6 <scalbn+0x36>
 8008ab0:	f021 4300 	bic.w	r3, r1, #2147483648	; 0x80000000
 8008ab4:	4303      	orrs	r3, r0
 8008ab6:	d039      	beq.n	8008b2c <scalbn+0x8c>
 8008ab8:	4b35      	ldr	r3, [pc, #212]	; (8008b90 <scalbn+0xf0>)
 8008aba:	2200      	movs	r2, #0
 8008abc:	f7f7 fd0c 	bl	80004d8 <__aeabi_dmul>
 8008ac0:	4b34      	ldr	r3, [pc, #208]	; (8008b94 <scalbn+0xf4>)
 8008ac2:	4604      	mov	r4, r0
 8008ac4:	429f      	cmp	r7, r3
 8008ac6:	460d      	mov	r5, r1
 8008ac8:	da0f      	bge.n	8008aea <scalbn+0x4a>
 8008aca:	a32d      	add	r3, pc, #180	; (adr r3, 8008b80 <scalbn+0xe0>)
 8008acc:	e9d3 2300 	ldrd	r2, r3, [r3]
 8008ad0:	f7f7 fd02 	bl	80004d8 <__aeabi_dmul>
 8008ad4:	e006      	b.n	8008ae4 <scalbn+0x44>
 8008ad6:	f240 72ff 	movw	r2, #2047	; 0x7ff
 8008ada:	4296      	cmp	r6, r2
 8008adc:	d10a      	bne.n	8008af4 <scalbn+0x54>
 8008ade:	4602      	mov	r2, r0
 8008ae0:	f7f7 fb44 	bl	800016c <__adddf3>
 8008ae4:	4604      	mov	r4, r0
 8008ae6:	460d      	mov	r5, r1
 8008ae8:	e020      	b.n	8008b2c <scalbn+0x8c>
 8008aea:	460b      	mov	r3, r1
 8008aec:	f3c1 510a 	ubfx	r1, r1, #20, #11
 8008af0:	f1a1 0636 	sub.w	r6, r1, #54	; 0x36
 8008af4:	f240 72fe 	movw	r2, #2046	; 0x7fe
 8008af8:	19b9      	adds	r1, r7, r6
 8008afa:	4291      	cmp	r1, r2
 8008afc:	dd0e      	ble.n	8008b1c <scalbn+0x7c>
 8008afe:	a322      	add	r3, pc, #136	; (adr r3, 8008b88 <scalbn+0xe8>)
 8008b00:	e9d3 2300 	ldrd	r2, r3, [r3]
 8008b04:	f005 4400 	and.w	r4, r5, #2147483648	; 0x80000000
 8008b08:	f044 41fc 	orr.w	r1, r4, #2113929216	; 0x7e000000
 8008b0c:	f441 115f 	orr.w	r1, r1, #3653632	; 0x37c000
 8008b10:	f441 5110 	orr.w	r1, r1, #9216	; 0x2400
 8008b14:	4820      	ldr	r0, [pc, #128]	; (8008b98 <scalbn+0xf8>)
 8008b16:	f041 013c 	orr.w	r1, r1, #60	; 0x3c
 8008b1a:	e7d9      	b.n	8008ad0 <scalbn+0x30>
 8008b1c:	2900      	cmp	r1, #0
 8008b1e:	dd08      	ble.n	8008b32 <scalbn+0x92>
 8008b20:	f023 43ff 	bic.w	r3, r3, #2139095040	; 0x7f800000
 8008b24:	f423 03e0 	bic.w	r3, r3, #7340032	; 0x700000
 8008b28:	ea43 5501 	orr.w	r5, r3, r1, lsl #20
 8008b2c:	4620      	mov	r0, r4
 8008b2e:	4629      	mov	r1, r5
 8008b30:	bdf8      	pop	{r3, r4, r5, r6, r7, pc}
 8008b32:	f111 0f35 	cmn.w	r1, #53	; 0x35
 8008b36:	da16      	bge.n	8008b66 <scalbn+0xc6>
 8008b38:	f24c 3350 	movw	r3, #50000	; 0xc350
 8008b3c:	429f      	cmp	r7, r3
 8008b3e:	ea4f 73d5 	mov.w	r3, r5, lsr #31
 8008b42:	dd08      	ble.n	8008b56 <scalbn+0xb6>
 8008b44:	4c15      	ldr	r4, [pc, #84]	; (8008b9c <scalbn+0xfc>)
 8008b46:	4814      	ldr	r0, [pc, #80]	; (8008b98 <scalbn+0xf8>)
 8008b48:	f363 74df 	bfi	r4, r3, #31, #1
 8008b4c:	a30e      	add	r3, pc, #56	; (adr r3, 8008b88 <scalbn+0xe8>)
 8008b4e:	e9d3 2300 	ldrd	r2, r3, [r3]
 8008b52:	4621      	mov	r1, r4
 8008b54:	e7bc      	b.n	8008ad0 <scalbn+0x30>
 8008b56:	4c12      	ldr	r4, [pc, #72]	; (8008ba0 <scalbn+0x100>)
 8008b58:	4812      	ldr	r0, [pc, #72]	; (8008ba4 <scalbn+0x104>)
 8008b5a:	f363 74df 	bfi	r4, r3, #31, #1
 8008b5e:	a308      	add	r3, pc, #32	; (adr r3, 8008b80 <scalbn+0xe0>)
 8008b60:	e9d3 2300 	ldrd	r2, r3, [r3]
 8008b64:	e7f5      	b.n	8008b52 <scalbn+0xb2>
 8008b66:	f023 43ff 	bic.w	r3, r3, #2139095040	; 0x7f800000
 8008b6a:	3136      	adds	r1, #54	; 0x36
 8008b6c:	f423 03e0 	bic.w	r3, r3, #7340032	; 0x700000
 8008b70:	ea43 5501 	orr.w	r5, r3, r1, lsl #20
 8008b74:	4620      	mov	r0, r4
 8008b76:	4629      	mov	r1, r5
 8008b78:	2200      	movs	r2, #0
 8008b7a:	4b0b      	ldr	r3, [pc, #44]	; (8008ba8 <scalbn+0x108>)
 8008b7c:	e7a8      	b.n	8008ad0 <scalbn+0x30>
 8008b7e:	bf00      	nop
 8008b80:	c2f8f359 	.word	0xc2f8f359
 8008b84:	01a56e1f 	.word	0x01a56e1f
 8008b88:	8800759c 	.word	0x8800759c
 8008b8c:	7e37e43c 	.word	0x7e37e43c
 8008b90:	43500000 	.word	0x43500000
 8008b94:	ffff3cb0 	.word	0xffff3cb0
 8008b98:	8800759c 	.word	0x8800759c
 8008b9c:	7e37e43c 	.word	0x7e37e43c
 8008ba0:	01a56e1f 	.word	0x01a56e1f
 8008ba4:	c2f8f359 	.word	0xc2f8f359
 8008ba8:	3c900000 	.word	0x3c900000

08008bac <_init>:
 8008bac:	b5f8      	push	{r3, r4, r5, r6, r7, lr}
 8008bae:	bf00      	nop
 8008bb0:	bcf8      	pop	{r3, r4, r5, r6, r7}
 8008bb2:	bc08      	pop	{r3}
 8008bb4:	469e      	mov	lr, r3
 8008bb6:	4770      	bx	lr

08008bb8 <_fini>:
 8008bb8:	b5f8      	push	{r3, r4, r5, r6, r7, lr}
 8008bba:	bf00      	nop
 8008bbc:	bcf8      	pop	{r3, r4, r5, r6, r7}
 8008bbe:	bc08      	pop	{r3}
 8008bc0:	469e      	mov	lr, r3
 8008bc2:	4770      	bx	lr
